---
triple:          'x86_64-apple-darwin'
binary-path:     exe
relocations:
  - { offsetInCU: 0x3B71, offset: 0x3B71, size: 0x8, addend: 0x0, symName: __ZNSt3__17advanceB7v160006IP4PathmmvEEvRT_T0_, symObjAddr: 0x660, symBinAddr: 0x100002CF0, symSize: 0x50 }
  - { offsetInCU: 0x3F73, offset: 0x3F73, size: 0x8, addend: 0x0, symName: __ZNSt3__17advanceB7v160006IP4PathllvEEvRT_T0_, symObjAddr: 0x1680, symBinAddr: 0x100003D10, symSize: 0x50 }
  - { offsetInCU: 0x43C5, offset: 0x43C5, size: 0x8, addend: 0x0, symName: __ZNSt3__17advanceB7v160006INS_16reverse_iteratorIP4PathEEllvEEvRT_T0_, symObjAddr: 0x3190, symBinAddr: 0x100005820, symSize: 0x50 }
  - { offsetInCU: 0x851B, offset: 0x851B, size: 0x8, addend: 0x0, symName: __ZNSt3__119__debug_db_insert_cB7v160006INS_6vectorI4PathNS_9allocatorIS2_EEEEEEvPT_, symObjAddr: 0x360, symBinAddr: 0x1000029F0, symSize: 0x10 }
  - { offsetInCU: 0x854C, offset: 0x854C, size: 0x8, addend: 0x0, symName: __ZNSt3__18distanceB7v160006IP4PathEENS_15iterator_traitsIT_E15difference_typeES4_S4_, symObjAddr: 0x5C0, symBinAddr: 0x100002C50, symSize: 0x30 }
  - { offsetInCU: 0x858F, offset: 0x858F, size: 0x8, addend: 0x0, symName: __ZNSt3__14copyB7v160006IP4PathS2_EET0_T_S4_S3_, symObjAddr: 0x6B0, symBinAddr: 0x100002D40, symSize: 0x40 }
  - { offsetInCU: 0x85E9, offset: 0x85E9, size: 0x8, addend: 0x0, symName: __ZNSt3__125__debug_db_invalidate_allB7v160006INS_6vectorI4PathNS_9allocatorIS2_EEEEEEvPT_, symObjAddr: 0x9A0, symBinAddr: 0x100003030, symSize: 0x10 }
  - { offsetInCU: 0x861A, offset: 0x861A, size: 0x8, addend: 0x0, symName: __ZNSt3__110__distanceB7v160006IP4PathEENS_15iterator_traitsIT_E15difference_typeES4_S4_NS_26random_access_iterator_tagE, symObjAddr: 0x9B0, symBinAddr: 0x100003040, symSize: 0x30 }
  - { offsetInCU: 0x8667, offset: 0x8667, size: 0x8, addend: 0x0, symName: __ZNSt3__121__convert_to_integralB7v160006Em, symObjAddr: 0xA30, symBinAddr: 0x1000030C0, symSize: 0x10 }
  - { offsetInCU: 0x8693, offset: 0x8693, size: 0x8, addend: 0x0, symName: __ZNSt3__19__advanceB7v160006IP4PathEEvRT_NS_15iterator_traitsIS3_E15difference_typeENS_26random_access_iterator_tagE, symObjAddr: 0xA40, symBinAddr: 0x1000030D0, symSize: 0x20 }
  - { offsetInCU: 0x86DC, offset: 0x86DC, size: 0x8, addend: 0x0, symName: __ZNSt3__16__copyB7v160006INS_17_ClassicAlgPolicyEP4PathS3_S3_EENS_4pairIT0_T2_EES5_T1_S6_, symObjAddr: 0xA60, symBinAddr: 0x1000030F0, symSize: 0x40 }
  - { offsetInCU: 0x8748, offset: 0x8748, size: 0x8, addend: 0x0, symName: __ZNSt3__123__dispatch_copy_or_moveB7v160006INS_17_ClassicAlgPolicyENS_11__copy_loopIS1_EENS_14__copy_trivialEP4PathS6_S6_EENS_4pairIT2_T4_EES8_T3_S9_, symObjAddr: 0xAA0, symBinAddr: 0x100003130, symSize: 0x40 }
  - { offsetInCU: 0x87C6, offset: 0x87C6, size: 0x8, addend: 0x0, symName: __ZNSt3__121__unwrap_and_dispatchB7v160006INS_10__overloadINS_11__copy_loopINS_17_ClassicAlgPolicyEEENS_14__copy_trivialEEEP4PathS8_S8_Li0EEENS_4pairIT0_T2_EESA_T1_SB_, symObjAddr: 0xAE0, symBinAddr: 0x100003170, symSize: 0xB0 }
  - { offsetInCU: 0x8855, offset: 0x8855, size: 0x8, addend: 0x0, symName: __ZNSt3__114__unwrap_rangeB7v160006IP4PathS2_EEDaT_T0_, symObjAddr: 0xB90, symBinAddr: 0x100003220, symSize: 0x40 }
  - { offsetInCU: 0x89D0, offset: 0x89D0, size: 0x8, addend: 0x0, symName: __ZNSt3__113__unwrap_iterB7v160006IP4PathNS_18__unwrap_iter_implIS2_Lb1EEELi0EEEDTclsrT0_8__unwrapclsr3stdE7declvalIT_EEEES6_, symObjAddr: 0xC50, symBinAddr: 0x1000032E0, symSize: 0x20 }
  - { offsetInCU: 0x8A14, offset: 0x8A14, size: 0x8, addend: 0x0, symName: __ZNSt3__19make_pairB7v160006IP4PathS2_EENS_4pairINS_18__unwrap_ref_decayIT_E4typeENS4_IT0_E4typeEEEOS5_OS8_, symObjAddr: 0xC70, symBinAddr: 0x100003300, symSize: 0x30 }
  - { offsetInCU: 0x8A63, offset: 0x8A63, size: 0x8, addend: 0x0, symName: __ZNSt3__114__rewrap_rangeB7v160006IP4PathS2_S2_EET0_S3_T1_, symObjAddr: 0xCA0, symBinAddr: 0x100003330, symSize: 0x30 }
  - { offsetInCU: 0x8AB8, offset: 0x8AB8, size: 0x8, addend: 0x0, symName: __ZNSt3__113__rewrap_iterB7v160006IP4PathS2_NS_18__unwrap_iter_implIS2_Lb1EEEEET_S5_T0_, symObjAddr: 0xCD0, symBinAddr: 0x100003360, symSize: 0x40 }
  - { offsetInCU: 0x8BB0, offset: 0x8BB0, size: 0x8, addend: 0x0, symName: __ZNSt3__112__to_addressB7v160006I4PathEEPT_S3_, symObjAddr: 0xE30, symBinAddr: 0x1000034C0, symSize: 0x10 }
  - { offsetInCU: 0x8BE5, offset: 0x8BE5, size: 0x8, addend: 0x0, symName: __ZNSt3__130__uninitialized_allocator_copyB7v160006INS_9allocatorI4PathEEPS2_S4_S4_EET2_RT_T0_T1_S5_, symObjAddr: 0xF00, symBinAddr: 0x100003590, symSize: 0x100 }
  - { offsetInCU: 0x8C83, offset: 0x8C83, size: 0x8, addend: 0x0, symName: __ZNSt3__122__make_exception_guardB7v160006INS_29_AllocatorDestroyRangeReverseINS_9allocatorI4PathEEPS3_EEEENS_28__exception_guard_exceptionsIT_EES8_, symObjAddr: 0x1080, symBinAddr: 0x100003710, symSize: 0x60 }
  - { offsetInCU: 0x8CDD, offset: 0x8CDD, size: 0x8, addend: 0x0, symName: __ZNSt3__112construct_atB7v160006I4PathJRS1_EPS1_EEPT_S5_DpOT0_, symObjAddr: 0x1240, symBinAddr: 0x1000038D0, symSize: 0x40 }
  - { offsetInCU: 0x8D4D, offset: 0x8D4D, size: 0x8, addend: 0x0, symName: __ZNSt3__119__allocator_destroyB7v160006INS_9allocatorI4PathEENS_16reverse_iteratorIPS2_EES6_EEvRT_T0_T1_, symObjAddr: 0x13D0, symBinAddr: 0x100003A60, symSize: 0x70 }
  - { offsetInCU: 0x8DB0, offset: 0x8DB0, size: 0x8, addend: 0x0, symName: __ZNSt3__1neB7v160006IP4PathS2_EEbRKNS_16reverse_iteratorIT_EERKNS3_IT0_EE, symObjAddr: 0x1470, symBinAddr: 0x100003B00, symSize: 0x40 }
  - { offsetInCU: 0x8DFC, offset: 0x8DFC, size: 0x8, addend: 0x0, symName: __ZNSt3__112__to_addressB7v160006INS_16reverse_iteratorIP4PathEEvEENS_5decayIDTclsr19__to_address_helperIT_EE6__callclsr3stdE7declvalIRKS6_EEEEE4typeES8_, symObjAddr: 0x14D0, symBinAddr: 0x100003B60, symSize: 0x20 }
  - { offsetInCU: 0x8E32, offset: 0x8E32, size: 0x8, addend: 0x0, symName: __ZNSt3__110destroy_atB7v160006I4PathLi0EEEvPT_, symObjAddr: 0x1530, symBinAddr: 0x100003BC0, symSize: 0x20 }
  - { offsetInCU: 0x8E69, offset: 0x8E69, size: 0x8, addend: 0x0, symName: __ZNSt3__112__destroy_atB7v160006I4PathLi0EEEvPT_, symObjAddr: 0x1550, symBinAddr: 0x100003BE0, symSize: 0x20 }
  - { offsetInCU: 0x8EC9, offset: 0x8EC9, size: 0x8, addend: 0x0, symName: __ZNSt3__14prevB7v160006IP4PathEENS_9enable_ifIXsr25__is_cpp17_input_iteratorIT_EE5valueES4_E4typeES4_NS_15iterator_traitsIS4_E15difference_typeE, symObjAddr: 0x1630, symBinAddr: 0x100003CC0, symSize: 0x50 }
  - { offsetInCU: 0x8F0C, offset: 0x8F0C, size: 0x8, addend: 0x0, symName: __ZNSt3__121__convert_to_integralB7v160006El, symObjAddr: 0x16D0, symBinAddr: 0x100003D60, symSize: 0x10 }
  - { offsetInCU: 0x8F38, offset: 0x8F38, size: 0x8, addend: 0x0, symName: __ZNSt3__119__libcpp_deallocateB7v160006EPvmm, symObjAddr: 0x19D0, symBinAddr: 0x100004060, symSize: 0x60 }
  - { offsetInCU: 0x8F9D, offset: 0x8F9D, size: 0x8, addend: 0x0, symName: __ZNSt3__124__is_overaligned_for_newB7v160006Em, symObjAddr: 0x1A30, symBinAddr: 0x1000040C0, symSize: 0x20 }
  - { offsetInCU: 0x8FCB, offset: 0x8FCB, size: 0x8, addend: 0x0, symName: __ZNSt3__127__do_deallocate_handle_sizeB7v160006IJSt11align_val_tEEEvPvmDpT_, symObjAddr: 0x1A50, symBinAddr: 0x1000040E0, symSize: 0x30 }
  - { offsetInCU: 0x901E, offset: 0x901E, size: 0x8, addend: 0x0, symName: __ZNSt3__127__do_deallocate_handle_sizeB7v160006IJEEEvPvmDpT_, symObjAddr: 0x1A80, symBinAddr: 0x100004110, symSize: 0x20 }
  - { offsetInCU: 0x905C, offset: 0x905C, size: 0x8, addend: 0x0, symName: __ZNSt3__124__libcpp_operator_deleteB7v160006IJPvSt11align_val_tEEEvDpT_, symObjAddr: 0x1AA0, symBinAddr: 0x100004130, symSize: 0x30 }
  - { offsetInCU: 0x90A5, offset: 0x90A5, size: 0x8, addend: 0x0, symName: __ZNSt3__124__libcpp_operator_deleteB7v160006IJPvEEEvDpT_, symObjAddr: 0x1AD0, symBinAddr: 0x100004160, symSize: 0x20 }
  - { offsetInCU: 0x90DA, offset: 0x90DA, size: 0x8, addend: 0x0, symName: __ZNSt3__119__allocate_at_leastB7v160006INS_9allocatorI4PathEEEENS_19__allocation_resultINS_16allocator_traitsIT_E7pointerEEERS6_m, symObjAddr: 0x1BA0, symBinAddr: 0x100004230, symSize: 0x40 }
  - { offsetInCU: 0x911D, offset: 0x911D, size: 0x8, addend: 0x0, symName: __ZNSt3__13minB7v160006ImEERKT_S3_S3_, symObjAddr: 0x1C80, symBinAddr: 0x100004310, symSize: 0x30 }
  - { offsetInCU: 0x934A, offset: 0x934A, size: 0x8, addend: 0x0, symName: __ZNSt3__13minB7v160006ImNS_6__lessImmEEEERKT_S5_S5_T0_, symObjAddr: 0x1D10, symBinAddr: 0x1000043A0, symSize: 0x50 }
  - { offsetInCU: 0x93DF, offset: 0x93DF, size: 0x8, addend: 0x0, symName: __ZNSt3__120__throw_length_errorB7v160006EPKc, symObjAddr: 0x1DF0, symBinAddr: 0x100004480, symSize: 0x70 }
  - { offsetInCU: 0x9407, offset: 0x9407, size: 0x8, addend: 0x0, symName: __ZNSt3__117__libcpp_allocateB7v160006Emm, symObjAddr: 0x1F60, symBinAddr: 0x1000045F0, symSize: 0x60 }
  - { offsetInCU: 0x9461, offset: 0x9461, size: 0x8, addend: 0x0, symName: __ZNSt3__121__libcpp_operator_newB7v160006IJmSt11align_val_tEEEPvDpT_, symObjAddr: 0x1FC0, symBinAddr: 0x100004650, symSize: 0x30 }
  - { offsetInCU: 0x94AE, offset: 0x94AE, size: 0x8, addend: 0x0, symName: __ZNSt3__121__libcpp_operator_newB7v160006IJmEEEPvDpT_, symObjAddr: 0x1FF0, symBinAddr: 0x100004680, symSize: 0x20 }
  - { offsetInCU: 0x94E7, offset: 0x94E7, size: 0x8, addend: 0x0, symName: __ZNSt3__13maxB7v160006ImEERKT_S3_S3_, symObjAddr: 0x2010, symBinAddr: 0x1000046A0, symSize: 0x30 }
  - { offsetInCU: 0x952A, offset: 0x952A, size: 0x8, addend: 0x0, symName: __ZNSt3__13maxB7v160006ImNS_6__lessImmEEEERKT_S5_S5_T0_, symObjAddr: 0x2040, symBinAddr: 0x1000046D0, symSize: 0x50 }
  - { offsetInCU: 0x9584, offset: 0x9584, size: 0x8, addend: 0x0, symName: __ZNSt3__118__debug_db_erase_cB7v160006INS_6vectorI4PathNS_9allocatorIS2_EEEEEEvPT_, symObjAddr: 0x2280, symBinAddr: 0x100004910, symSize: 0x10 }
  - { offsetInCU: 0x95B5, offset: 0x95B5, size: 0x8, addend: 0x0, symName: __ZNSt3__112construct_atB7v160006I4PathJRKS1_EPS1_EEPT_S6_DpOT0_, symObjAddr: 0x2420, symBinAddr: 0x100004AB0, symSize: 0x40 }
  - { offsetInCU: 0x9625, offset: 0x9625, size: 0x8, addend: 0x0, symName: __ZNSt3__142__uninitialized_allocator_move_if_noexceptB7v160006INS_9allocatorI4PathEENS_16reverse_iteratorIPS2_EES6_S6_EET2_RT_T0_T1_S7_, symObjAddr: 0x27E0, symBinAddr: 0x100004E70, symSize: 0x180 }
  - { offsetInCU: 0x96C4, offset: 0x96C4, size: 0x8, addend: 0x0, symName: __ZNSt3__14swapB7v160006IP4PathEENS_9enable_ifIXaasr21is_move_constructibleIT_EE5valuesr18is_move_assignableIS4_EE5valueEvE4typeERS4_S7_, symObjAddr: 0x2960, symBinAddr: 0x100004FF0, symSize: 0x40 }
  - { offsetInCU: 0x9715, offset: 0x9715, size: 0x8, addend: 0x0, symName: __ZNSt3__122__make_exception_guardB7v160006INS_29_AllocatorDestroyRangeReverseINS_9allocatorI4PathEENS_16reverse_iteratorIPS3_EEEEEENS_28__exception_guard_exceptionsIT_EESA_, symObjAddr: 0x29A0, symBinAddr: 0x100005030, symSize: 0x60 }
  - { offsetInCU: 0x974A, offset: 0x974A, size: 0x8, addend: 0x0, symName: __ZNSt3__112construct_atB7v160006I4PathJS1_EPS1_EEPT_S4_DpOT0_, symObjAddr: 0x2B90, symBinAddr: 0x100005220, symSize: 0x40 }
  - { offsetInCU: 0x97BA, offset: 0x97BA, size: 0x8, addend: 0x0, symName: __ZNSt3__119__debug_db_insert_cB7v160006INS_12basic_stringIcNS_11char_traitsIcEENS_9allocatorIcEEEEEEvPT_, symObjAddr: 0x2D60, symBinAddr: 0x1000053F0, symSize: 0x10 }
  - { offsetInCU: 0x97EB, offset: 0x97EB, size: 0x8, addend: 0x0, symName: __ZNSt3__115__debug_db_swapB7v160006INS_12basic_stringIcNS_11char_traitsIcEENS_9allocatorIcEEEEEEvPT_S8_, symObjAddr: 0x2DA0, symBinAddr: 0x100005430, symSize: 0x10 }
  - { offsetInCU: 0x982A, offset: 0x982A, size: 0x8, addend: 0x0, symName: __ZNSt3__119__allocator_destroyB7v160006INS_9allocatorI4PathEENS_16reverse_iteratorINS4_IPS2_EEEES7_EEvRT_T0_T1_, symObjAddr: 0x2F40, symBinAddr: 0x1000055D0, symSize: 0x70 }
  - { offsetInCU: 0x988D, offset: 0x988D, size: 0x8, addend: 0x0, symName: __ZNSt3__1neB7v160006INS_16reverse_iteratorIP4PathEES4_EEbRKNS1_IT_EERKNS1_IT0_EE, symObjAddr: 0x2FE0, symBinAddr: 0x100005670, symSize: 0x50 }
  - { offsetInCU: 0x98D9, offset: 0x98D9, size: 0x8, addend: 0x0, symName: __ZNSt3__112__to_addressB7v160006INS_16reverse_iteratorINS1_IP4PathEEEEvEENS_5decayIDTclsr19__to_address_helperIT_EE6__callclsr3stdE7declvalIRKS7_EEEEE4typeES9_, symObjAddr: 0x3030, symBinAddr: 0x1000056C0, symSize: 0x20 }
  - { offsetInCU: 0x9938, offset: 0x9938, size: 0x8, addend: 0x0, symName: __ZNSt3__14prevB7v160006INS_16reverse_iteratorIP4PathEEEENS_9enable_ifIXsr25__is_cpp17_input_iteratorIT_EE5valueES6_E4typeES6_NS_15iterator_traitsIS6_E15difference_typeE, symObjAddr: 0x3130, symBinAddr: 0x1000057C0, symSize: 0x60 }
  - { offsetInCU: 0x997B, offset: 0x997B, size: 0x8, addend: 0x0, symName: __ZNSt3__19__advanceB7v160006INS_16reverse_iteratorIP4PathEEEEvRT_NS_15iterator_traitsIS5_E15difference_typeENS_26random_access_iterator_tagE, symObjAddr: 0x31E0, symBinAddr: 0x100005870, symSize: 0x30 }
  - { offsetInCU: 0x99C4, offset: 0x99C4, size: 0x8, addend: 0x0, symName: __ZNSt3__119__debug_db_insert_cB7v160006INS_13unordered_mapIi6PacketNS_4hashIiEENS_8equal_toIiEENS_9allocatorINS_4pairIKiS2_EEEEEEEEvPT_, symObjAddr: 0x34C0, symBinAddr: 0x100005B50, symSize: 0x10 }
  - { offsetInCU: 0x99F5, offset: 0x99F5, size: 0x8, addend: 0x0, symName: __ZNSt3__118__debug_db_erase_cB7v160006INS_12__hash_tableINS_17__hash_value_typeIi6PacketEENS_22__unordered_map_hasherIiS4_NS_4hashIiEENS_8equal_toIiEELb1EEENS_21__unordered_map_equalIiS4_S9_S7_Lb1EEENS_9allocatorIS4_EEEEEEvPT_, symObjAddr: 0x3B40, symBinAddr: 0x1000061D0, symSize: 0x10 }
  - { offsetInCU: 0x9A59, offset: 0x9A59, size: 0x8, addend: 0x0, symName: __ZNSt3__110destroy_atB7v160006INS_4pairIKi6PacketEELi0EEEvPT_, symObjAddr: 0x3C60, symBinAddr: 0x1000062F0, symSize: 0x20 }
  - { offsetInCU: 0x9A90, offset: 0x9A90, size: 0x8, addend: 0x0, symName: __ZNSt3__112__destroy_atB7v160006INS_4pairIKi6PacketEELi0EEEvPT_, symObjAddr: 0x3C80, symBinAddr: 0x100006310, symSize: 0x10 }
  - { offsetInCU: 0x9AC7, offset: 0x9AC7, size: 0x8, addend: 0x0, symName: __ZNSt3__17launderB7v160006INS_4pairIKi6PacketEEEEPT_S6_, symObjAddr: 0x3CB0, symBinAddr: 0x100006340, symSize: 0x20 }
  - { offsetInCU: 0x9AFE, offset: 0x9AFE, size: 0x8, addend: 0x0, symName: __ZNSt3__19__launderB7v160006INS_4pairIKi6PacketEEEEPT_S6_, symObjAddr: 0x3CD0, symBinAddr: 0x100006360, symSize: 0x10 }
  - { offsetInCU: 0x9B35, offset: 0x9B35, size: 0x8, addend: 0x0, symName: __ZNSt3__13getB7v160006ILm0EKi6PacketEERKNS_13tuple_elementIXT_ENS_4pairIT0_T1_EEE4typeERKS7_, symObjAddr: 0x45C0, symBinAddr: 0x100006C50, symSize: 0x20 }
  - { offsetInCU: 0x9B7E, offset: 0x9B7E, size: 0x8, addend: 0x0, symName: __ZNSt3__13getB7v160006ILm1EKi6PacketEERKNS_13tuple_elementIXT_ENS_4pairIT0_T1_EEE4typeERKS7_, symObjAddr: 0x45E0, symBinAddr: 0x100006C70, symSize: 0x20 }
  - { offsetInCU: 0x9C41, offset: 0x9C41, size: 0x8, addend: 0x0, symName: __ZNSt3__17launderB7v160006IKNS_4pairIKi6PacketEEEEPT_S7_, symObjAddr: 0x4BB0, symBinAddr: 0x100007240, symSize: 0x20 }
  - { offsetInCU: 0x9C78, offset: 0x9C78, size: 0x8, addend: 0x0, symName: __ZNSt3__19__launderB7v160006IKNS_4pairIKi6PacketEEEEPT_S7_, symObjAddr: 0x4BD0, symBinAddr: 0x100007260, symSize: 0x10 }
  - { offsetInCU: 0x9CAF, offset: 0x9CAF, size: 0x8, addend: 0x0, symName: __ZNSt3__116__constrain_hashB7v160006Emm, symObjAddr: 0x4BE0, symBinAddr: 0x100007270, symSize: 0x80 }
  - { offsetInCU: 0x9CE9, offset: 0x9CE9, size: 0x8, addend: 0x0, symName: __ZNSt3__116__is_hash_power2B7v160006Em, symObjAddr: 0x4D20, symBinAddr: 0x1000073B0, symSize: 0x40 }
  - { offsetInCU: 0x9D15, offset: 0x9D15, size: 0x8, addend: 0x0, symName: __ZNSt3__116__next_hash_pow2B7v160006Em, symObjAddr: 0x52A0, symBinAddr: 0x100007930, symSize: 0x60 }
  - { offsetInCU: 0x9D41, offset: 0x9D41, size: 0x8, addend: 0x0, symName: __ZNSt3__125__debug_db_invalidate_allB7v160006INS_12__hash_tableINS_17__hash_value_typeIi6PacketEENS_22__unordered_map_hasherIiS4_NS_4hashIiEENS_8equal_toIiEELb1EEENS_21__unordered_map_equalIiS4_S9_S7_Lb1EEENS_9allocatorIS4_EEEEEEvPT_, symObjAddr: 0x5300, symBinAddr: 0x100007990, symSize: 0x10 }
  - { offsetInCU: 0x9D8E, offset: 0x9D8E, size: 0x8, addend: 0x0, symName: __ZNSt3__112__libcpp_clzB7v160006Em, symObjAddr: 0x5440, symBinAddr: 0x100007AD0, symSize: 0x20 }
  - { offsetInCU: 0x9DFD, offset: 0x9DFD, size: 0x8, addend: 0x0, symName: __ZNSt3__112construct_atB7v160006INS_4pairIKi6PacketEEJRKS4_EPS4_EEPT_S9_DpOT0_, symObjAddr: 0x5F40, symBinAddr: 0x1000085D0, symSize: 0x40 }
  - { offsetInCU: 0xA258, offset: 0xA258, size: 0x8, addend: 0x0, symName: __ZSt28__throw_bad_array_new_lengthB7v160006v, symObjAddr: 0x1F20, symBinAddr: 0x1000045B0, symSize: 0x40 }
  - { offsetInCU: 0xA6EF, offset: 0xA6EF, size: 0x8, addend: 0x0, symName: __ZNSt3__16vectorI4PathNS_9allocatorIS1_EEE26__swap_out_circular_bufferERNS_14__split_bufferIS1_RS3_EE, symObjAddr: 0x24A0, symBinAddr: 0x100004B30, symSize: 0x130 }
  - { offsetInCU: 0xCFAA, offset: 0xCFAA, size: 0x8, addend: 0x0, symName: __ZN4HostC2EiiRNSt3__16vectorI4PathNS0_9allocatorIS2_EEEE, symObjAddr: 0x0, symBinAddr: 0x100002690, symSize: 0xB0 }
  - { offsetInCU: 0xCFFF, offset: 0xCFFF, size: 0x8, addend: 0x0, symName: __ZNSt3__113unordered_mapIi6PacketNS_4hashIiEENS_8equal_toIiEENS_9allocatorINS_4pairIKiS1_EEEEEC1B7v160006Ev, symObjAddr: 0xB0, symBinAddr: 0x100002740, symSize: 0x20 }
  - { offsetInCU: 0xD028, offset: 0xD028, size: 0x8, addend: 0x0, symName: __ZNSt3__16vectorI4PathNS_9allocatorIS1_EEEC1B7v160006Ev, symObjAddr: 0xD0, symBinAddr: 0x100002760, symSize: 0x20 }
  - { offsetInCU: 0xD050, offset: 0xD050, size: 0x8, addend: 0x0, symName: __ZNSt3__16vectorI4PathNS_9allocatorIS1_EEEaSB7v160006ERKS4_, symObjAddr: 0xF0, symBinAddr: 0x100002780, symSize: 0x60 }
  - { offsetInCU: 0xD086, offset: 0xD086, size: 0x8, addend: 0x0, symName: __ZNSt16initializer_listINSt3__14pairIKi6PacketEEEC1B7v160006Ev, symObjAddr: 0x150, symBinAddr: 0x1000027E0, symSize: 0x20 }
  - { offsetInCU: 0xD0AE, offset: 0xD0AE, size: 0x8, addend: 0x0, symName: __ZNSt3__113unordered_mapIi6PacketNS_4hashIiEENS_8equal_toIiEENS_9allocatorINS_4pairIKiS1_EEEEEaSESt16initializer_listIS9_E, symObjAddr: 0x170, symBinAddr: 0x100002800, symSize: 0x50 }
  - { offsetInCU: 0xD0E4, offset: 0xD0E4, size: 0x8, addend: 0x0, symName: __ZNSt3__16vectorI4PathNS_9allocatorIS1_EEED1B7v160006Ev, symObjAddr: 0x1C0, symBinAddr: 0x100002850, symSize: 0x20 }
  - { offsetInCU: 0xD10D, offset: 0xD10D, size: 0x8, addend: 0x0, symName: __ZNSt3__113unordered_mapIi6PacketNS_4hashIiEENS_8equal_toIiEENS_9allocatorINS_4pairIKiS1_EEEEED1B7v160006Ev, symObjAddr: 0x1E0, symBinAddr: 0x100002870, symSize: 0x20 }
  - { offsetInCU: 0xD136, offset: 0xD136, size: 0x8, addend: 0x0, symName: __ZN4HostC1EiiRNSt3__16vectorI4PathNS0_9allocatorIS2_EEEE, symObjAddr: 0x200, symBinAddr: 0x100002890, symSize: 0x30 }
  - { offsetInCU: 0xD18B, offset: 0xD18B, size: 0x8, addend: 0x0, symName: __ZN4Host7addPathER4Path, symObjAddr: 0x230, symBinAddr: 0x1000028C0, symSize: 0x30 }
  - { offsetInCU: 0xD1BF, offset: 0xD1BF, size: 0x8, addend: 0x0, symName: __ZNSt3__16vectorI4PathNS_9allocatorIS1_EEE9push_backB7v160006ERKS1_, symObjAddr: 0x260, symBinAddr: 0x1000028F0, symSize: 0x60 }
  - { offsetInCU: 0xD1F5, offset: 0xD1F5, size: 0x8, addend: 0x0, symName: __ZNSt3__16vectorI4PathNS_9allocatorIS1_EEEC2B7v160006Ev, symObjAddr: 0x2C0, symBinAddr: 0x100002950, symSize: 0x60 }
  - { offsetInCU: 0xD228, offset: 0xD228, size: 0x8, addend: 0x0, symName: __ZNSt3__117__compressed_pairIP4PathNS_9allocatorIS1_EEEC1B7v160006IDnNS_18__default_init_tagEEEOT_OT0_, symObjAddr: 0x320, symBinAddr: 0x1000029B0, symSize: 0x30 }
  - { offsetInCU: 0xD27F, offset: 0xD27F, size: 0x8, addend: 0x0, symName: __ZNSt3__117__compressed_pairIP4PathNS_9allocatorIS1_EEEC2B7v160006IDnNS_18__default_init_tagEEEOT_OT0_, symObjAddr: 0x370, symBinAddr: 0x100002A00, symSize: 0x40 }
  - { offsetInCU: 0xD2D6, offset: 0xD2D6, size: 0x8, addend: 0x0, symName: __ZNSt3__122__compressed_pair_elemIP4PathLi0ELb0EEC2B7v160006IDnvEEOT_, symObjAddr: 0x3B0, symBinAddr: 0x100002A40, symSize: 0x20 }
  - { offsetInCU: 0xD317, offset: 0xD317, size: 0x8, addend: 0x0, symName: __ZNSt3__122__compressed_pair_elemINS_9allocatorI4PathEELi1ELb1EEC2B7v160006ENS_18__default_init_tagE, symObjAddr: 0x3D0, symBinAddr: 0x100002A60, symSize: 0x20 }
  - { offsetInCU: 0xD34A, offset: 0xD34A, size: 0x8, addend: 0x0, symName: __ZNSt3__19allocatorI4PathEC2B7v160006Ev, symObjAddr: 0x3F0, symBinAddr: 0x100002A80, symSize: 0x20 }
  - { offsetInCU: 0xD373, offset: 0xD373, size: 0x8, addend: 0x0, symName: __ZNSt3__116__non_trivial_ifILb1ENS_9allocatorI4PathEEEC2B7v160006Ev, symObjAddr: 0x410, symBinAddr: 0x100002AA0, symSize: 0x10 }
  - { offsetInCU: 0xD39C, offset: 0xD39C, size: 0x8, addend: 0x0, symName: __ZNSt3__16vectorI4PathNS_9allocatorIS1_EEE19__copy_assign_allocB7v160006ERKS4_, symObjAddr: 0x420, symBinAddr: 0x100002AB0, symSize: 0x30 }
  - { offsetInCU: 0xD3CF, offset: 0xD3CF, size: 0x8, addend: 0x0, symName: __ZNSt3__16vectorI4PathNS_9allocatorIS1_EEE6assignIPS1_Li0EEEvT_S7_, symObjAddr: 0x450, symBinAddr: 0x100002AE0, symSize: 0x160 }
  - { offsetInCU: 0xD46D, offset: 0xD46D, size: 0x8, addend: 0x0, symName: __ZNSt3__16vectorI4PathNS_9allocatorIS1_EEE19__copy_assign_allocB7v160006ERKS4_NS_17integral_constantIbLb0EEE, symObjAddr: 0x5B0, symBinAddr: 0x100002C40, symSize: 0x10 }
  - { offsetInCU: 0xD4AA, offset: 0xD4AA, size: 0x8, addend: 0x0, symName: __ZNKSt3__16vectorI4PathNS_9allocatorIS1_EEE8capacityB7v160006Ev, symObjAddr: 0x5F0, symBinAddr: 0x100002C80, symSize: 0x40 }
  - { offsetInCU: 0xD4CF, offset: 0xD4CF, size: 0x8, addend: 0x0, symName: __ZNKSt3__16vectorI4PathNS_9allocatorIS1_EEE4sizeB7v160006Ev, symObjAddr: 0x630, symBinAddr: 0x100002CC0, symSize: 0x30 }
  - { offsetInCU: 0xD4F3, offset: 0xD4F3, size: 0x8, addend: 0x0, symName: __ZNSt3__16vectorI4PathNS_9allocatorIS1_EEE18__construct_at_endIPS1_Li0EEEvT_S7_m, symObjAddr: 0x6F0, symBinAddr: 0x100002D80, symSize: 0x90 }
  - { offsetInCU: 0xD565, offset: 0xD565, size: 0x8, addend: 0x0, symName: __ZNSt3__16vectorI4PathNS_9allocatorIS1_EEE17__destruct_at_endB7v160006EPS1_, symObjAddr: 0x780, symBinAddr: 0x100002E10, symSize: 0x60 }
  - { offsetInCU: 0xD5A7, offset: 0xD5A7, size: 0x8, addend: 0x0, symName: __ZNSt3__16vectorI4PathNS_9allocatorIS1_EEE13__vdeallocateEv, symObjAddr: 0x7E0, symBinAddr: 0x100002E70, symSize: 0x80 }
  - { offsetInCU: 0xD5CE, offset: 0xD5CE, size: 0x8, addend: 0x0, symName: __ZNSt3__16vectorI4PathNS_9allocatorIS1_EEE11__vallocateB7v160006Em, symObjAddr: 0x860, symBinAddr: 0x100002EF0, symSize: 0xA0 }
  - { offsetInCU: 0xD610, offset: 0xD610, size: 0x8, addend: 0x0, symName: __ZNKSt3__16vectorI4PathNS_9allocatorIS1_EEE11__recommendB7v160006Em, symObjAddr: 0x900, symBinAddr: 0x100002F90, symSize: 0xA0 }
  - { offsetInCU: 0xD664, offset: 0xD664, size: 0x8, addend: 0x0, symName: __ZNKSt3__16vectorI4PathNS_9allocatorIS1_EEE9__end_capB7v160006Ev, symObjAddr: 0x9E0, symBinAddr: 0x100003070, symSize: 0x20 }
  - { offsetInCU: 0xD689, offset: 0xD689, size: 0x8, addend: 0x0, symName: __ZNKSt3__117__compressed_pairIP4PathNS_9allocatorIS1_EEE5firstB7v160006Ev, symObjAddr: 0xA00, symBinAddr: 0x100003090, symSize: 0x20 }
  - { offsetInCU: 0xD6AE, offset: 0xD6AE, size: 0x8, addend: 0x0, symName: __ZNKSt3__122__compressed_pair_elemIP4PathLi0ELb0EE5__getB7v160006Ev, symObjAddr: 0xA20, symBinAddr: 0x1000030B0, symSize: 0x10 }
  - { offsetInCU: 0xD6F6, offset: 0xD6F6, size: 0x8, addend: 0x0, symName: __ZNKSt3__111__copy_loopINS_17_ClassicAlgPolicyEEclB7v160006IP4PathS5_S5_EENS_4pairIT_T1_EES7_T0_S8_, symObjAddr: 0xBD0, symBinAddr: 0x100003260, symSize: 0x80 }
  - { offsetInCU: 0xD760, offset: 0xD760, size: 0x8, addend: 0x0, symName: __ZNSt3__119__unwrap_range_implIP4PathS2_E8__unwrapB7v160006ES2_S2_, symObjAddr: 0xD10, symBinAddr: 0x1000033A0, symSize: 0x50 }
  - { offsetInCU: 0xD796, offset: 0xD796, size: 0x8, addend: 0x0, symName: __ZNSt3__14pairIP4PathS2_EC1B7v160006IS2_S2_LPv0EEEOT_OT0_, symObjAddr: 0xD60, symBinAddr: 0x1000033F0, symSize: 0x30 }
  - { offsetInCU: 0xD7F3, offset: 0xD7F3, size: 0x8, addend: 0x0, symName: __ZNSt3__14pairIP4PathS2_EC2B7v160006IS2_S2_LPv0EEEOT_OT0_, symObjAddr: 0xD90, symBinAddr: 0x100003420, symSize: 0x30 }
  - { offsetInCU: 0xD855, offset: 0xD855, size: 0x8, addend: 0x0, symName: __ZN4PathaSERKS_, symObjAddr: 0xDC0, symBinAddr: 0x100003450, symSize: 0x50 }
  - { offsetInCU: 0xD885, offset: 0xD885, size: 0x8, addend: 0x0, symName: __ZNSt3__118__unwrap_iter_implIP4PathLb1EE8__unwrapB7v160006ES2_, symObjAddr: 0xE10, symBinAddr: 0x1000034A0, symSize: 0x20 }
  - { offsetInCU: 0xD8A8, offset: 0xD8A8, size: 0x8, addend: 0x0, symName: __ZNSt3__119__unwrap_range_implIP4PathS2_E8__rewrapB7v160006ES2_S2_, symObjAddr: 0xE40, symBinAddr: 0x1000034D0, symSize: 0x30 }
  - { offsetInCU: 0xD8D9, offset: 0xD8D9, size: 0x8, addend: 0x0, symName: __ZNSt3__118__unwrap_iter_implIP4PathLb1EE8__rewrapB7v160006ES2_S2_, symObjAddr: 0xE70, symBinAddr: 0x100003500, symSize: 0x60 }
  - { offsetInCU: 0xD923, offset: 0xD923, size: 0x8, addend: 0x0, symName: __ZNSt3__16vectorI4PathNS_9allocatorIS1_EEE21_ConstructTransactionC1B7v160006ERS4_m, symObjAddr: 0xED0, symBinAddr: 0x100003560, symSize: 0x30 }
  - { offsetInCU: 0xD96A, offset: 0xD96A, size: 0x8, addend: 0x0, symName: __ZNSt3__16vectorI4PathNS_9allocatorIS1_EEE7__allocB7v160006Ev, symObjAddr: 0x1000, symBinAddr: 0x100003690, symSize: 0x20 }
  - { offsetInCU: 0xD98F, offset: 0xD98F, size: 0x8, addend: 0x0, symName: __ZNSt3__16vectorI4PathNS_9allocatorIS1_EEE21_ConstructTransactionD1B7v160006Ev, symObjAddr: 0x1020, symBinAddr: 0x1000036B0, symSize: 0x20 }
  - { offsetInCU: 0xD9B8, offset: 0xD9B8, size: 0x8, addend: 0x0, symName: __ZNSt3__16vectorI4PathNS_9allocatorIS1_EEE21_ConstructTransactionC2B7v160006ERS4_m, symObjAddr: 0x1040, symBinAddr: 0x1000036D0, symSize: 0x40 }
  - { offsetInCU: 0xD9FF, offset: 0xD9FF, size: 0x8, addend: 0x0, symName: __ZNSt3__129_AllocatorDestroyRangeReverseINS_9allocatorI4PathEEPS2_EC1B7v160006ERS3_RS4_S7_, symObjAddr: 0x10E0, symBinAddr: 0x100003770, symSize: 0x40 }
  - { offsetInCU: 0xDA55, offset: 0xDA55, size: 0x8, addend: 0x0, symName: __ZNSt3__116allocator_traitsINS_9allocatorI4PathEEE9constructB7v160006IS2_JRS2_EvvEEvRS3_PT_DpOT0_, symObjAddr: 0x1120, symBinAddr: 0x1000037B0, symSize: 0x30 }
  - { offsetInCU: 0xDAAA, offset: 0xDAAA, size: 0x8, addend: 0x0, symName: __ZNSt3__128__exception_guard_exceptionsINS_29_AllocatorDestroyRangeReverseINS_9allocatorI4PathEEPS3_EEE10__completeB7v160006Ev, symObjAddr: 0x1150, symBinAddr: 0x1000037E0, symSize: 0x20 }
  - { offsetInCU: 0xDACF, offset: 0xDACF, size: 0x8, addend: 0x0, symName: __ZNSt3__128__exception_guard_exceptionsINS_29_AllocatorDestroyRangeReverseINS_9allocatorI4PathEEPS3_EEED1B7v160006Ev, symObjAddr: 0x1170, symBinAddr: 0x100003800, symSize: 0x20 }
  - { offsetInCU: 0xDAF8, offset: 0xDAF8, size: 0x8, addend: 0x0, symName: __ZNSt3__128__exception_guard_exceptionsINS_29_AllocatorDestroyRangeReverseINS_9allocatorI4PathEEPS3_EEEC1B7v160006ES6_, symObjAddr: 0x1190, symBinAddr: 0x100003820, symSize: 0x40 }
  - { offsetInCU: 0xDB2F, offset: 0xDB2F, size: 0x8, addend: 0x0, symName: __ZNSt3__128__exception_guard_exceptionsINS_29_AllocatorDestroyRangeReverseINS_9allocatorI4PathEEPS3_EEEC2B7v160006ES6_, symObjAddr: 0x11D0, symBinAddr: 0x100003860, symSize: 0x30 }
  - { offsetInCU: 0xDB66, offset: 0xDB66, size: 0x8, addend: 0x0, symName: __ZNSt3__129_AllocatorDestroyRangeReverseINS_9allocatorI4PathEEPS2_EC2B7v160006ERS3_RS4_S7_, symObjAddr: 0x1200, symBinAddr: 0x100003890, symSize: 0x40 }
  - { offsetInCU: 0xDBBC, offset: 0xDBBC, size: 0x8, addend: 0x0, symName: __ZN4PathC1ERKS_, symObjAddr: 0x1280, symBinAddr: 0x100003910, symSize: 0x30 }
  - { offsetInCU: 0xDBF0, offset: 0xDBF0, size: 0x8, addend: 0x0, symName: __ZN4PathC2ERKS_, symObjAddr: 0x12B0, symBinAddr: 0x100003940, symSize: 0x80 }
  - { offsetInCU: 0xDC24, offset: 0xDC24, size: 0x8, addend: 0x0, symName: __ZNSt3__128__exception_guard_exceptionsINS_29_AllocatorDestroyRangeReverseINS_9allocatorI4PathEEPS3_EEED2B7v160006Ev, symObjAddr: 0x1330, symBinAddr: 0x1000039C0, symSize: 0x40 }
  - { offsetInCU: 0xDC4D, offset: 0xDC4D, size: 0x8, addend: 0x0, symName: __ZNKSt3__129_AllocatorDestroyRangeReverseINS_9allocatorI4PathEEPS2_EclB7v160006Ev, symObjAddr: 0x1370, symBinAddr: 0x100003A00, symSize: 0x60 }
  - { offsetInCU: 0xDC72, offset: 0xDC72, size: 0x8, addend: 0x0, symName: __ZNSt3__116reverse_iteratorIP4PathEC1B7v160006ES2_, symObjAddr: 0x1440, symBinAddr: 0x100003AD0, symSize: 0x30 }
  - { offsetInCU: 0xDCA9, offset: 0xDCA9, size: 0x8, addend: 0x0, symName: __ZNSt3__116allocator_traitsINS_9allocatorI4PathEEE7destroyB7v160006IS2_vvEEvRS3_PT_, symObjAddr: 0x14B0, symBinAddr: 0x100003B40, symSize: 0x20 }
  - { offsetInCU: 0xDCE4, offset: 0xDCE4, size: 0x8, addend: 0x0, symName: __ZNSt3__116reverse_iteratorIP4PathEppB7v160006Ev, symObjAddr: 0x14F0, symBinAddr: 0x100003B80, symSize: 0x20 }
  - { offsetInCU: 0xDD09, offset: 0xDD09, size: 0x8, addend: 0x0, symName: __ZNKSt3__116reverse_iteratorIP4PathE4baseB7v160006Ev, symObjAddr: 0x1510, symBinAddr: 0x100003BA0, symSize: 0x20 }
  - { offsetInCU: 0xDD2E, offset: 0xDD2E, size: 0x8, addend: 0x0, symName: __ZN4PathD1Ev, symObjAddr: 0x1570, symBinAddr: 0x100003C00, symSize: 0x20 }
  - { offsetInCU: 0xDD59, offset: 0xDD59, size: 0x8, addend: 0x0, symName: __ZN4PathD2Ev, symObjAddr: 0x1590, symBinAddr: 0x100003C20, symSize: 0x30 }
  - { offsetInCU: 0xDD89, offset: 0xDD89, size: 0x8, addend: 0x0, symName: __ZNSt3__119__to_address_helperINS_16reverse_iteratorIP4PathEEvE6__callB7v160006ERKS4_, symObjAddr: 0x15C0, symBinAddr: 0x100003C50, symSize: 0x40 }
  - { offsetInCU: 0xDDAC, offset: 0xDDAC, size: 0x8, addend: 0x0, symName: __ZNKSt3__116reverse_iteratorIP4PathEptB7v160006Ev, symObjAddr: 0x1600, symBinAddr: 0x100003C90, symSize: 0x30 }
  - { offsetInCU: 0xDDD1, offset: 0xDDD1, size: 0x8, addend: 0x0, symName: __ZNSt3__116reverse_iteratorIP4PathEC2B7v160006ES2_, symObjAddr: 0x16E0, symBinAddr: 0x100003D70, symSize: 0x30 }
  - { offsetInCU: 0xDE08, offset: 0xDE08, size: 0x8, addend: 0x0, symName: __ZNSt3__117__compressed_pairIP4PathNS_9allocatorIS1_EEE6secondB7v160006Ev, symObjAddr: 0x1710, symBinAddr: 0x100003DA0, symSize: 0x20 }
  - { offsetInCU: 0xDE2D, offset: 0xDE2D, size: 0x8, addend: 0x0, symName: __ZNSt3__122__compressed_pair_elemINS_9allocatorI4PathEELi1ELb1EE5__getB7v160006Ev, symObjAddr: 0x1730, symBinAddr: 0x100003DC0, symSize: 0x10 }
  - { offsetInCU: 0xDE52, offset: 0xDE52, size: 0x8, addend: 0x0, symName: __ZNSt3__16vectorI4PathNS_9allocatorIS1_EEE21_ConstructTransactionD2B7v160006Ev, symObjAddr: 0x1740, symBinAddr: 0x100003DD0, symSize: 0x20 }
  - { offsetInCU: 0xDE7A, offset: 0xDE7A, size: 0x8, addend: 0x0, symName: __ZNSt3__16vectorI4PathNS_9allocatorIS1_EEE27__invalidate_iterators_pastB7v160006EPS1_, symObjAddr: 0x1760, symBinAddr: 0x100003DF0, symSize: 0x10 }
  - { offsetInCU: 0xDEB0, offset: 0xDEB0, size: 0x8, addend: 0x0, symName: __ZNSt3__16vectorI4PathNS_9allocatorIS1_EEE22__base_destruct_at_endB7v160006EPS1_, symObjAddr: 0x1770, symBinAddr: 0x100003E00, symSize: 0x80 }
  - { offsetInCU: 0xDEF3, offset: 0xDEF3, size: 0x8, addend: 0x0, symName: __ZNKSt3__16vectorI4PathNS_9allocatorIS1_EEE17__annotate_shrinkB7v160006Em, symObjAddr: 0x17F0, symBinAddr: 0x100003E80, symSize: 0xA0 }
  - { offsetInCU: 0xDF27, offset: 0xDF27, size: 0x8, addend: 0x0, symName: __ZNKSt3__16vectorI4PathNS_9allocatorIS1_EEE31__annotate_contiguous_containerB7v160006EPKvS6_S6_S6_, symObjAddr: 0x1890, symBinAddr: 0x100003F20, symSize: 0x20 }
  - { offsetInCU: 0xDF7C, offset: 0xDF7C, size: 0x8, addend: 0x0, symName: __ZNKSt3__16vectorI4PathNS_9allocatorIS1_EEE4dataB7v160006Ev, symObjAddr: 0x18B0, symBinAddr: 0x100003F40, symSize: 0x20 }
  - { offsetInCU: 0xDFA1, offset: 0xDFA1, size: 0x8, addend: 0x0, symName: __ZNSt3__16vectorI4PathNS_9allocatorIS1_EEE5clearB7v160006Ev, symObjAddr: 0x18D0, symBinAddr: 0x100003F60, symSize: 0x50 }
  - { offsetInCU: 0xDFD5, offset: 0xDFD5, size: 0x8, addend: 0x0, symName: __ZNSt3__116allocator_traitsINS_9allocatorI4PathEEE10deallocateB7v160006ERS3_PS2_m, symObjAddr: 0x1920, symBinAddr: 0x100003FB0, symSize: 0x30 }
  - { offsetInCU: 0xE017, offset: 0xE017, size: 0x8, addend: 0x0, symName: __ZNSt3__16vectorI4PathNS_9allocatorIS1_EEE9__end_capB7v160006Ev, symObjAddr: 0x1950, symBinAddr: 0x100003FE0, symSize: 0x20 }
  - { offsetInCU: 0xE03C, offset: 0xE03C, size: 0x8, addend: 0x0, symName: __ZNSt3__16vectorI4PathNS_9allocatorIS1_EEE7__clearB7v160006Ev, symObjAddr: 0x1970, symBinAddr: 0x100004000, symSize: 0x20 }
  - { offsetInCU: 0xE061, offset: 0xE061, size: 0x8, addend: 0x0, symName: __ZNSt3__19allocatorI4PathE10deallocateB7v160006EPS1_m, symObjAddr: 0x1990, symBinAddr: 0x100004020, symSize: 0x40 }
  - { offsetInCU: 0xE0A2, offset: 0xE0A2, size: 0x8, addend: 0x0, symName: __ZNSt3__117__compressed_pairIP4PathNS_9allocatorIS1_EEE5firstB7v160006Ev, symObjAddr: 0x1AF0, symBinAddr: 0x100004180, symSize: 0x20 }
  - { offsetInCU: 0xE0C7, offset: 0xE0C7, size: 0x8, addend: 0x0, symName: __ZNSt3__122__compressed_pair_elemIP4PathLi0ELb0EE5__getB7v160006Ev, symObjAddr: 0x1B10, symBinAddr: 0x1000041A0, symSize: 0x10 }
  - { offsetInCU: 0xE0EB, offset: 0xE0EB, size: 0x8, addend: 0x0, symName: __ZNKSt3__16vectorI4PathNS_9allocatorIS1_EEE8max_sizeEv, symObjAddr: 0x1B20, symBinAddr: 0x1000041B0, symSize: 0x60 }
  - { offsetInCU: 0xE112, offset: 0xE112, size: 0x8, addend: 0x0, symName: __ZNKSt3__16vectorI4PathNS_9allocatorIS1_EEE20__throw_length_errorB7v160006Ev, symObjAddr: 0x1B80, symBinAddr: 0x100004210, symSize: 0x20 }
  - { offsetInCU: 0xE137, offset: 0xE137, size: 0x8, addend: 0x0, symName: __ZNKSt3__16vectorI4PathNS_9allocatorIS1_EEE14__annotate_newB7v160006Em, symObjAddr: 0x1BE0, symBinAddr: 0x100004270, symSize: 0xA0 }
  - { offsetInCU: 0xE175, offset: 0xE175, size: 0x8, addend: 0x0, symName: __ZNSt3__116allocator_traitsINS_9allocatorI4PathEEE8max_sizeB7v160006IS3_vvEEmRKS3_, symObjAddr: 0x1CB0, symBinAddr: 0x100004340, symSize: 0x30 }
  - { offsetInCU: 0xE1A1, offset: 0xE1A1, size: 0x8, addend: 0x0, symName: __ZNKSt3__16vectorI4PathNS_9allocatorIS1_EEE7__allocB7v160006Ev, symObjAddr: 0x1CE0, symBinAddr: 0x100004370, symSize: 0x20 }
  - { offsetInCU: 0xE1C6, offset: 0xE1C6, size: 0x8, addend: 0x0, symName: __ZNSt3__114numeric_limitsIlE3maxB7v160006Ev, symObjAddr: 0x1D00, symBinAddr: 0x100004390, symSize: 0x10 }
  - { offsetInCU: 0xE1E4, offset: 0xE1E4, size: 0x8, addend: 0x0, symName: __ZNKSt3__16__lessImmEclB7v160006ERKmS3_, symObjAddr: 0x1D60, symBinAddr: 0x1000043F0, symSize: 0x30 }
  - { offsetInCU: 0xE225, offset: 0xE225, size: 0x8, addend: 0x0, symName: __ZNSt3__114numeric_limitsImE3maxB7v160006Ev, symObjAddr: 0x1D90, symBinAddr: 0x100004420, symSize: 0x10 }
  - { offsetInCU: 0xE239, offset: 0xE239, size: 0x8, addend: 0x0, symName: __ZNSt3__123__libcpp_numeric_limitsImLb1EE3maxB7v160006Ev, symObjAddr: 0x1DA0, symBinAddr: 0x100004430, symSize: 0x10 }
  - { offsetInCU: 0xE24D, offset: 0xE24D, size: 0x8, addend: 0x0, symName: __ZNKSt3__117__compressed_pairIP4PathNS_9allocatorIS1_EEE6secondB7v160006Ev, symObjAddr: 0x1DB0, symBinAddr: 0x100004440, symSize: 0x20 }
  - { offsetInCU: 0xE272, offset: 0xE272, size: 0x8, addend: 0x0, symName: __ZNKSt3__122__compressed_pair_elemINS_9allocatorI4PathEELi1ELb1EE5__getB7v160006Ev, symObjAddr: 0x1DD0, symBinAddr: 0x100004460, symSize: 0x10 }
  - { offsetInCU: 0xE297, offset: 0xE297, size: 0x8, addend: 0x0, symName: __ZNSt3__123__libcpp_numeric_limitsIlLb1EE3maxB7v160006Ev, symObjAddr: 0x1DE0, symBinAddr: 0x100004470, symSize: 0x10 }
  - { offsetInCU: 0xE2AB, offset: 0xE2AB, size: 0x8, addend: 0x0, symName: __ZNSt12length_errorC1B7v160006EPKc, symObjAddr: 0x1E60, symBinAddr: 0x1000044F0, symSize: 0x30 }
  - { offsetInCU: 0xE2E2, offset: 0xE2E2, size: 0x8, addend: 0x0, symName: __ZNSt12length_errorC2B7v160006EPKc, symObjAddr: 0x1E90, symBinAddr: 0x100004520, symSize: 0x40 }
  - { offsetInCU: 0xE319, offset: 0xE319, size: 0x8, addend: 0x0, symName: __ZNSt3__19allocatorI4PathE8allocateB7v160006Em, symObjAddr: 0x1ED0, symBinAddr: 0x100004560, symSize: 0x50 }
  - { offsetInCU: 0xE34C, offset: 0xE34C, size: 0x8, addend: 0x0, symName: __ZNSt16initializer_listINSt3__14pairIKi6PacketEEEC2B7v160006Ev, symObjAddr: 0x2090, symBinAddr: 0x100004720, symSize: 0x20 }
  - { offsetInCU: 0xE375, offset: 0xE375, size: 0x8, addend: 0x0, symName: __ZNSt3__16vectorI4PathNS_9allocatorIS1_EEED2B7v160006Ev, symObjAddr: 0x20B0, symBinAddr: 0x100004740, symSize: 0x40 }
  - { offsetInCU: 0xE39E, offset: 0xE39E, size: 0x8, addend: 0x0, symName: __ZNSt3__16vectorI4PathNS_9allocatorIS1_EEE16__destroy_vectorC1ERS4_, symObjAddr: 0x20F0, symBinAddr: 0x100004780, symSize: 0x30 }
  - { offsetInCU: 0xE3D6, offset: 0xE3D6, size: 0x8, addend: 0x0, symName: __ZNSt3__16vectorI4PathNS_9allocatorIS1_EEE16__destroy_vectorclB7v160006Ev, symObjAddr: 0x2120, symBinAddr: 0x1000047B0, symSize: 0x90 }
  - { offsetInCU: 0xE3FB, offset: 0xE3FB, size: 0x8, addend: 0x0, symName: __ZNSt3__16vectorI4PathNS_9allocatorIS1_EEE16__destroy_vectorC2ERS4_, symObjAddr: 0x21B0, symBinAddr: 0x100004840, symSize: 0x20 }
  - { offsetInCU: 0xE433, offset: 0xE433, size: 0x8, addend: 0x0, symName: __ZNKSt3__16vectorI4PathNS_9allocatorIS1_EEE17__annotate_deleteB7v160006Ev, symObjAddr: 0x21D0, symBinAddr: 0x100004860, symSize: 0xB0 }
  - { offsetInCU: 0xE458, offset: 0xE458, size: 0x8, addend: 0x0, symName: __ZNSt3__16vectorI4PathNS_9allocatorIS1_EEE22__construct_one_at_endB7v160006IJRKS1_EEEvDpOT_, symObjAddr: 0x2290, symBinAddr: 0x100004920, symSize: 0x90 }
  - { offsetInCU: 0xE4A5, offset: 0xE4A5, size: 0x8, addend: 0x0, symName: __ZNSt3__16vectorI4PathNS_9allocatorIS1_EEE21__push_back_slow_pathIRKS1_EEvOT_, symObjAddr: 0x2320, symBinAddr: 0x1000049B0, symSize: 0xD0 }
  - { offsetInCU: 0xE502, offset: 0xE502, size: 0x8, addend: 0x0, symName: __ZNSt3__116allocator_traitsINS_9allocatorI4PathEEE9constructB7v160006IS2_JRKS2_EvvEEvRS3_PT_DpOT0_, symObjAddr: 0x23F0, symBinAddr: 0x100004A80, symSize: 0x30 }
  - { offsetInCU: 0xE557, offset: 0xE557, size: 0x8, addend: 0x0, symName: __ZNSt3__114__split_bufferI4PathRNS_9allocatorIS1_EEEC1EmmS4_, symObjAddr: 0x2460, symBinAddr: 0x100004AF0, symSize: 0x40 }
  - { offsetInCU: 0xE5AC, offset: 0xE5AC, size: 0x8, addend: 0x0, symName: __ZNSt3__114__split_bufferI4PathRNS_9allocatorIS1_EEED1Ev, symObjAddr: 0x25D0, symBinAddr: 0x100004C60, symSize: 0x20 }
  - { offsetInCU: 0xE5D7, offset: 0xE5D7, size: 0x8, addend: 0x0, symName: __ZNSt3__114__split_bufferI4PathRNS_9allocatorIS1_EEEC2EmmS4_, symObjAddr: 0x25F0, symBinAddr: 0x100004C80, symSize: 0xC0 }
  - { offsetInCU: 0xE649, offset: 0xE649, size: 0x8, addend: 0x0, symName: __ZNSt3__117__compressed_pairIP4PathRNS_9allocatorIS1_EEEC1B7v160006IDnS5_EEOT_OT0_, symObjAddr: 0x26B0, symBinAddr: 0x100004D40, symSize: 0x30 }
  - { offsetInCU: 0xE6A0, offset: 0xE6A0, size: 0x8, addend: 0x0, symName: __ZNSt3__114__split_bufferI4PathRNS_9allocatorIS1_EEE7__allocB7v160006Ev, symObjAddr: 0x26E0, symBinAddr: 0x100004D70, symSize: 0x20 }
  - { offsetInCU: 0xE6C5, offset: 0xE6C5, size: 0x8, addend: 0x0, symName: __ZNSt3__114__split_bufferI4PathRNS_9allocatorIS1_EEE9__end_capB7v160006Ev, symObjAddr: 0x2700, symBinAddr: 0x100004D90, symSize: 0x20 }
  - { offsetInCU: 0xE6EA, offset: 0xE6EA, size: 0x8, addend: 0x0, symName: __ZNSt3__117__compressed_pairIP4PathRNS_9allocatorIS1_EEEC2B7v160006IDnS5_EEOT_OT0_, symObjAddr: 0x2720, symBinAddr: 0x100004DB0, symSize: 0x40 }
  - { offsetInCU: 0xE741, offset: 0xE741, size: 0x8, addend: 0x0, symName: __ZNSt3__122__compressed_pair_elemIRNS_9allocatorI4PathEELi1ELb0EEC2B7v160006IS4_vEEOT_, symObjAddr: 0x2760, symBinAddr: 0x100004DF0, symSize: 0x20 }
  - { offsetInCU: 0xE782, offset: 0xE782, size: 0x8, addend: 0x0, symName: __ZNSt3__117__compressed_pairIP4PathRNS_9allocatorIS1_EEE6secondB7v160006Ev, symObjAddr: 0x2780, symBinAddr: 0x100004E10, symSize: 0x20 }
  - { offsetInCU: 0xE7A7, offset: 0xE7A7, size: 0x8, addend: 0x0, symName: __ZNSt3__122__compressed_pair_elemIRNS_9allocatorI4PathEELi1ELb0EE5__getB7v160006Ev, symObjAddr: 0x27A0, symBinAddr: 0x100004E30, symSize: 0x20 }
  - { offsetInCU: 0xE7CC, offset: 0xE7CC, size: 0x8, addend: 0x0, symName: __ZNSt3__117__compressed_pairIP4PathRNS_9allocatorIS1_EEE5firstB7v160006Ev, symObjAddr: 0x27C0, symBinAddr: 0x100004E50, symSize: 0x20 }
  - { offsetInCU: 0xE7F1, offset: 0xE7F1, size: 0x8, addend: 0x0, symName: __ZNSt3__129_AllocatorDestroyRangeReverseINS_9allocatorI4PathEENS_16reverse_iteratorIPS2_EEEC1B7v160006ERS3_RS6_S9_, symObjAddr: 0x2A00, symBinAddr: 0x100005090, symSize: 0x40 }
  - { offsetInCU: 0xE84C, offset: 0xE84C, size: 0x8, addend: 0x0, symName: __ZNSt3__116allocator_traitsINS_9allocatorI4PathEEE9constructB7v160006IS2_JS2_EvvEEvRS3_PT_DpOT0_, symObjAddr: 0x2A40, symBinAddr: 0x1000050D0, symSize: 0x30 }
  - { offsetInCU: 0xE8A1, offset: 0xE8A1, size: 0x8, addend: 0x0, symName: __ZNKSt3__116reverse_iteratorIP4PathEdeB7v160006Ev, symObjAddr: 0x2A70, symBinAddr: 0x100005100, symSize: 0x30 }
  - { offsetInCU: 0xE8D4, offset: 0xE8D4, size: 0x8, addend: 0x0, symName: __ZNSt3__128__exception_guard_exceptionsINS_29_AllocatorDestroyRangeReverseINS_9allocatorI4PathEENS_16reverse_iteratorIPS3_EEEEE10__completeB7v160006Ev, symObjAddr: 0x2AA0, symBinAddr: 0x100005130, symSize: 0x20 }
  - { offsetInCU: 0xE8F9, offset: 0xE8F9, size: 0x8, addend: 0x0, symName: __ZNSt3__128__exception_guard_exceptionsINS_29_AllocatorDestroyRangeReverseINS_9allocatorI4PathEENS_16reverse_iteratorIPS3_EEEEED1B7v160006Ev, symObjAddr: 0x2AC0, symBinAddr: 0x100005150, symSize: 0x20 }
  - { offsetInCU: 0xE922, offset: 0xE922, size: 0x8, addend: 0x0, symName: __ZNSt3__128__exception_guard_exceptionsINS_29_AllocatorDestroyRangeReverseINS_9allocatorI4PathEENS_16reverse_iteratorIPS3_EEEEEC1B7v160006ES8_, symObjAddr: 0x2AE0, symBinAddr: 0x100005170, symSize: 0x40 }
  - { offsetInCU: 0xE959, offset: 0xE959, size: 0x8, addend: 0x0, symName: __ZNSt3__128__exception_guard_exceptionsINS_29_AllocatorDestroyRangeReverseINS_9allocatorI4PathEENS_16reverse_iteratorIPS3_EEEEEC2B7v160006ES8_, symObjAddr: 0x2B20, symBinAddr: 0x1000051B0, symSize: 0x30 }
  - { offsetInCU: 0xE990, offset: 0xE990, size: 0x8, addend: 0x0, symName: __ZNSt3__129_AllocatorDestroyRangeReverseINS_9allocatorI4PathEENS_16reverse_iteratorIPS2_EEEC2B7v160006ERS3_RS6_S9_, symObjAddr: 0x2B50, symBinAddr: 0x1000051E0, symSize: 0x40 }
  - { offsetInCU: 0xE9E6, offset: 0xE9E6, size: 0x8, addend: 0x0, symName: __ZN4PathC1EOS_, symObjAddr: 0x2BD0, symBinAddr: 0x100005260, symSize: 0x30 }
  - { offsetInCU: 0xEA1A, offset: 0xEA1A, size: 0x8, addend: 0x0, symName: __ZN4PathC2EOS_, symObjAddr: 0x2C00, symBinAddr: 0x100005290, symSize: 0x50 }
  - { offsetInCU: 0xEA4E, offset: 0xEA4E, size: 0x8, addend: 0x0, symName: __ZNSt3__112basic_stringIcNS_11char_traitsIcEENS_9allocatorIcEEEC1B7v160006EOS5_, symObjAddr: 0x2C50, symBinAddr: 0x1000052E0, symSize: 0x30 }
  - { offsetInCU: 0xEA86, offset: 0xEA86, size: 0x8, addend: 0x0, symName: __ZNSt3__112basic_stringIcNS_11char_traitsIcEENS_9allocatorIcEEEC2B7v160006EOS5_, symObjAddr: 0x2C80, symBinAddr: 0x100005310, symSize: 0x90 }
  - { offsetInCU: 0xEABE, offset: 0xEABE, size: 0x8, addend: 0x0, symName: __ZNSt3__112basic_stringIcNS_11char_traitsIcEENS_9allocatorIcEEE14__default_initB7v160006Ev, symObjAddr: 0x2D10, symBinAddr: 0x1000053A0, symSize: 0x50 }
  - { offsetInCU: 0xEAE3, offset: 0xEAE3, size: 0x8, addend: 0x0, symName: __ZNKSt3__112basic_stringIcNS_11char_traitsIcEENS_9allocatorIcEEE9__is_longB7v160006Ev, symObjAddr: 0x2D70, symBinAddr: 0x100005400, symSize: 0x30 }
  - { offsetInCU: 0xEB08, offset: 0xEB08, size: 0x8, addend: 0x0, symName: __ZNSt3__117__compressed_pairINS_12basic_stringIcNS_11char_traitsIcEENS_9allocatorIcEEE5__repES5_E5firstB7v160006Ev, symObjAddr: 0x2DB0, symBinAddr: 0x100005440, symSize: 0x20 }
  - { offsetInCU: 0xEB2D, offset: 0xEB2D, size: 0x8, addend: 0x0, symName: __ZNSt3__122__compressed_pair_elemINS_12basic_stringIcNS_11char_traitsIcEENS_9allocatorIcEEE5__repELi0ELb0EE5__getB7v160006Ev, symObjAddr: 0x2DD0, symBinAddr: 0x100005460, symSize: 0x10 }
  - { offsetInCU: 0xEB52, offset: 0xEB52, size: 0x8, addend: 0x0, symName: __ZNKSt3__117__compressed_pairINS_12basic_stringIcNS_11char_traitsIcEENS_9allocatorIcEEE5__repES5_E5firstB7v160006Ev, symObjAddr: 0x2DE0, symBinAddr: 0x100005470, symSize: 0x20 }
  - { offsetInCU: 0xEB77, offset: 0xEB77, size: 0x8, addend: 0x0, symName: __ZNKSt3__122__compressed_pair_elemINS_12basic_stringIcNS_11char_traitsIcEENS_9allocatorIcEEE5__repELi0ELb0EE5__getB7v160006Ev, symObjAddr: 0x2E00, symBinAddr: 0x100005490, symSize: 0x10 }
  - { offsetInCU: 0xEB9C, offset: 0xEB9C, size: 0x8, addend: 0x0, symName: __ZNSt3__128__exception_guard_exceptionsINS_29_AllocatorDestroyRangeReverseINS_9allocatorI4PathEENS_16reverse_iteratorIPS3_EEEEED2B7v160006Ev, symObjAddr: 0x2E10, symBinAddr: 0x1000054A0, symSize: 0x40 }
  - { offsetInCU: 0xEBC5, offset: 0xEBC5, size: 0x8, addend: 0x0, symName: __ZNKSt3__129_AllocatorDestroyRangeReverseINS_9allocatorI4PathEENS_16reverse_iteratorIPS2_EEEclB7v160006Ev, symObjAddr: 0x2E50, symBinAddr: 0x1000054E0, symSize: 0xF0 }
  - { offsetInCU: 0xEBEB, offset: 0xEBEB, size: 0x8, addend: 0x0, symName: __ZNSt3__116reverse_iteratorINS0_IP4PathEEEC1B7v160006ES3_, symObjAddr: 0x2FB0, symBinAddr: 0x100005640, symSize: 0x30 }
  - { offsetInCU: 0xEC22, offset: 0xEC22, size: 0x8, addend: 0x0, symName: __ZNSt3__116reverse_iteratorINS0_IP4PathEEEppB7v160006Ev, symObjAddr: 0x3050, symBinAddr: 0x1000056E0, symSize: 0x30 }
  - { offsetInCU: 0xEC47, offset: 0xEC47, size: 0x8, addend: 0x0, symName: __ZNKSt3__116reverse_iteratorINS0_IP4PathEEE4baseB7v160006Ev, symObjAddr: 0x3080, symBinAddr: 0x100005710, symSize: 0x20 }
  - { offsetInCU: 0xEC71, offset: 0xEC71, size: 0x8, addend: 0x0, symName: __ZNSt3__119__to_address_helperINS_16reverse_iteratorINS1_IP4PathEEEEvE6__callB7v160006ERKS5_, symObjAddr: 0x30A0, symBinAddr: 0x100005730, symSize: 0x40 }
  - { offsetInCU: 0xEC94, offset: 0xEC94, size: 0x8, addend: 0x0, symName: __ZNKSt3__116reverse_iteratorINS0_IP4PathEEEptB7v160006Ev, symObjAddr: 0x30E0, symBinAddr: 0x100005770, symSize: 0x50 }
  - { offsetInCU: 0xECB9, offset: 0xECB9, size: 0x8, addend: 0x0, symName: __ZNSt3__116reverse_iteratorIP4PathEpLB7v160006El, symObjAddr: 0x3210, symBinAddr: 0x1000058A0, symSize: 0x30 }
  - { offsetInCU: 0xECEC, offset: 0xECEC, size: 0x8, addend: 0x0, symName: __ZNSt3__116reverse_iteratorIP4PathEmmB7v160006Ev, symObjAddr: 0x3240, symBinAddr: 0x1000058D0, symSize: 0x20 }
  - { offsetInCU: 0xED11, offset: 0xED11, size: 0x8, addend: 0x0, symName: __ZNSt3__116reverse_iteratorINS0_IP4PathEEEC2B7v160006ES3_, symObjAddr: 0x3260, symBinAddr: 0x1000058F0, symSize: 0x40 }
  - { offsetInCU: 0xED48, offset: 0xED48, size: 0x8, addend: 0x0, symName: __ZNSt3__114__split_bufferI4PathRNS_9allocatorIS1_EEED2Ev, symObjAddr: 0x32A0, symBinAddr: 0x100005930, symSize: 0x70 }
  - { offsetInCU: 0xED73, offset: 0xED73, size: 0x8, addend: 0x0, symName: __ZNSt3__114__split_bufferI4PathRNS_9allocatorIS1_EEE5clearB7v160006Ev, symObjAddr: 0x3310, symBinAddr: 0x1000059A0, symSize: 0x20 }
  - { offsetInCU: 0xED98, offset: 0xED98, size: 0x8, addend: 0x0, symName: __ZNKSt3__114__split_bufferI4PathRNS_9allocatorIS1_EEE8capacityB7v160006Ev, symObjAddr: 0x3330, symBinAddr: 0x1000059C0, symSize: 0x40 }
  - { offsetInCU: 0xEDBD, offset: 0xEDBD, size: 0x8, addend: 0x0, symName: __ZNSt3__114__split_bufferI4PathRNS_9allocatorIS1_EEE17__destruct_at_endB7v160006EPS1_, symObjAddr: 0x3370, symBinAddr: 0x100005A00, symSize: 0x30 }
  - { offsetInCU: 0xEDEF, offset: 0xEDEF, size: 0x8, addend: 0x0, symName: __ZNSt3__114__split_bufferI4PathRNS_9allocatorIS1_EEE17__destruct_at_endB7v160006EPS1_NS_17integral_constantIbLb0EEE, symObjAddr: 0x33A0, symBinAddr: 0x100005A30, symSize: 0x80 }
  - { offsetInCU: 0xEE2E, offset: 0xEE2E, size: 0x8, addend: 0x0, symName: __ZNKSt3__114__split_bufferI4PathRNS_9allocatorIS1_EEE9__end_capB7v160006Ev, symObjAddr: 0x3420, symBinAddr: 0x100005AB0, symSize: 0x20 }
  - { offsetInCU: 0xEE53, offset: 0xEE53, size: 0x8, addend: 0x0, symName: __ZNKSt3__117__compressed_pairIP4PathRNS_9allocatorIS1_EEE5firstB7v160006Ev, symObjAddr: 0x3440, symBinAddr: 0x100005AD0, symSize: 0x20 }
  - { offsetInCU: 0xEE78, offset: 0xEE78, size: 0x8, addend: 0x0, symName: __ZNSt3__113unordered_mapIi6PacketNS_4hashIiEENS_8equal_toIiEENS_9allocatorINS_4pairIKiS1_EEEEEC2B7v160006Ev, symObjAddr: 0x3460, symBinAddr: 0x100005AF0, symSize: 0x40 }
  - { offsetInCU: 0xEEA1, offset: 0xEEA1, size: 0x8, addend: 0x0, symName: __ZNSt3__112__hash_tableINS_17__hash_value_typeIi6PacketEENS_22__unordered_map_hasherIiS3_NS_4hashIiEENS_8equal_toIiEELb1EEENS_21__unordered_map_equalIiS3_S8_S6_Lb1EEENS_9allocatorIS3_EEEC1Ev, symObjAddr: 0x34A0, symBinAddr: 0x100005B30, symSize: 0x20 }
  - { offsetInCU: 0xEECC, offset: 0xEECC, size: 0x8, addend: 0x0, symName: __ZNSt3__112__hash_tableINS_17__hash_value_typeIi6PacketEENS_22__unordered_map_hasherIiS3_NS_4hashIiEENS_8equal_toIiEELb1EEENS_21__unordered_map_equalIiS3_S8_S6_Lb1EEENS_9allocatorIS3_EEEC2Ev, symObjAddr: 0x34D0, symBinAddr: 0x100005B60, symSize: 0x80 }
  - { offsetInCU: 0xEEF7, offset: 0xEEF7, size: 0x8, addend: 0x0, symName: __ZNSt3__110unique_ptrIA_PNS_16__hash_node_baseIPNS_11__hash_nodeINS_17__hash_value_typeIi6PacketEEPvEEEENS_25__bucket_list_deallocatorINS_9allocatorISA_EEEEEC1B7v160006ILb1EvEEv, symObjAddr: 0x3550, symBinAddr: 0x100005BE0, symSize: 0x20 }
  - { offsetInCU: 0xEF2B, offset: 0xEF2B, size: 0x8, addend: 0x0, symName: __ZNSt3__117__compressed_pairINS_16__hash_node_baseIPNS_11__hash_nodeINS_17__hash_value_typeIi6PacketEEPvEEEENS_9allocatorIS7_EEEC1B7v160006ILb1EvEEv, symObjAddr: 0x3570, symBinAddr: 0x100005C00, symSize: 0x20 }
  - { offsetInCU: 0xEF64, offset: 0xEF64, size: 0x8, addend: 0x0, symName: __ZNSt3__117__compressed_pairImNS_22__unordered_map_hasherIiNS_17__hash_value_typeIi6PacketEENS_4hashIiEENS_8equal_toIiEELb1EEEEC1B7v160006IiNS_18__default_init_tagEEEOT_OT0_, symObjAddr: 0x3590, symBinAddr: 0x100005C20, symSize: 0x30 }
  - { offsetInCU: 0xEFC0, offset: 0xEFC0, size: 0x8, addend: 0x0, symName: __ZNSt3__117__compressed_pairIfNS_21__unordered_map_equalIiNS_17__hash_value_typeIi6PacketEENS_8equal_toIiEENS_4hashIiEELb1EEEEC1B7v160006IfNS_18__default_init_tagEEEOT_OT0_, symObjAddr: 0x35C0, symBinAddr: 0x100005C50, symSize: 0x30 }
  - { offsetInCU: 0xF017, offset: 0xF017, size: 0x8, addend: 0x0, symName: __ZNSt3__110unique_ptrIA_PNS_16__hash_node_baseIPNS_11__hash_nodeINS_17__hash_value_typeIi6PacketEEPvEEEENS_25__bucket_list_deallocatorINS_9allocatorISA_EEEEEC2B7v160006ILb1EvEEv, symObjAddr: 0x35F0, symBinAddr: 0x100005C80, symSize: 0x30 }
  - { offsetInCU: 0xF050, offset: 0xF050, size: 0x8, addend: 0x0, symName: __ZNSt3__117__compressed_pairIPPNS_16__hash_node_baseIPNS_11__hash_nodeINS_17__hash_value_typeIi6PacketEEPvEEEENS_25__bucket_list_deallocatorINS_9allocatorISA_EEEEEC1B7v160006INS_16__value_init_tagESI_EEOT_OT0_, symObjAddr: 0x3620, symBinAddr: 0x100005CB0, symSize: 0x30 }
  - { offsetInCU: 0xF0A7, offset: 0xF0A7, size: 0x8, addend: 0x0, symName: __ZNSt3__117__compressed_pairIPPNS_16__hash_node_baseIPNS_11__hash_nodeINS_17__hash_value_typeIi6PacketEEPvEEEENS_25__bucket_list_deallocatorINS_9allocatorISA_EEEEEC2B7v160006INS_16__value_init_tagESI_EEOT_OT0_, symObjAddr: 0x3650, symBinAddr: 0x100005CE0, symSize: 0x40 }
  - { offsetInCU: 0xF0FE, offset: 0xF0FE, size: 0x8, addend: 0x0, symName: __ZNSt3__122__compressed_pair_elemIPPNS_16__hash_node_baseIPNS_11__hash_nodeINS_17__hash_value_typeIi6PacketEEPvEEEELi0ELb0EEC2B7v160006ENS_16__value_init_tagE, symObjAddr: 0x3690, symBinAddr: 0x100005D20, symSize: 0x20 }
  - { offsetInCU: 0xF131, offset: 0xF131, size: 0x8, addend: 0x0, symName: __ZNSt3__122__compressed_pair_elemINS_25__bucket_list_deallocatorINS_9allocatorIPNS_16__hash_node_baseIPNS_11__hash_nodeINS_17__hash_value_typeIi6PacketEEPvEEEEEEEELi1ELb0EEC2B7v160006ENS_16__value_init_tagE, symObjAddr: 0x36B0, symBinAddr: 0x100005D40, symSize: 0x20 }
  - { offsetInCU: 0xF164, offset: 0xF164, size: 0x8, addend: 0x0, symName: __ZNSt3__125__bucket_list_deallocatorINS_9allocatorIPNS_16__hash_node_baseIPNS_11__hash_nodeINS_17__hash_value_typeIi6PacketEEPvEEEEEEEC1B7v160006Ev, symObjAddr: 0x36D0, symBinAddr: 0x100005D60, symSize: 0x20 }
  - { offsetInCU: 0xF18D, offset: 0xF18D, size: 0x8, addend: 0x0, symName: __ZNSt3__125__bucket_list_deallocatorINS_9allocatorIPNS_16__hash_node_baseIPNS_11__hash_nodeINS_17__hash_value_typeIi6PacketEEPvEEEEEEEC2B7v160006Ev, symObjAddr: 0x36F0, symBinAddr: 0x100005D80, symSize: 0x40 }
  - { offsetInCU: 0xF1B6, offset: 0xF1B6, size: 0x8, addend: 0x0, symName: __ZNSt3__117__compressed_pairImNS_9allocatorIPNS_16__hash_node_baseIPNS_11__hash_nodeINS_17__hash_value_typeIi6PacketEEPvEEEEEEEC1B7v160006IiNS_18__default_init_tagEEEOT_OT0_, symObjAddr: 0x3730, symBinAddr: 0x100005DC0, symSize: 0x30 }
  - { offsetInCU: 0xF20D, offset: 0xF20D, size: 0x8, addend: 0x0, symName: __ZNSt3__117__compressed_pairImNS_9allocatorIPNS_16__hash_node_baseIPNS_11__hash_nodeINS_17__hash_value_typeIi6PacketEEPvEEEEEEEC2B7v160006IiNS_18__default_init_tagEEEOT_OT0_, symObjAddr: 0x3760, symBinAddr: 0x100005DF0, symSize: 0x40 }
  - { offsetInCU: 0xF264, offset: 0xF264, size: 0x8, addend: 0x0, symName: __ZNSt3__122__compressed_pair_elemImLi0ELb0EEC2B7v160006IivEEOT_, symObjAddr: 0x37A0, symBinAddr: 0x100005E30, symSize: 0x20 }
  - { offsetInCU: 0xF2A5, offset: 0xF2A5, size: 0x8, addend: 0x0, symName: __ZNSt3__122__compressed_pair_elemINS_9allocatorIPNS_16__hash_node_baseIPNS_11__hash_nodeINS_17__hash_value_typeIi6PacketEEPvEEEEEELi1ELb1EEC2B7v160006ENS_18__default_init_tagE, symObjAddr: 0x37C0, symBinAddr: 0x100005E50, symSize: 0x20 }
  - { offsetInCU: 0xF2D8, offset: 0xF2D8, size: 0x8, addend: 0x0, symName: __ZNSt3__19allocatorIPNS_16__hash_node_baseIPNS_11__hash_nodeINS_17__hash_value_typeIi6PacketEEPvEEEEEC2B7v160006Ev, symObjAddr: 0x37E0, symBinAddr: 0x100005E70, symSize: 0x20 }
  - { offsetInCU: 0xF301, offset: 0xF301, size: 0x8, addend: 0x0, symName: __ZNSt3__116__non_trivial_ifILb1ENS_9allocatorIPNS_16__hash_node_baseIPNS_11__hash_nodeINS_17__hash_value_typeIi6PacketEEPvEEEEEEEC2B7v160006Ev, symObjAddr: 0x3800, symBinAddr: 0x100005E90, symSize: 0x10 }
  - { offsetInCU: 0xF32A, offset: 0xF32A, size: 0x8, addend: 0x0, symName: __ZNSt3__117__compressed_pairINS_16__hash_node_baseIPNS_11__hash_nodeINS_17__hash_value_typeIi6PacketEEPvEEEENS_9allocatorIS7_EEEC2B7v160006ILb1EvEEv, symObjAddr: 0x3810, symBinAddr: 0x100005EA0, symSize: 0x30 }
  - { offsetInCU: 0xF35E, offset: 0xF35E, size: 0x8, addend: 0x0, symName: __ZNSt3__122__compressed_pair_elemINS_16__hash_node_baseIPNS_11__hash_nodeINS_17__hash_value_typeIi6PacketEEPvEEEELi0ELb0EEC2B7v160006ENS_16__value_init_tagE, symObjAddr: 0x3840, symBinAddr: 0x100005ED0, symSize: 0x20 }
  - { offsetInCU: 0xF391, offset: 0xF391, size: 0x8, addend: 0x0, symName: __ZNSt3__122__compressed_pair_elemINS_9allocatorINS_11__hash_nodeINS_17__hash_value_typeIi6PacketEEPvEEEELi1ELb1EEC2B7v160006ENS_16__value_init_tagE, symObjAddr: 0x3860, symBinAddr: 0x100005EF0, symSize: 0x20 }
  - { offsetInCU: 0xF3C4, offset: 0xF3C4, size: 0x8, addend: 0x0, symName: __ZNSt3__116__hash_node_baseIPNS_11__hash_nodeINS_17__hash_value_typeIi6PacketEEPvEEEC1B7v160006Ev, symObjAddr: 0x3880, symBinAddr: 0x100005F10, symSize: 0x20 }
  - { offsetInCU: 0xF3ED, offset: 0xF3ED, size: 0x8, addend: 0x0, symName: __ZNSt3__116__hash_node_baseIPNS_11__hash_nodeINS_17__hash_value_typeIi6PacketEEPvEEEC2B7v160006Ev, symObjAddr: 0x38A0, symBinAddr: 0x100005F30, symSize: 0x20 }
  - { offsetInCU: 0xF416, offset: 0xF416, size: 0x8, addend: 0x0, symName: __ZNSt3__19allocatorINS_11__hash_nodeINS_17__hash_value_typeIi6PacketEEPvEEEC2B7v160006Ev, symObjAddr: 0x38C0, symBinAddr: 0x100005F50, symSize: 0x20 }
  - { offsetInCU: 0xF43F, offset: 0xF43F, size: 0x8, addend: 0x0, symName: __ZNSt3__116__non_trivial_ifILb1ENS_9allocatorINS_11__hash_nodeINS_17__hash_value_typeIi6PacketEEPvEEEEEC2B7v160006Ev, symObjAddr: 0x38E0, symBinAddr: 0x100005F70, symSize: 0x10 }
  - { offsetInCU: 0xF468, offset: 0xF468, size: 0x8, addend: 0x0, symName: __ZNSt3__117__compressed_pairImNS_22__unordered_map_hasherIiNS_17__hash_value_typeIi6PacketEENS_4hashIiEENS_8equal_toIiEELb1EEEEC2B7v160006IiNS_18__default_init_tagEEEOT_OT0_, symObjAddr: 0x38F0, symBinAddr: 0x100005F80, symSize: 0x40 }
  - { offsetInCU: 0xF4BF, offset: 0xF4BF, size: 0x8, addend: 0x0, symName: __ZNSt3__122__compressed_pair_elemINS_22__unordered_map_hasherIiNS_17__hash_value_typeIi6PacketEENS_4hashIiEENS_8equal_toIiEELb1EEELi1ELb1EEC2B7v160006ENS_18__default_init_tagE, symObjAddr: 0x3930, symBinAddr: 0x100005FC0, symSize: 0x20 }
  - { offsetInCU: 0xF4F2, offset: 0xF4F2, size: 0x8, addend: 0x0, symName: __ZNSt3__122__unordered_map_hasherIiNS_17__hash_value_typeIi6PacketEENS_4hashIiEENS_8equal_toIiEELb1EEC2B7v160006Ev, symObjAddr: 0x3950, symBinAddr: 0x100005FE0, symSize: 0x10 }
  - { offsetInCU: 0xF51B, offset: 0xF51B, size: 0x8, addend: 0x0, symName: __ZNSt3__117__compressed_pairIfNS_21__unordered_map_equalIiNS_17__hash_value_typeIi6PacketEENS_8equal_toIiEENS_4hashIiEELb1EEEEC2B7v160006IfNS_18__default_init_tagEEEOT_OT0_, symObjAddr: 0x3960, symBinAddr: 0x100005FF0, symSize: 0x40 }
  - { offsetInCU: 0xF572, offset: 0xF572, size: 0x8, addend: 0x0, symName: __ZNSt3__122__compressed_pair_elemIfLi0ELb0EEC2B7v160006IfvEEOT_, symObjAddr: 0x39A0, symBinAddr: 0x100006030, symSize: 0x20 }
  - { offsetInCU: 0xF5B3, offset: 0xF5B3, size: 0x8, addend: 0x0, symName: __ZNSt3__122__compressed_pair_elemINS_21__unordered_map_equalIiNS_17__hash_value_typeIi6PacketEENS_8equal_toIiEENS_4hashIiEELb1EEELi1ELb1EEC2B7v160006ENS_18__default_init_tagE, symObjAddr: 0x39C0, symBinAddr: 0x100006050, symSize: 0x20 }
  - { offsetInCU: 0xF5E6, offset: 0xF5E6, size: 0x8, addend: 0x0, symName: __ZNSt3__121__unordered_map_equalIiNS_17__hash_value_typeIi6PacketEENS_8equal_toIiEENS_4hashIiEELb1EEC2B7v160006Ev, symObjAddr: 0x39E0, symBinAddr: 0x100006070, symSize: 0x10 }
  - { offsetInCU: 0xF60F, offset: 0xF60F, size: 0x8, addend: 0x0, symName: __ZNSt3__113unordered_mapIi6PacketNS_4hashIiEENS_8equal_toIiEENS_9allocatorINS_4pairIKiS1_EEEEED2B7v160006Ev, symObjAddr: 0x39F0, symBinAddr: 0x100006080, symSize: 0x20 }
  - { offsetInCU: 0xF638, offset: 0xF638, size: 0x8, addend: 0x0, symName: __ZNSt3__112__hash_tableINS_17__hash_value_typeIi6PacketEENS_22__unordered_map_hasherIiS3_NS_4hashIiEENS_8equal_toIiEELb1EEENS_21__unordered_map_equalIiS3_S8_S6_Lb1EEENS_9allocatorIS3_EEED1Ev, symObjAddr: 0x3A10, symBinAddr: 0x1000060A0, symSize: 0x20 }
  - { offsetInCU: 0xF663, offset: 0xF663, size: 0x8, addend: 0x0, symName: __ZNSt3__112__hash_tableINS_17__hash_value_typeIi6PacketEENS_22__unordered_map_hasherIiS3_NS_4hashIiEENS_8equal_toIiEELb1EEENS_21__unordered_map_equalIiS3_S8_S6_Lb1EEENS_9allocatorIS3_EEED2Ev, symObjAddr: 0x3A30, symBinAddr: 0x1000060C0, symSize: 0x50 }
  - { offsetInCU: 0xF68D, offset: 0xF68D, size: 0x8, addend: 0x0, symName: __ZNSt3__112__hash_tableINS_17__hash_value_typeIi6PacketEENS_22__unordered_map_hasherIiS3_NS_4hashIiEENS_8equal_toIiEELb1EEENS_21__unordered_map_equalIiS3_S8_S6_Lb1EEENS_9allocatorIS3_EEE17__deallocate_nodeEPNS_16__hash_node_baseIPNS_11__hash_nodeIS3_PvEEEE, symObjAddr: 0x3A80, symBinAddr: 0x100006110, symSize: 0xA0 }
  - { offsetInCU: 0xF6F7, offset: 0xF6F7, size: 0x8, addend: 0x0, symName: __ZNSt3__117__compressed_pairINS_16__hash_node_baseIPNS_11__hash_nodeINS_17__hash_value_typeIi6PacketEEPvEEEENS_9allocatorIS7_EEE5firstB7v160006Ev, symObjAddr: 0x3B20, symBinAddr: 0x1000061B0, symSize: 0x20 }
  - { offsetInCU: 0xF71C, offset: 0xF71C, size: 0x8, addend: 0x0, symName: __ZNSt3__110unique_ptrIA_PNS_16__hash_node_baseIPNS_11__hash_nodeINS_17__hash_value_typeIi6PacketEEPvEEEENS_25__bucket_list_deallocatorINS_9allocatorISA_EEEEED1B7v160006Ev, symObjAddr: 0x3B50, symBinAddr: 0x1000061E0, symSize: 0x20 }
  - { offsetInCU: 0xF745, offset: 0xF745, size: 0x8, addend: 0x0, symName: __ZNSt3__112__hash_tableINS_17__hash_value_typeIi6PacketEENS_22__unordered_map_hasherIiS3_NS_4hashIiEENS_8equal_toIiEELb1EEENS_21__unordered_map_equalIiS3_S8_S6_Lb1EEENS_9allocatorIS3_EEE12__node_allocB7v160006Ev, symObjAddr: 0x3B70, symBinAddr: 0x100006200, symSize: 0x20 }
  - { offsetInCU: 0xF76A, offset: 0xF76A, size: 0x8, addend: 0x0, symName: __ZNSt3__116__hash_node_baseIPNS_11__hash_nodeINS_17__hash_value_typeIi6PacketEEPvEEE8__upcastB7v160006Ev, symObjAddr: 0x3B90, symBinAddr: 0x100006220, symSize: 0x20 }
  - { offsetInCU: 0xF78F, offset: 0xF78F, size: 0x8, addend: 0x0, symName: __ZNSt3__116allocator_traitsINS_9allocatorINS_11__hash_nodeINS_17__hash_value_typeIi6PacketEEPvEEEEE7destroyB7v160006INS_4pairIKiS4_EEvvEEvRS8_PT_, symObjAddr: 0x3BB0, symBinAddr: 0x100006240, symSize: 0x20 }
  - { offsetInCU: 0xF7CA, offset: 0xF7CA, size: 0x8, addend: 0x0, symName: __ZNSt3__122__hash_key_value_typesINS_17__hash_value_typeIi6PacketEEE9__get_ptrB7v160006ERS3_, symObjAddr: 0x3BD0, symBinAddr: 0x100006260, symSize: 0x20 }
  - { offsetInCU: 0xF7ED, offset: 0xF7ED, size: 0x8, addend: 0x0, symName: __ZNSt3__116allocator_traitsINS_9allocatorINS_11__hash_nodeINS_17__hash_value_typeIi6PacketEEPvEEEEE10deallocateB7v160006ERS8_PS7_m, symObjAddr: 0x3BF0, symBinAddr: 0x100006280, symSize: 0x30 }
  - { offsetInCU: 0xF82F, offset: 0xF82F, size: 0x8, addend: 0x0, symName: __ZNSt3__117__compressed_pairINS_16__hash_node_baseIPNS_11__hash_nodeINS_17__hash_value_typeIi6PacketEEPvEEEENS_9allocatorIS7_EEE6secondB7v160006Ev, symObjAddr: 0x3C20, symBinAddr: 0x1000062B0, symSize: 0x20 }
  - { offsetInCU: 0xF854, offset: 0xF854, size: 0x8, addend: 0x0, symName: __ZNSt3__122__compressed_pair_elemINS_9allocatorINS_11__hash_nodeINS_17__hash_value_typeIi6PacketEEPvEEEELi1ELb1EE5__getB7v160006Ev, symObjAddr: 0x3C40, symBinAddr: 0x1000062D0, symSize: 0x10 }
  - { offsetInCU: 0xF879, offset: 0xF879, size: 0x8, addend: 0x0, symName: __ZNSt3__114pointer_traitsIPNS_16__hash_node_baseIPNS_11__hash_nodeINS_17__hash_value_typeIi6PacketEEPvEEEEE10pointer_toB7v160006ERS9_, symObjAddr: 0x3C50, symBinAddr: 0x1000062E0, symSize: 0x10 }
  - { offsetInCU: 0xF89C, offset: 0xF89C, size: 0x8, addend: 0x0, symName: __ZNSt3__117__hash_value_typeIi6PacketE11__get_valueB7v160006Ev, symObjAddr: 0x3C90, symBinAddr: 0x100006320, symSize: 0x20 }
  - { offsetInCU: 0xF8C1, offset: 0xF8C1, size: 0x8, addend: 0x0, symName: __ZNSt3__19allocatorINS_11__hash_nodeINS_17__hash_value_typeIi6PacketEEPvEEE10deallocateB7v160006EPS6_m, symObjAddr: 0x3CE0, symBinAddr: 0x100006370, symSize: 0x40 }
  - { offsetInCU: 0xF902, offset: 0xF902, size: 0x8, addend: 0x0, symName: __ZNSt3__122__compressed_pair_elemINS_16__hash_node_baseIPNS_11__hash_nodeINS_17__hash_value_typeIi6PacketEEPvEEEELi0ELb0EE5__getB7v160006Ev, symObjAddr: 0x3D20, symBinAddr: 0x1000063B0, symSize: 0x10 }
  - { offsetInCU: 0xF927, offset: 0xF927, size: 0x8, addend: 0x0, symName: __ZNSt3__110unique_ptrIA_PNS_16__hash_node_baseIPNS_11__hash_nodeINS_17__hash_value_typeIi6PacketEEPvEEEENS_25__bucket_list_deallocatorINS_9allocatorISA_EEEEED2B7v160006Ev, symObjAddr: 0x3D30, symBinAddr: 0x1000063C0, symSize: 0x20 }
  - { offsetInCU: 0xF950, offset: 0xF950, size: 0x8, addend: 0x0, symName: __ZNSt3__110unique_ptrIA_PNS_16__hash_node_baseIPNS_11__hash_nodeINS_17__hash_value_typeIi6PacketEEPvEEEENS_25__bucket_list_deallocatorINS_9allocatorISA_EEEEE5resetB7v160006EDn, symObjAddr: 0x3D50, symBinAddr: 0x1000063E0, symSize: 0x60 }
  - { offsetInCU: 0xF990, offset: 0xF990, size: 0x8, addend: 0x0, symName: __ZNSt3__117__compressed_pairIPPNS_16__hash_node_baseIPNS_11__hash_nodeINS_17__hash_value_typeIi6PacketEEPvEEEENS_25__bucket_list_deallocatorINS_9allocatorISA_EEEEE5firstB7v160006Ev, symObjAddr: 0x3DB0, symBinAddr: 0x100006440, symSize: 0x20 }
  - { offsetInCU: 0xF9B5, offset: 0xF9B5, size: 0x8, addend: 0x0, symName: __ZNSt3__117__compressed_pairIPPNS_16__hash_node_baseIPNS_11__hash_nodeINS_17__hash_value_typeIi6PacketEEPvEEEENS_25__bucket_list_deallocatorINS_9allocatorISA_EEEEE6secondB7v160006Ev, symObjAddr: 0x3DD0, symBinAddr: 0x100006460, symSize: 0x20 }
  - { offsetInCU: 0xF9DA, offset: 0xF9DA, size: 0x8, addend: 0x0, symName: __ZNSt3__125__bucket_list_deallocatorINS_9allocatorIPNS_16__hash_node_baseIPNS_11__hash_nodeINS_17__hash_value_typeIi6PacketEEPvEEEEEEEclB7v160006EPSB_, symObjAddr: 0x3DF0, symBinAddr: 0x100006480, symSize: 0x50 }
  - { offsetInCU: 0xFA0E, offset: 0xFA0E, size: 0x8, addend: 0x0, symName: __ZNSt3__122__compressed_pair_elemIPPNS_16__hash_node_baseIPNS_11__hash_nodeINS_17__hash_value_typeIi6PacketEEPvEEEELi0ELb0EE5__getB7v160006Ev, symObjAddr: 0x3E40, symBinAddr: 0x1000064D0, symSize: 0x10 }
  - { offsetInCU: 0xFA33, offset: 0xFA33, size: 0x8, addend: 0x0, symName: __ZNSt3__122__compressed_pair_elemINS_25__bucket_list_deallocatorINS_9allocatorIPNS_16__hash_node_baseIPNS_11__hash_nodeINS_17__hash_value_typeIi6PacketEEPvEEEEEEEELi1ELb0EE5__getB7v160006Ev, symObjAddr: 0x3E50, symBinAddr: 0x1000064E0, symSize: 0x10 }
  - { offsetInCU: 0xFA58, offset: 0xFA58, size: 0x8, addend: 0x0, symName: __ZNSt3__116allocator_traitsINS_9allocatorIPNS_16__hash_node_baseIPNS_11__hash_nodeINS_17__hash_value_typeIi6PacketEEPvEEEEEEE10deallocateB7v160006ERSC_PSB_m, symObjAddr: 0x3E60, symBinAddr: 0x1000064F0, symSize: 0x30 }
  - { offsetInCU: 0xFA9A, offset: 0xFA9A, size: 0x8, addend: 0x0, symName: __ZNSt3__125__bucket_list_deallocatorINS_9allocatorIPNS_16__hash_node_baseIPNS_11__hash_nodeINS_17__hash_value_typeIi6PacketEEPvEEEEEEE7__allocB7v160006Ev, symObjAddr: 0x3E90, symBinAddr: 0x100006520, symSize: 0x20 }
  - { offsetInCU: 0xFABF, offset: 0xFABF, size: 0x8, addend: 0x0, symName: __ZNSt3__125__bucket_list_deallocatorINS_9allocatorIPNS_16__hash_node_baseIPNS_11__hash_nodeINS_17__hash_value_typeIi6PacketEEPvEEEEEEE4sizeB7v160006Ev, symObjAddr: 0x3EB0, symBinAddr: 0x100006540, symSize: 0x20 }
  - { offsetInCU: 0xFAE4, offset: 0xFAE4, size: 0x8, addend: 0x0, symName: __ZNSt3__19allocatorIPNS_16__hash_node_baseIPNS_11__hash_nodeINS_17__hash_value_typeIi6PacketEEPvEEEEE10deallocateB7v160006EPSA_m, symObjAddr: 0x3ED0, symBinAddr: 0x100006560, symSize: 0x40 }
  - { offsetInCU: 0xFB25, offset: 0xFB25, size: 0x8, addend: 0x0, symName: __ZNSt3__117__compressed_pairImNS_9allocatorIPNS_16__hash_node_baseIPNS_11__hash_nodeINS_17__hash_value_typeIi6PacketEEPvEEEEEEE6secondB7v160006Ev, symObjAddr: 0x3F10, symBinAddr: 0x1000065A0, symSize: 0x20 }
  - { offsetInCU: 0xFB4A, offset: 0xFB4A, size: 0x8, addend: 0x0, symName: __ZNSt3__122__compressed_pair_elemINS_9allocatorIPNS_16__hash_node_baseIPNS_11__hash_nodeINS_17__hash_value_typeIi6PacketEEPvEEEEEELi1ELb1EE5__getB7v160006Ev, symObjAddr: 0x3F30, symBinAddr: 0x1000065C0, symSize: 0x10 }
  - { offsetInCU: 0xFB6F, offset: 0xFB6F, size: 0x8, addend: 0x0, symName: __ZNSt3__117__compressed_pairImNS_9allocatorIPNS_16__hash_node_baseIPNS_11__hash_nodeINS_17__hash_value_typeIi6PacketEEPvEEEEEEE5firstB7v160006Ev, symObjAddr: 0x3F40, symBinAddr: 0x1000065D0, symSize: 0x20 }
  - { offsetInCU: 0xFB94, offset: 0xFB94, size: 0x8, addend: 0x0, symName: __ZNSt3__122__compressed_pair_elemImLi0ELb0EE5__getB7v160006Ev, symObjAddr: 0x3F60, symBinAddr: 0x1000065F0, symSize: 0x10 }
  - { offsetInCU: 0xFBB8, offset: 0xFBB8, size: 0x8, addend: 0x0, symName: __ZNSt3__112__hash_tableINS_17__hash_value_typeIi6PacketEENS_22__unordered_map_hasherIiS3_NS_4hashIiEENS_8equal_toIiEELb1EEENS_21__unordered_map_equalIiS3_S8_S6_Lb1EEENS_9allocatorIS3_EEE15__assign_uniqueIPKNS_4pairIKiS2_EEEEvT_SL_, symObjAddr: 0x3F70, symBinAddr: 0x100006600, symSize: 0x190 }
  - { offsetInCU: 0xFC32, offset: 0xFC32, size: 0x8, addend: 0x0, symName: __ZNKSt16initializer_listINSt3__14pairIKi6PacketEEE5beginB7v160006Ev, symObjAddr: 0x4100, symBinAddr: 0x100006790, symSize: 0x20 }
  - { offsetInCU: 0xFC57, offset: 0xFC57, size: 0x8, addend: 0x0, symName: __ZNKSt16initializer_listINSt3__14pairIKi6PacketEEE3endB7v160006Ev, symObjAddr: 0x4120, symBinAddr: 0x1000067B0, symSize: 0x20 }
  - { offsetInCU: 0xFC7C, offset: 0xFC7C, size: 0x8, addend: 0x0, symName: __ZNKSt3__112__hash_tableINS_17__hash_value_typeIi6PacketEENS_22__unordered_map_hasherIiS3_NS_4hashIiEENS_8equal_toIiEELb1EEENS_21__unordered_map_equalIiS3_S8_S6_Lb1EEENS_9allocatorIS3_EEE12bucket_countB7v160006Ev, symObjAddr: 0x4140, symBinAddr: 0x1000067D0, symSize: 0x30 }
  - { offsetInCU: 0xFCA0, offset: 0xFCA0, size: 0x8, addend: 0x0, symName: __ZNSt3__112__hash_tableINS_17__hash_value_typeIi6PacketEENS_22__unordered_map_hasherIiS3_NS_4hashIiEENS_8equal_toIiEELb1EEENS_21__unordered_map_equalIiS3_S8_S6_Lb1EEENS_9allocatorIS3_EEE8__detachEv, symObjAddr: 0x4170, symBinAddr: 0x100006800, symSize: 0xB0 }
  - { offsetInCU: 0xFCFB, offset: 0xFCFB, size: 0x8, addend: 0x0, symName: __ZNSt3__117__hash_value_typeIi6PacketEaSB7v160006IRKNS_4pairIKiS1_EEvEERS2_OT_, symObjAddr: 0x4220, symBinAddr: 0x1000068B0, symSize: 0x50 }
  - { offsetInCU: 0xFD38, offset: 0xFD38, size: 0x8, addend: 0x0, symName: __ZNSt3__112__hash_tableINS_17__hash_value_typeIi6PacketEENS_22__unordered_map_hasherIiS3_NS_4hashIiEENS_8equal_toIiEELb1EEENS_21__unordered_map_equalIiS3_S8_S6_Lb1EEENS_9allocatorIS3_EEE20__node_insert_uniqueEPNS_11__hash_nodeIS3_PvEE, symObjAddr: 0x4270, symBinAddr: 0x100006900, symSize: 0xC0 }
  - { offsetInCU: 0xFD8C, offset: 0xFD8C, size: 0x8, addend: 0x0, symName: __ZNSt3__112__hash_tableINS_17__hash_value_typeIi6PacketEENS_22__unordered_map_hasherIiS3_NS_4hashIiEENS_8equal_toIiEELb1EEENS_21__unordered_map_equalIiS3_S8_S6_Lb1EEENS_9allocatorIS3_EEE15__insert_uniqueB7v160006ERKNS_4pairIKiS2_EE, symObjAddr: 0x4330, symBinAddr: 0x1000069C0, symSize: 0x50 }
  - { offsetInCU: 0xFDC0, offset: 0xFDC0, size: 0x8, addend: 0x0, symName: __ZNKSt3__110unique_ptrIA_PNS_16__hash_node_baseIPNS_11__hash_nodeINS_17__hash_value_typeIi6PacketEEPvEEEENS_25__bucket_list_deallocatorINS_9allocatorISA_EEEEE11get_deleterB7v160006Ev, symObjAddr: 0x4380, symBinAddr: 0x100006A10, symSize: 0x20 }
  - { offsetInCU: 0xFDE5, offset: 0xFDE5, size: 0x8, addend: 0x0, symName: __ZNKSt3__125__bucket_list_deallocatorINS_9allocatorIPNS_16__hash_node_baseIPNS_11__hash_nodeINS_17__hash_value_typeIi6PacketEEPvEEEEEEE4sizeB7v160006Ev, symObjAddr: 0x43A0, symBinAddr: 0x100006A30, symSize: 0x20 }
  - { offsetInCU: 0xFE0A, offset: 0xFE0A, size: 0x8, addend: 0x0, symName: __ZNKSt3__117__compressed_pairIPPNS_16__hash_node_baseIPNS_11__hash_nodeINS_17__hash_value_typeIi6PacketEEPvEEEENS_25__bucket_list_deallocatorINS_9allocatorISA_EEEEE6secondB7v160006Ev, symObjAddr: 0x43C0, symBinAddr: 0x100006A50, symSize: 0x20 }
  - { offsetInCU: 0xFE2F, offset: 0xFE2F, size: 0x8, addend: 0x0, symName: __ZNKSt3__122__compressed_pair_elemINS_25__bucket_list_deallocatorINS_9allocatorIPNS_16__hash_node_baseIPNS_11__hash_nodeINS_17__hash_value_typeIi6PacketEEPvEEEEEEEELi1ELb0EE5__getB7v160006Ev, symObjAddr: 0x43E0, symBinAddr: 0x100006A70, symSize: 0x10 }
  - { offsetInCU: 0xFE54, offset: 0xFE54, size: 0x8, addend: 0x0, symName: __ZNKSt3__117__compressed_pairImNS_9allocatorIPNS_16__hash_node_baseIPNS_11__hash_nodeINS_17__hash_value_typeIi6PacketEEPvEEEEEEE5firstB7v160006Ev, symObjAddr: 0x43F0, symBinAddr: 0x100006A80, symSize: 0x20 }
  - { offsetInCU: 0xFE79, offset: 0xFE79, size: 0x8, addend: 0x0, symName: __ZNKSt3__122__compressed_pair_elemImLi0ELb0EE5__getB7v160006Ev, symObjAddr: 0x4410, symBinAddr: 0x100006AA0, symSize: 0x10 }
  - { offsetInCU: 0xFE9E, offset: 0xFE9E, size: 0x8, addend: 0x0, symName: __ZNKSt3__110unique_ptrIA_PNS_16__hash_node_baseIPNS_11__hash_nodeINS_17__hash_value_typeIi6PacketEEPvEEEENS_25__bucket_list_deallocatorINS_9allocatorISA_EEEEEixB7v160006Em, symObjAddr: 0x4420, symBinAddr: 0x100006AB0, symSize: 0x30 }
  - { offsetInCU: 0xFED2, offset: 0xFED2, size: 0x8, addend: 0x0, symName: __ZNSt3__112__hash_tableINS_17__hash_value_typeIi6PacketEENS_22__unordered_map_hasherIiS3_NS_4hashIiEENS_8equal_toIiEELb1EEENS_21__unordered_map_equalIiS3_S8_S6_Lb1EEENS_9allocatorIS3_EEE4sizeB7v160006Ev, symObjAddr: 0x4450, symBinAddr: 0x100006AE0, symSize: 0x20 }
  - { offsetInCU: 0xFEF7, offset: 0xFEF7, size: 0x8, addend: 0x0, symName: __ZNKSt3__117__compressed_pairIPPNS_16__hash_node_baseIPNS_11__hash_nodeINS_17__hash_value_typeIi6PacketEEPvEEEENS_25__bucket_list_deallocatorINS_9allocatorISA_EEEEE5firstB7v160006Ev, symObjAddr: 0x4470, symBinAddr: 0x100006B00, symSize: 0x20 }
  - { offsetInCU: 0xFF1C, offset: 0xFF1C, size: 0x8, addend: 0x0, symName: __ZNKSt3__122__compressed_pair_elemIPPNS_16__hash_node_baseIPNS_11__hash_nodeINS_17__hash_value_typeIi6PacketEEPvEEEELi0ELb0EE5__getB7v160006Ev, symObjAddr: 0x4490, symBinAddr: 0x100006B20, symSize: 0x10 }
  - { offsetInCU: 0xFF41, offset: 0xFF41, size: 0x8, addend: 0x0, symName: __ZNSt3__117__compressed_pairImNS_22__unordered_map_hasherIiNS_17__hash_value_typeIi6PacketEENS_4hashIiEENS_8equal_toIiEELb1EEEE5firstB7v160006Ev, symObjAddr: 0x44A0, symBinAddr: 0x100006B30, symSize: 0x20 }
  - { offsetInCU: 0xFF66, offset: 0xFF66, size: 0x8, addend: 0x0, symName: __ZNSt3__117__hash_value_typeIi6PacketE5__refB7v160006Ev, symObjAddr: 0x44C0, symBinAddr: 0x100006B50, symSize: 0x40 }
  - { offsetInCU: 0xFF9A, offset: 0xFF9A, size: 0x8, addend: 0x0, symName: __ZNSt3__14pairIRiR6PacketEaSB7v160006IRKNS0_IKiS2_EELPv0EEERS4_OT_, symObjAddr: 0x4500, symBinAddr: 0x100006B90, symSize: 0x60 }
  - { offsetInCU: 0xFFDD, offset: 0xFFDD, size: 0x8, addend: 0x0, symName: __ZNSt3__14pairIRiR6PacketEC1B7v160006ILb1ELPv0EEES1_S3_, symObjAddr: 0x4560, symBinAddr: 0x100006BF0, symSize: 0x30 }
  - { offsetInCU: 0x10032, offset: 0x10032, size: 0x8, addend: 0x0, symName: __ZNSt3__14pairIRiR6PacketEC2B7v160006ILb1ELPv0EEES1_S3_, symObjAddr: 0x4590, symBinAddr: 0x100006C20, symSize: 0x30 }
  - { offsetInCU: 0x10087, offset: 0x10087, size: 0x8, addend: 0x0, symName: __ZNSt3__110__get_pairILm0EE3getB7v160006IKi6PacketEERKT_RKNS_4pairIS5_T0_EE, symObjAddr: 0x4600, symBinAddr: 0x100006C90, symSize: 0x10 }
  - { offsetInCU: 0x100BD, offset: 0x100BD, size: 0x8, addend: 0x0, symName: __ZNSt3__110__get_pairILm1EE3getB7v160006IKi6PacketEERKT0_RKNS_4pairIT_S5_EE, symObjAddr: 0x4610, symBinAddr: 0x100006CA0, symSize: 0x20 }
  - { offsetInCU: 0x100F3, offset: 0x100F3, size: 0x8, addend: 0x0, symName: __ZNSt3__112__hash_tableINS_17__hash_value_typeIi6PacketEENS_22__unordered_map_hasherIiS3_NS_4hashIiEENS_8equal_toIiEELb1EEENS_21__unordered_map_equalIiS3_S8_S6_Lb1EEENS_9allocatorIS3_EEE13hash_functionB7v160006Ev, symObjAddr: 0x4630, symBinAddr: 0x100006CC0, symSize: 0x20 }
  - { offsetInCU: 0x10118, offset: 0x10118, size: 0x8, addend: 0x0, symName: __ZNKSt3__122__unordered_map_hasherIiNS_17__hash_value_typeIi6PacketEENS_4hashIiEENS_8equal_toIiEELb1EEclB7v160006ERKS3_, symObjAddr: 0x4650, symBinAddr: 0x100006CE0, symSize: 0x40 }
  - { offsetInCU: 0x1014B, offset: 0x1014B, size: 0x8, addend: 0x0, symName: __ZNSt3__112__hash_tableINS_17__hash_value_typeIi6PacketEENS_22__unordered_map_hasherIiS3_NS_4hashIiEENS_8equal_toIiEELb1EEENS_21__unordered_map_equalIiS3_S8_S6_Lb1EEENS_9allocatorIS3_EEE28__node_insert_unique_prepareB7v160006EmRS3_, symObjAddr: 0x4690, symBinAddr: 0x100006D20, symSize: 0x2D0 }
  - { offsetInCU: 0x101CB, offset: 0x101CB, size: 0x8, addend: 0x0, symName: __ZNKSt3__116__hash_node_baseIPNS_11__hash_nodeINS_17__hash_value_typeIi6PacketEEPvEEE6__hashB7v160006Ev, symObjAddr: 0x4960, symBinAddr: 0x100006FF0, symSize: 0x20 }
  - { offsetInCU: 0x101EF, offset: 0x101EF, size: 0x8, addend: 0x0, symName: __ZNSt3__112__hash_tableINS_17__hash_value_typeIi6PacketEENS_22__unordered_map_hasherIiS3_NS_4hashIiEENS_8equal_toIiEELb1EEENS_21__unordered_map_equalIiS3_S8_S6_Lb1EEENS_9allocatorIS3_EEE28__node_insert_unique_performB7v160006EPNS_11__hash_nodeIS3_PvEE, symObjAddr: 0x4980, symBinAddr: 0x100007010, symSize: 0x140 }
  - { offsetInCU: 0x10252, offset: 0x10252, size: 0x8, addend: 0x0, symName: __ZNSt3__116__hash_node_baseIPNS_11__hash_nodeINS_17__hash_value_typeIi6PacketEEPvEEE5__ptrB7v160006Ev, symObjAddr: 0x4AC0, symBinAddr: 0x100007150, symSize: 0x20 }
  - { offsetInCU: 0x10277, offset: 0x10277, size: 0x8, addend: 0x0, symName: __ZNSt3__115__hash_iteratorIPNS_11__hash_nodeINS_17__hash_value_typeIi6PacketEEPvEEEC1B7v160006EPNS_16__hash_node_baseIS7_EEPKv, symObjAddr: 0x4AE0, symBinAddr: 0x100007170, symSize: 0x30 }
  - { offsetInCU: 0x102C8, offset: 0x102C8, size: 0x8, addend: 0x0, symName: __ZNSt3__14pairINS_15__hash_iteratorIPNS_11__hash_nodeINS_17__hash_value_typeIi6PacketEEPvEEEEbEC1B7v160006IS9_RbLS6_0EEEOT_OT0_, symObjAddr: 0x4B10, symBinAddr: 0x1000071A0, symSize: 0x30 }
  - { offsetInCU: 0x10325, offset: 0x10325, size: 0x8, addend: 0x0, symName: __ZNSt3__117__compressed_pairImNS_22__unordered_map_hasherIiNS_17__hash_value_typeIi6PacketEENS_4hashIiEENS_8equal_toIiEELb1EEEE6secondB7v160006Ev, symObjAddr: 0x4B40, symBinAddr: 0x1000071D0, symSize: 0x20 }
  - { offsetInCU: 0x1034A, offset: 0x1034A, size: 0x8, addend: 0x0, symName: __ZNSt3__122__compressed_pair_elemINS_22__unordered_map_hasherIiNS_17__hash_value_typeIi6PacketEENS_4hashIiEENS_8equal_toIiEELb1EEELi1ELb1EE5__getB7v160006Ev, symObjAddr: 0x4B60, symBinAddr: 0x1000071F0, symSize: 0x10 }
  - { offsetInCU: 0x1036F, offset: 0x1036F, size: 0x8, addend: 0x0, symName: __ZNKSt3__14hashIiEclB7v160006Ei, symObjAddr: 0x4B70, symBinAddr: 0x100007200, symSize: 0x20 }
  - { offsetInCU: 0x103A3, offset: 0x103A3, size: 0x8, addend: 0x0, symName: __ZNKSt3__117__hash_value_typeIi6PacketE11__get_valueB7v160006Ev, symObjAddr: 0x4B90, symBinAddr: 0x100007220, symSize: 0x20 }
  - { offsetInCU: 0x103C8, offset: 0x103C8, size: 0x8, addend: 0x0, symName: __ZNSt3__112__hash_tableINS_17__hash_value_typeIi6PacketEENS_22__unordered_map_hasherIiS3_NS_4hashIiEENS_8equal_toIiEELb1EEENS_21__unordered_map_equalIiS3_S8_S6_Lb1EEENS_9allocatorIS3_EEE6key_eqB7v160006Ev, symObjAddr: 0x4C60, symBinAddr: 0x1000072F0, symSize: 0x20 }
  - { offsetInCU: 0x103ED, offset: 0x103ED, size: 0x8, addend: 0x0, symName: __ZNKSt3__121__unordered_map_equalIiNS_17__hash_value_typeIi6PacketEENS_8equal_toIiEENS_4hashIiEELb1EEclB7v160006ERKS3_SA_, symObjAddr: 0x4C80, symBinAddr: 0x100007310, symSize: 0x50 }
  - { offsetInCU: 0x10430, offset: 0x10430, size: 0x8, addend: 0x0, symName: __ZNSt3__112__hash_tableINS_17__hash_value_typeIi6PacketEENS_22__unordered_map_hasherIiS3_NS_4hashIiEENS_8equal_toIiEELb1EEENS_21__unordered_map_equalIiS3_S8_S6_Lb1EEENS_9allocatorIS3_EEE15max_load_factorB7v160006Ev, symObjAddr: 0x4CD0, symBinAddr: 0x100007360, symSize: 0x20 }
  - { offsetInCU: 0x10455, offset: 0x10455, size: 0x8, addend: 0x0, symName: __ZNSt3__112__hash_tableINS_17__hash_value_typeIi6PacketEENS_22__unordered_map_hasherIiS3_NS_4hashIiEENS_8equal_toIiEELb1EEENS_21__unordered_map_equalIiS3_S8_S6_Lb1EEENS_9allocatorIS3_EEE15__rehash_uniqueB7v160006Em, symObjAddr: 0x4CF0, symBinAddr: 0x100007380, symSize: 0x30 }
  - { offsetInCU: 0x10488, offset: 0x10488, size: 0x8, addend: 0x0, symName: __Z4ceilB7v160006f, symObjAddr: 0x4D60, symBinAddr: 0x1000073F0, symSize: 0x20 }
  - { offsetInCU: 0x104B7, offset: 0x104B7, size: 0x8, addend: 0x0, symName: __ZNSt3__117__compressed_pairIfNS_21__unordered_map_equalIiNS_17__hash_value_typeIi6PacketEENS_8equal_toIiEENS_4hashIiEELb1EEEE6secondB7v160006Ev, symObjAddr: 0x4D80, symBinAddr: 0x100007410, symSize: 0x20 }
  - { offsetInCU: 0x104DC, offset: 0x104DC, size: 0x8, addend: 0x0, symName: __ZNSt3__122__compressed_pair_elemINS_21__unordered_map_equalIiNS_17__hash_value_typeIi6PacketEENS_8equal_toIiEENS_4hashIiEELb1EEELi1ELb1EE5__getB7v160006Ev, symObjAddr: 0x4DA0, symBinAddr: 0x100007430, symSize: 0x10 }
  - { offsetInCU: 0x10501, offset: 0x10501, size: 0x8, addend: 0x0, symName: __ZNKSt3__18equal_toIiEclB7v160006ERKiS3_, symObjAddr: 0x4DB0, symBinAddr: 0x100007440, symSize: 0x30 }
  - { offsetInCU: 0x10544, offset: 0x10544, size: 0x8, addend: 0x0, symName: __ZNSt3__117__compressed_pairIfNS_21__unordered_map_equalIiNS_17__hash_value_typeIi6PacketEENS_8equal_toIiEENS_4hashIiEELb1EEEE5firstB7v160006Ev, symObjAddr: 0x4DE0, symBinAddr: 0x100007470, symSize: 0x20 }
  - { offsetInCU: 0x10569, offset: 0x10569, size: 0x8, addend: 0x0, symName: __ZNSt3__122__compressed_pair_elemIfLi0ELb0EE5__getB7v160006Ev, symObjAddr: 0x4E00, symBinAddr: 0x100007490, symSize: 0x10 }
  - { offsetInCU: 0x1058D, offset: 0x1058D, size: 0x8, addend: 0x0, symName: __ZNSt3__112__hash_tableINS_17__hash_value_typeIi6PacketEENS_22__unordered_map_hasherIiS3_NS_4hashIiEENS_8equal_toIiEELb1EEENS_21__unordered_map_equalIiS3_S8_S6_Lb1EEENS_9allocatorIS3_EEE8__rehashILb1EEEvm, symObjAddr: 0x4E10, symBinAddr: 0x1000074A0, symSize: 0x230 }
  - { offsetInCU: 0x105DB, offset: 0x105DB, size: 0x8, addend: 0x0, symName: __ZNSt3__112__hash_tableINS_17__hash_value_typeIi6PacketEENS_22__unordered_map_hasherIiS3_NS_4hashIiEENS_8equal_toIiEELb1EEENS_21__unordered_map_equalIiS3_S8_S6_Lb1EEENS_9allocatorIS3_EEE11__do_rehashILb1EEEvm, symObjAddr: 0x5040, symBinAddr: 0x1000076D0, symSize: 0x260 }
  - { offsetInCU: 0x106BD, offset: 0x106BD, size: 0x8, addend: 0x0, symName: __ZNSt3__110unique_ptrIA_PNS_16__hash_node_baseIPNS_11__hash_nodeINS_17__hash_value_typeIi6PacketEEPvEEEENS_25__bucket_list_deallocatorINS_9allocatorISA_EEEEE11get_deleterB7v160006Ev, symObjAddr: 0x5310, symBinAddr: 0x1000079A0, symSize: 0x20 }
  - { offsetInCU: 0x106E2, offset: 0x106E2, size: 0x8, addend: 0x0, symName: __ZNSt3__110unique_ptrIA_PNS_16__hash_node_baseIPNS_11__hash_nodeINS_17__hash_value_typeIi6PacketEEPvEEEENS_25__bucket_list_deallocatorINS_9allocatorISA_EEEEE5resetB7v160006IPSA_EENS_9enable_ifIXsr28_CheckArrayPointerConversionIT_EE5valueEvE4typeESK_, symObjAddr: 0x5330, symBinAddr: 0x1000079C0, symSize: 0x70 }
  - { offsetInCU: 0x1072E, offset: 0x1072E, size: 0x8, addend: 0x0, symName: __ZNSt3__116allocator_traitsINS_9allocatorIPNS_16__hash_node_baseIPNS_11__hash_nodeINS_17__hash_value_typeIi6PacketEEPvEEEEEEE8allocateB7v160006ERSC_m, symObjAddr: 0x53A0, symBinAddr: 0x100007A30, symSize: 0x30 }
  - { offsetInCU: 0x10761, offset: 0x10761, size: 0x8, addend: 0x0, symName: __ZNSt3__19allocatorIPNS_16__hash_node_baseIPNS_11__hash_nodeINS_17__hash_value_typeIi6PacketEEPvEEEEE8allocateB7v160006Em, symObjAddr: 0x53D0, symBinAddr: 0x100007A60, symSize: 0x50 }
  - { offsetInCU: 0x1079E, offset: 0x1079E, size: 0x8, addend: 0x0, symName: __ZNSt3__116allocator_traitsINS_9allocatorIPNS_16__hash_node_baseIPNS_11__hash_nodeINS_17__hash_value_typeIi6PacketEEPvEEEEEEE8max_sizeB7v160006ISC_vvEEmRKSC_, symObjAddr: 0x5420, symBinAddr: 0x100007AB0, symSize: 0x20 }
  - { offsetInCU: 0x107CA, offset: 0x107CA, size: 0x8, addend: 0x0, symName: __ZNSt3__115__hash_iteratorIPNS_11__hash_nodeINS_17__hash_value_typeIi6PacketEEPvEEEC2B7v160006EPNS_16__hash_node_baseIS7_EEPKv, symObjAddr: 0x5460, symBinAddr: 0x100007AF0, symSize: 0x20 }
  - { offsetInCU: 0x10811, offset: 0x10811, size: 0x8, addend: 0x0, symName: __ZNSt3__14pairINS_15__hash_iteratorIPNS_11__hash_nodeINS_17__hash_value_typeIi6PacketEEPvEEEEbEC2B7v160006IS9_RbLS6_0EEEOT_OT0_, symObjAddr: 0x5480, symBinAddr: 0x100007B10, symSize: 0x30 }
  - { offsetInCU: 0x1086D, offset: 0x1086D, size: 0x8, addend: 0x0, symName: __ZNSt3__112__hash_tableINS_17__hash_value_typeIi6PacketEENS_22__unordered_map_hasherIiS3_NS_4hashIiEENS_8equal_toIiEELb1EEENS_21__unordered_map_equalIiS3_S8_S6_Lb1EEENS_9allocatorIS3_EEE25__emplace_unique_key_argsIiJRKNS_4pairIKiS2_EEEEENSG_INS_15__hash_iteratorIPNS_11__hash_nodeIS3_PvEEEEbEERKT_DpOT0_, symObjAddr: 0x54B0, symBinAddr: 0x100007B40, symSize: 0x590 }
  - { offsetInCU: 0x1094B, offset: 0x1094B, size: 0x8, addend: 0x0, symName: __ZNSt3__122__hash_key_value_typesINS_17__hash_value_typeIi6PacketEEE9__get_keyB7v160006ERKNS_4pairIKiS2_EE, symObjAddr: 0x5A40, symBinAddr: 0x1000080D0, symSize: 0x10 }
  - { offsetInCU: 0x1096E, offset: 0x1096E, size: 0x8, addend: 0x0, symName: __ZNKSt3__122__unordered_map_hasherIiNS_17__hash_value_typeIi6PacketEENS_4hashIiEENS_8equal_toIiEELb1EEclB7v160006ERKi, symObjAddr: 0x5A50, symBinAddr: 0x1000080E0, symSize: 0x30 }
  - { offsetInCU: 0x109A2, offset: 0x109A2, size: 0x8, addend: 0x0, symName: __ZNKSt3__121__unordered_map_equalIiNS_17__hash_value_typeIi6PacketEENS_8equal_toIiEENS_4hashIiEELb1EEclB7v160006ERKS3_RKi, symObjAddr: 0x5A80, symBinAddr: 0x100008110, symSize: 0x40 }
  - { offsetInCU: 0x109E4, offset: 0x109E4, size: 0x8, addend: 0x0, symName: __ZNSt3__112__hash_tableINS_17__hash_value_typeIi6PacketEENS_22__unordered_map_hasherIiS3_NS_4hashIiEENS_8equal_toIiEELb1EEENS_21__unordered_map_equalIiS3_S8_S6_Lb1EEENS_9allocatorIS3_EEE21__construct_node_hashIRKNS_4pairIKiS2_EEJEEENS_10unique_ptrINS_11__hash_nodeIS3_PvEENS_22__hash_node_destructorINSC_ISO_EEEEEEmOT_DpOT0_, symObjAddr: 0x5AC0, symBinAddr: 0x100008150, symSize: 0x140 }
  - { offsetInCU: 0x10A56, offset: 0x10A56, size: 0x8, addend: 0x0, symName: __ZNKSt3__110unique_ptrINS_11__hash_nodeINS_17__hash_value_typeIi6PacketEEPvEENS_22__hash_node_destructorINS_9allocatorIS6_EEEEEptB7v160006Ev, symObjAddr: 0x5C00, symBinAddr: 0x100008290, symSize: 0x20 }
  - { offsetInCU: 0x10A7B, offset: 0x10A7B, size: 0x8, addend: 0x0, symName: __ZNKSt3__110unique_ptrINS_11__hash_nodeINS_17__hash_value_typeIi6PacketEEPvEENS_22__hash_node_destructorINS_9allocatorIS6_EEEEE3getB7v160006Ev, symObjAddr: 0x5C20, symBinAddr: 0x1000082B0, symSize: 0x20 }
  - { offsetInCU: 0x10AA0, offset: 0x10AA0, size: 0x8, addend: 0x0, symName: __ZNSt3__110unique_ptrINS_11__hash_nodeINS_17__hash_value_typeIi6PacketEEPvEENS_22__hash_node_destructorINS_9allocatorIS6_EEEEE7releaseB7v160006Ev, symObjAddr: 0x5C40, symBinAddr: 0x1000082D0, symSize: 0x40 }
  - { offsetInCU: 0x10AD4, offset: 0x10AD4, size: 0x8, addend: 0x0, symName: __ZNSt3__110unique_ptrINS_11__hash_nodeINS_17__hash_value_typeIi6PacketEEPvEENS_22__hash_node_destructorINS_9allocatorIS6_EEEEED1B7v160006Ev, symObjAddr: 0x5C80, symBinAddr: 0x100008310, symSize: 0x20 }
  - { offsetInCU: 0x10AFD, offset: 0x10AFD, size: 0x8, addend: 0x0, symName: __ZNSt3__116allocator_traitsINS_9allocatorINS_11__hash_nodeINS_17__hash_value_typeIi6PacketEEPvEEEEE8allocateB7v160006ERS8_m, symObjAddr: 0x5CA0, symBinAddr: 0x100008330, symSize: 0x30 }
  - { offsetInCU: 0x10B30, offset: 0x10B30, size: 0x8, addend: 0x0, symName: __ZNSt3__122__hash_node_destructorINS_9allocatorINS_11__hash_nodeINS_17__hash_value_typeIi6PacketEEPvEEEEEC1B7v160006ERS8_b, symObjAddr: 0x5CD0, symBinAddr: 0x100008360, symSize: 0x40 }
  - { offsetInCU: 0x10B7C, offset: 0x10B7C, size: 0x8, addend: 0x0, symName: __ZNSt3__110unique_ptrINS_11__hash_nodeINS_17__hash_value_typeIi6PacketEEPvEENS_22__hash_node_destructorINS_9allocatorIS6_EEEEEC1B7v160006ILb1EvEEPS6_NS_16__dependent_typeINS_27__unique_ptr_deleter_sfinaeISA_EEXT_EE20__good_rval_ref_typeE, symObjAddr: 0x5D10, symBinAddr: 0x1000083A0, symSize: 0x30 }
  - { offsetInCU: 0x10BCC, offset: 0x10BCC, size: 0x8, addend: 0x0, symName: __ZNSt3__116allocator_traitsINS_9allocatorINS_11__hash_nodeINS_17__hash_value_typeIi6PacketEEPvEEEEE9constructB7v160006INS_4pairIKiS4_EEJRKSD_EvvEEvRS8_PT_DpOT0_, symObjAddr: 0x5D40, symBinAddr: 0x1000083D0, symSize: 0x30 }
  - { offsetInCU: 0x10C21, offset: 0x10C21, size: 0x8, addend: 0x0, symName: __ZNSt3__110unique_ptrINS_11__hash_nodeINS_17__hash_value_typeIi6PacketEEPvEENS_22__hash_node_destructorINS_9allocatorIS6_EEEEE11get_deleterB7v160006Ev, symObjAddr: 0x5D70, symBinAddr: 0x100008400, symSize: 0x20 }
  - { offsetInCU: 0x10C46, offset: 0x10C46, size: 0x8, addend: 0x0, symName: __ZNSt3__19allocatorINS_11__hash_nodeINS_17__hash_value_typeIi6PacketEEPvEEE8allocateB7v160006Em, symObjAddr: 0x5D90, symBinAddr: 0x100008420, symSize: 0x50 }
  - { offsetInCU: 0x10C83, offset: 0x10C83, size: 0x8, addend: 0x0, symName: __ZNSt3__116allocator_traitsINS_9allocatorINS_11__hash_nodeINS_17__hash_value_typeIi6PacketEEPvEEEEE8max_sizeB7v160006IS8_vvEEmRKS8_, symObjAddr: 0x5DE0, symBinAddr: 0x100008470, symSize: 0x30 }
  - { offsetInCU: 0x10CAF, offset: 0x10CAF, size: 0x8, addend: 0x0, symName: __ZNSt3__122__hash_node_destructorINS_9allocatorINS_11__hash_nodeINS_17__hash_value_typeIi6PacketEEPvEEEEEC2B7v160006ERS8_b, symObjAddr: 0x5E10, symBinAddr: 0x1000084A0, symSize: 0x30 }
  - { offsetInCU: 0x10CF6, offset: 0x10CF6, size: 0x8, addend: 0x0, symName: __ZNSt3__110unique_ptrINS_11__hash_nodeINS_17__hash_value_typeIi6PacketEEPvEENS_22__hash_node_destructorINS_9allocatorIS6_EEEEEC2B7v160006ILb1EvEEPS6_NS_16__dependent_typeINS_27__unique_ptr_deleter_sfinaeISA_EEXT_EE20__good_rval_ref_typeE, symObjAddr: 0x5E40, symBinAddr: 0x1000084D0, symSize: 0x40 }
  - { offsetInCU: 0x10D46, offset: 0x10D46, size: 0x8, addend: 0x0, symName: __ZNSt3__117__compressed_pairIPNS_11__hash_nodeINS_17__hash_value_typeIi6PacketEEPvEENS_22__hash_node_destructorINS_9allocatorIS6_EEEEEC1B7v160006IRS7_SB_EEOT_OT0_, symObjAddr: 0x5E80, symBinAddr: 0x100008510, symSize: 0x30 }
  - { offsetInCU: 0x10D9D, offset: 0x10D9D, size: 0x8, addend: 0x0, symName: __ZNSt3__117__compressed_pairIPNS_11__hash_nodeINS_17__hash_value_typeIi6PacketEEPvEENS_22__hash_node_destructorINS_9allocatorIS6_EEEEEC2B7v160006IRS7_SB_EEOT_OT0_, symObjAddr: 0x5EB0, symBinAddr: 0x100008540, symSize: 0x40 }
  - { offsetInCU: 0x10DF4, offset: 0x10DF4, size: 0x8, addend: 0x0, symName: __ZNSt3__122__compressed_pair_elemIPNS_11__hash_nodeINS_17__hash_value_typeIi6PacketEEPvEELi0ELb0EEC2B7v160006IRS7_vEEOT_, symObjAddr: 0x5EF0, symBinAddr: 0x100008580, symSize: 0x20 }
  - { offsetInCU: 0x10E35, offset: 0x10E35, size: 0x8, addend: 0x0, symName: __ZNSt3__122__compressed_pair_elemINS_22__hash_node_destructorINS_9allocatorINS_11__hash_nodeINS_17__hash_value_typeIi6PacketEEPvEEEEEELi1ELb0EEC2B7v160006ISA_vEEOT_, symObjAddr: 0x5F10, symBinAddr: 0x1000085A0, symSize: 0x30 }
  - { offsetInCU: 0x10E76, offset: 0x10E76, size: 0x8, addend: 0x0, symName: __ZNSt3__14pairIKi6PacketEC1ERKS3_, symObjAddr: 0x5F80, symBinAddr: 0x100008610, symSize: 0x30 }
  - { offsetInCU: 0x10EA9, offset: 0x10EA9, size: 0x8, addend: 0x0, symName: __ZNSt3__14pairIKi6PacketEC2ERKS3_, symObjAddr: 0x5FB0, symBinAddr: 0x100008640, symSize: 0x40 }
  - { offsetInCU: 0x10EDC, offset: 0x10EDC, size: 0x8, addend: 0x0, symName: __ZNSt3__117__compressed_pairIPNS_11__hash_nodeINS_17__hash_value_typeIi6PacketEEPvEENS_22__hash_node_destructorINS_9allocatorIS6_EEEEE6secondB7v160006Ev, symObjAddr: 0x5FF0, symBinAddr: 0x100008680, symSize: 0x20 }
  - { offsetInCU: 0x10F01, offset: 0x10F01, size: 0x8, addend: 0x0, symName: __ZNSt3__122__compressed_pair_elemINS_22__hash_node_destructorINS_9allocatorINS_11__hash_nodeINS_17__hash_value_typeIi6PacketEEPvEEEEEELi1ELb0EE5__getB7v160006Ev, symObjAddr: 0x6010, symBinAddr: 0x1000086A0, symSize: 0x10 }
  - { offsetInCU: 0x10F26, offset: 0x10F26, size: 0x8, addend: 0x0, symName: __ZNKSt3__117__compressed_pairIPNS_11__hash_nodeINS_17__hash_value_typeIi6PacketEEPvEENS_22__hash_node_destructorINS_9allocatorIS6_EEEEE5firstB7v160006Ev, symObjAddr: 0x6020, symBinAddr: 0x1000086B0, symSize: 0x20 }
  - { offsetInCU: 0x10F4B, offset: 0x10F4B, size: 0x8, addend: 0x0, symName: __ZNKSt3__122__compressed_pair_elemIPNS_11__hash_nodeINS_17__hash_value_typeIi6PacketEEPvEELi0ELb0EE5__getB7v160006Ev, symObjAddr: 0x6040, symBinAddr: 0x1000086D0, symSize: 0x10 }
  - { offsetInCU: 0x10F70, offset: 0x10F70, size: 0x8, addend: 0x0, symName: __ZNSt3__117__compressed_pairIPNS_11__hash_nodeINS_17__hash_value_typeIi6PacketEEPvEENS_22__hash_node_destructorINS_9allocatorIS6_EEEEE5firstB7v160006Ev, symObjAddr: 0x6050, symBinAddr: 0x1000086E0, symSize: 0x20 }
  - { offsetInCU: 0x10F95, offset: 0x10F95, size: 0x8, addend: 0x0, symName: __ZNSt3__122__compressed_pair_elemIPNS_11__hash_nodeINS_17__hash_value_typeIi6PacketEEPvEELi0ELb0EE5__getB7v160006Ev, symObjAddr: 0x6070, symBinAddr: 0x100008700, symSize: 0x10 }
  - { offsetInCU: 0x10FBA, offset: 0x10FBA, size: 0x8, addend: 0x0, symName: __ZNSt3__110unique_ptrINS_11__hash_nodeINS_17__hash_value_typeIi6PacketEEPvEENS_22__hash_node_destructorINS_9allocatorIS6_EEEEED2B7v160006Ev, symObjAddr: 0x6080, symBinAddr: 0x100008710, symSize: 0x20 }
  - { offsetInCU: 0x10FE3, offset: 0x10FE3, size: 0x8, addend: 0x0, symName: __ZNSt3__110unique_ptrINS_11__hash_nodeINS_17__hash_value_typeIi6PacketEEPvEENS_22__hash_node_destructorINS_9allocatorIS6_EEEEE5resetB7v160006EPS6_, symObjAddr: 0x60A0, symBinAddr: 0x100008730, symSize: 0x70 }
  - { offsetInCU: 0x11026, offset: 0x11026, size: 0x8, addend: 0x0, symName: __ZNSt3__122__hash_node_destructorINS_9allocatorINS_11__hash_nodeINS_17__hash_value_typeIi6PacketEEPvEEEEEclB7v160006EPS7_, symObjAddr: 0x6110, symBinAddr: 0x1000087A0, symSize: 0x88 }
  - { offsetInCU: 0x3F, offset: 0x111F6, size: 0x8, addend: 0x0, symName: __ZL17loadBalancerIndex, symObjAddr: 0x22364, symBinAddr: 0x10002C0C4, symSize: 0x0 }
  - { offsetInCU: 0x4003, offset: 0x151BA, size: 0x8, addend: 0x0, symName: __ZNSt3__122__make_exception_guardB7v160006INS_6vectorI4PathNS_9allocatorIS2_EEE16__destroy_vectorEEENS_28__exception_guard_exceptionsIT_EES8_, symObjAddr: 0x510, symBinAddr: 0x100008CD0, symSize: 0x40 }
  - { offsetInCU: 0x4038, offset: 0x151EF, size: 0x8, addend: 0x0, symName: __ZNSt3__116__do_string_hashB7v160006IPKcEEmT_S3_, symObjAddr: 0x1AA0, symBinAddr: 0x100008E30, symSize: 0x40 }
  - { offsetInCU: 0x407E, offset: 0x15235, size: 0x8, addend: 0x0, symName: __ZNSt3__110__loadwordB7v160006ImEET_PKv, symObjAddr: 0x2410, symBinAddr: 0x1000097A0, symSize: 0x20 }
  - { offsetInCU: 0x40C1, offset: 0x15278, size: 0x8, addend: 0x0, symName: __ZNSt3__14swapB7v160006ImEENS_9enable_ifIXaasr21is_move_constructibleIT_EE5valuesr18is_move_assignableIS2_EE5valueEvE4typeERS2_S5_, symObjAddr: 0x25D0, symBinAddr: 0x100009960, symSize: 0x40 }
  - { offsetInCU: 0x4112, offset: 0x152C9, size: 0x8, addend: 0x0, symName: __ZNSt3__110__loadwordB7v160006IjEET_PKv, symObjAddr: 0x2660, symBinAddr: 0x1000099F0, symSize: 0x20 }
  - { offsetInCU: 0x4155, offset: 0x1530C, size: 0x8, addend: 0x0, symName: __ZNSt3__112__to_addressB7v160006IKcEEPT_S3_, symObjAddr: 0x27B0, symBinAddr: 0x100009B40, symSize: 0x10 }
  - { offsetInCU: 0x61FE, offset: 0x173B5, size: 0x8, addend: 0x0, symName: __Z15least_bandwidthNSt3__16vectorI4PathNS_9allocatorIS1_EEEE, symObjAddr: 0x0, symBinAddr: 0x100008830, symSize: 0xA0 }
  - { offsetInCU: 0x6264, offset: 0x1741B, size: 0x8, addend: 0x0, symName: __ZNSt3__114numeric_limitsIiE3minB7v160006Ev, symObjAddr: 0xA0, symBinAddr: 0x1000088D0, symSize: 0x10 }
  - { offsetInCU: 0x6278, offset: 0x1742F, size: 0x8, addend: 0x0, symName: __ZNSt3__16vectorI4PathNS_9allocatorIS1_EEEixB7v160006Em, symObjAddr: 0xE0, symBinAddr: 0x1000088E0, symSize: 0x20 }
  - { offsetInCU: 0x62AC, offset: 0x17463, size: 0x8, addend: 0x0, symName: __Z20weighted_round_robinNSt3__16vectorI4PathNS_9allocatorIS1_EEEE, symObjAddr: 0x100, symBinAddr: 0x100008900, symSize: 0x40 }
  - { offsetInCU: 0x62F5, offset: 0x174AC, size: 0x8, addend: 0x0, symName: __Z7IP_HashNSt3__16vectorI4PathNS_9allocatorIS1_EEEENS_12basic_stringIcNS_11char_traitsIcEENS2_IcEEEE, symObjAddr: 0x140, symBinAddr: 0x100008940, symSize: 0x50 }
  - { offsetInCU: 0x6366, offset: 0x1751D, size: 0x8, addend: 0x0, symName: __ZNKSt3__113__string_hashIcNS_9allocatorIcEEEclERKNS_12basic_stringIcNS_11char_traitsIcEES2_EE, symObjAddr: 0x190, symBinAddr: 0x100008990, symSize: 0x60 }
  - { offsetInCU: 0x63C4, offset: 0x1757B, size: 0x8, addend: 0x0, symName: __ZN13load_balancer7balanceENSt3__16vectorI4PathNS0_9allocatorIS2_EEEENS0_12basic_stringIcNS0_11char_traitsIcEENS3_IcEEEEi, symObjAddr: 0x1F0, symBinAddr: 0x1000089F0, symSize: 0x150 }
  - { offsetInCU: 0x6407, offset: 0x175BE, size: 0x8, addend: 0x0, symName: __ZNSt3__16vectorI4PathNS_9allocatorIS1_EEEC1ERKS4_, symObjAddr: 0x340, symBinAddr: 0x100008B40, symSize: 0x30 }
  - { offsetInCU: 0x6441, offset: 0x175F8, size: 0x8, addend: 0x0, symName: __ZNSt3__123__libcpp_numeric_limitsIiLb1EE3minB7v160006Ev, symObjAddr: 0x390, symBinAddr: 0x100008B70, symSize: 0x10 }
  - { offsetInCU: 0x6455, offset: 0x1760C, size: 0x8, addend: 0x0, symName: __ZNSt3__16vectorI4PathNS_9allocatorIS1_EEEC2ERKS4_, symObjAddr: 0x3A0, symBinAddr: 0x100008B80, symSize: 0x110 }
  - { offsetInCU: 0x64BF, offset: 0x17676, size: 0x8, addend: 0x0, symName: __ZNSt3__116allocator_traitsINS_9allocatorI4PathEEE37select_on_container_copy_constructionB7v160006IS3_vvEES3_RKS3_, symObjAddr: 0x4B0, symBinAddr: 0x100008C90, symSize: 0x10 }
  - { offsetInCU: 0x64F8, offset: 0x176AF, size: 0x8, addend: 0x0, symName: __ZNSt3__117__compressed_pairIP4PathNS_9allocatorIS1_EEEC1B7v160006IDnS4_EEOT_OT0_, symObjAddr: 0x4E0, symBinAddr: 0x100008CA0, symSize: 0x30 }
  - { offsetInCU: 0x654F, offset: 0x17706, size: 0x8, addend: 0x0, symName: __ZNSt3__128__exception_guard_exceptionsINS_6vectorI4PathNS_9allocatorIS2_EEE16__destroy_vectorEE10__completeB7v160006Ev, symObjAddr: 0x6C0, symBinAddr: 0x100008D10, symSize: 0x20 }
  - { offsetInCU: 0x6574, offset: 0x1772B, size: 0x8, addend: 0x0, symName: __ZNSt3__128__exception_guard_exceptionsINS_6vectorI4PathNS_9allocatorIS2_EEE16__destroy_vectorEED1B7v160006Ev, symObjAddr: 0x6E0, symBinAddr: 0x100008D30, symSize: 0x20 }
  - { offsetInCU: 0x659D, offset: 0x17754, size: 0x8, addend: 0x0, symName: __ZNSt3__117__compressed_pairIP4PathNS_9allocatorIS1_EEEC2B7v160006IDnS4_EEOT_OT0_, symObjAddr: 0x730, symBinAddr: 0x100008D50, symSize: 0x40 }
  - { offsetInCU: 0x65F4, offset: 0x177AB, size: 0x8, addend: 0x0, symName: __ZNSt3__122__compressed_pair_elemINS_9allocatorI4PathEELi1ELb1EEC2B7v160006IS3_vEEOT_, symObjAddr: 0x790, symBinAddr: 0x100008D90, symSize: 0x10 }
  - { offsetInCU: 0x6635, offset: 0x177EC, size: 0x8, addend: 0x0, symName: __ZNSt3__128__exception_guard_exceptionsINS_6vectorI4PathNS_9allocatorIS2_EEE16__destroy_vectorEEC1B7v160006ES6_, symObjAddr: 0x7A0, symBinAddr: 0x100008DA0, symSize: 0x30 }
  - { offsetInCU: 0x666C, offset: 0x17823, size: 0x8, addend: 0x0, symName: __ZNSt3__128__exception_guard_exceptionsINS_6vectorI4PathNS_9allocatorIS2_EEE16__destroy_vectorEEC2B7v160006ES6_, symObjAddr: 0x7D0, symBinAddr: 0x100008DD0, symSize: 0x20 }
  - { offsetInCU: 0x66C1, offset: 0x17878, size: 0x8, addend: 0x0, symName: __ZNSt3__128__exception_guard_exceptionsINS_6vectorI4PathNS_9allocatorIS2_EEE16__destroy_vectorEED2B7v160006Ev, symObjAddr: 0x16C0, symBinAddr: 0x100008DF0, symSize: 0x40 }
  - { offsetInCU: 0x66EA, offset: 0x178A1, size: 0x8, addend: 0x0, symName: __ZNKSt3__112basic_stringIcNS_11char_traitsIcEENS_9allocatorIcEEE4dataB7v160006Ev, symObjAddr: 0x1AE0, symBinAddr: 0x100008E70, symSize: 0x30 }
  - { offsetInCU: 0x670F, offset: 0x178C6, size: 0x8, addend: 0x0, symName: __ZNKSt3__112basic_stringIcNS_11char_traitsIcEENS_9allocatorIcEEE4sizeB7v160006Ev, symObjAddr: 0x1B10, symBinAddr: 0x100008EA0, symSize: 0x50 }
  - { offsetInCU: 0x6734, offset: 0x178EB, size: 0x8, addend: 0x0, symName: __ZNSt3__121__murmur2_or_cityhashImLm64EEclEPKvm, symObjAddr: 0x1B60, symBinAddr: 0x100008EF0, symSize: 0x3D0 }
  - { offsetInCU: 0x67CC, offset: 0x17983, size: 0x8, addend: 0x0, symName: __ZNSt3__121__murmur2_or_cityhashImLm64EE18__hash_len_0_to_16EPKcm, symObjAddr: 0x1F30, symBinAddr: 0x1000092C0, symSize: 0x180 }
  - { offsetInCU: 0x68A5, offset: 0x17A5C, size: 0x8, addend: 0x0, symName: __ZNSt3__121__murmur2_or_cityhashImLm64EE19__hash_len_17_to_32EPKcm, symObjAddr: 0x20B0, symBinAddr: 0x100009440, symSize: 0x100 }
  - { offsetInCU: 0x690E, offset: 0x17AC5, size: 0x8, addend: 0x0, symName: __ZNSt3__121__murmur2_or_cityhashImLm64EE19__hash_len_33_to_64EPKcm, symObjAddr: 0x21B0, symBinAddr: 0x100009540, symSize: 0x260 }
  - { offsetInCU: 0x69C0, offset: 0x17B77, size: 0x8, addend: 0x0, symName: __ZNSt3__121__murmur2_or_cityhashImLm64EE13__hash_len_16Emm, symObjAddr: 0x2430, symBinAddr: 0x1000097C0, symSize: 0x90 }
  - { offsetInCU: 0x6A1B, offset: 0x17BD2, size: 0x8, addend: 0x0, symName: __ZNSt3__121__murmur2_or_cityhashImLm64EE29__weak_hash_len_32_with_seedsEPKcmm, symObjAddr: 0x24C0, symBinAddr: 0x100009850, symSize: 0x90 }
  - { offsetInCU: 0x6A5A, offset: 0x17C11, size: 0x8, addend: 0x0, symName: __ZNSt3__121__murmur2_or_cityhashImLm64EE8__rotateEmi, symObjAddr: 0x2550, symBinAddr: 0x1000098E0, symSize: 0x50 }
  - { offsetInCU: 0x6A8B, offset: 0x17C42, size: 0x8, addend: 0x0, symName: __ZNSt3__14pairImmEaSB7v160006EOS1_, symObjAddr: 0x25A0, symBinAddr: 0x100009930, symSize: 0x30 }
  - { offsetInCU: 0x6ABF, offset: 0x17C76, size: 0x8, addend: 0x0, symName: __ZNSt3__121__murmur2_or_cityhashImLm64EE11__shift_mixEm, symObjAddr: 0x2610, symBinAddr: 0x1000099A0, symSize: 0x20 }
  - { offsetInCU: 0x6AE2, offset: 0x17C99, size: 0x8, addend: 0x0, symName: __ZNSt3__121__murmur2_or_cityhashImLm64EE22__rotate_by_at_least_1Emi, symObjAddr: 0x2630, symBinAddr: 0x1000099C0, symSize: 0x30 }
  - { offsetInCU: 0x6B13, offset: 0x17CCA, size: 0x8, addend: 0x0, symName: __ZNSt3__121__murmur2_or_cityhashImLm64EE29__weak_hash_len_32_with_seedsEmmmmmm, symObjAddr: 0x2680, symBinAddr: 0x100009A10, symSize: 0xD0 }
  - { offsetInCU: 0x6B90, offset: 0x17D47, size: 0x8, addend: 0x0, symName: __ZNSt3__14pairImmEC1B7v160006ImmLPv0EEEOT_OT0_, symObjAddr: 0x2750, symBinAddr: 0x100009AE0, symSize: 0x30 }
  - { offsetInCU: 0x6BED, offset: 0x17DA4, size: 0x8, addend: 0x0, symName: __ZNSt3__14pairImmEC2B7v160006ImmLPv0EEEOT_OT0_, symObjAddr: 0x2780, symBinAddr: 0x100009B10, symSize: 0x30 }
  - { offsetInCU: 0x6C4A, offset: 0x17E01, size: 0x8, addend: 0x0, symName: __ZNKSt3__112basic_stringIcNS_11char_traitsIcEENS_9allocatorIcEEE13__get_pointerB7v160006Ev, symObjAddr: 0x27C0, symBinAddr: 0x100009B50, symSize: 0x50 }
  - { offsetInCU: 0x6C6F, offset: 0x17E26, size: 0x8, addend: 0x0, symName: __ZNKSt3__112basic_stringIcNS_11char_traitsIcEENS_9allocatorIcEEE18__get_long_pointerB7v160006Ev, symObjAddr: 0x2840, symBinAddr: 0x100009BA0, symSize: 0x20 }
  - { offsetInCU: 0x6C94, offset: 0x17E4B, size: 0x8, addend: 0x0, symName: __ZNKSt3__112basic_stringIcNS_11char_traitsIcEENS_9allocatorIcEEE19__get_short_pointerB7v160006Ev, symObjAddr: 0x2860, symBinAddr: 0x100009BC0, symSize: 0x30 }
  - { offsetInCU: 0x6CB9, offset: 0x17E70, size: 0x8, addend: 0x0, symName: __ZNSt3__114pointer_traitsIPKcE10pointer_toB7v160006ERS1_, symObjAddr: 0x28C0, symBinAddr: 0x100009BF0, symSize: 0x10 }
  - { offsetInCU: 0x6CDC, offset: 0x17E93, size: 0x8, addend: 0x0, symName: __ZNKSt3__112basic_stringIcNS_11char_traitsIcEENS_9allocatorIcEEE15__get_long_sizeB7v160006Ev, symObjAddr: 0x28D0, symBinAddr: 0x100009C00, symSize: 0x20 }
  - { offsetInCU: 0x6D01, offset: 0x17EB8, size: 0x8, addend: 0x0, symName: __ZNKSt3__112basic_stringIcNS_11char_traitsIcEENS_9allocatorIcEEE16__get_short_sizeB7v160006Ev, symObjAddr: 0x28F0, symBinAddr: 0x100009C20, symSize: 0x23 }
  - { offsetInCU: 0x3F, offset: 0x17F48, size: 0x8, addend: 0x0, symName: _all_paths, symObjAddr: 0x15B960, symBinAddr: 0x10002C0C8, symSize: 0x0 }
  - { offsetInCU: 0x174CD, offset: 0x2F3D6, size: 0x8, addend: 0x0, symName: __ZNSt3__1L19piecewise_constructE, symObjAddr: 0x21C60, symBinAddr: 0x100027148, symSize: 0x0 }
  - { offsetInCU: 0x17EFE, offset: 0x2FE07, size: 0x8, addend: 0x0, symName: __ZNSt3__16chronomiB7v160006IxNS_5ratioILl1ELl1000000000EEExS3_EENS_11common_typeIJNS0_8durationIT_T0_EENS5_IT1_T2_EEEE4typeERKS8_RKSB_, symObjAddr: 0x101D0, symBinAddr: 0x100015A00, symSize: 0x70 }
  - { offsetInCU: 0x18254, offset: 0x3015D, size: 0x8, addend: 0x0, symName: __ZNSt3__16chrono13duration_castB7v160006INS0_8durationIxNS_5ratioILl1ELl1000EEEEExNS3_ILl1ELl1000000000EEEEENS_9enable_ifIXsr13__is_durationIT_EE5valueES8_E4typeERKNS2_IT0_T1_EE, symObjAddr: 0x3480, symBinAddr: 0x10000CFC0, symSize: 0x30 }
  - { offsetInCU: 0x1829B, offset: 0x301A4, size: 0x8, addend: 0x0, symName: __ZNSt3__16chronomiB7v160006INS0_12steady_clockENS0_8durationIxNS_5ratioILl1ELl1000000000EEEEES6_EENS_11common_typeIJT0_T1_EE4typeERKNS0_10time_pointIT_S8_EERKNSC_ISD_S9_EE, symObjAddr: 0x34B0, symBinAddr: 0x10000CFF0, symSize: 0x50 }
  - { offsetInCU: 0x183E4, offset: 0x302ED, size: 0x8, addend: 0x0, symName: __ZNSt3__16chronogtB7v160006IxNS_5ratioILl1ELl1EEExS3_EEbRKNS0_8durationIT_T0_EERKNS4_IT1_T2_EE, symObjAddr: 0x1B4B0, symBinAddr: 0x10001FE10, symSize: 0x30 }
  - { offsetInCU: 0x18445, offset: 0x3034E, size: 0x8, addend: 0x0, symName: __ZNSt3__16chronoltB7v160006IxNS_5ratioILl1ELl1EEEeS3_EEbRKNS0_8durationIT_T0_EERKNS4_IT1_T2_EE, symObjAddr: 0x1B520, symBinAddr: 0x10001FE80, symSize: 0x30 }
  - { offsetInCU: 0x184A6, offset: 0x303AF, size: 0x8, addend: 0x0, symName: __ZNSt3__16chrono13duration_castB7v160006INS0_8durationIxNS_5ratioILl1ELl1000000000EEEEExNS3_ILl1ELl1EEEEENS_9enable_ifIXsr13__is_durationIT_EE5valueES8_E4typeERKNS2_IT0_T1_EE, symObjAddr: 0x1B550, symBinAddr: 0x10001FEB0, symSize: 0x30 }
  - { offsetInCU: 0x184ED, offset: 0x303F6, size: 0x8, addend: 0x0, symName: __ZNSt3__16chronoltB7v160006IxNS_5ratioILl1ELl1000000000EEExNS2_ILl1ELl1EEEEEbRKNS0_8durationIT_T0_EERKNS5_IT1_T2_EE, symObjAddr: 0x1B580, symBinAddr: 0x10001FEE0, symSize: 0x30 }
  - { offsetInCU: 0x1854E, offset: 0x30457, size: 0x8, addend: 0x0, symName: __ZNSt3__16chronoltB7v160006IxNS_5ratioILl1ELl1EEExS3_EEbRKNS0_8durationIT_T0_EERKNS4_IT1_T2_EE, symObjAddr: 0x1B610, symBinAddr: 0x10001FF70, symSize: 0x30 }
  - { offsetInCU: 0x1862C, offset: 0x30535, size: 0x8, addend: 0x0, symName: __ZNSt3__16chrono13duration_castB7v160006INS0_8durationIeNS_5ratioILl1ELl1EEEEExS4_EENS_9enable_ifIXsr13__is_durationIT_EE5valueES7_E4typeERKNS2_IT0_T1_EE, symObjAddr: 0x1B7F0, symBinAddr: 0x100020150, symSize: 0x30 }
  - { offsetInCU: 0x19685, offset: 0x3158E, size: 0x8, addend: 0x0, symName: __ZNSt3__17advanceB7v160006IPNS_12basic_stringIcNS_11char_traitsIcEENS_9allocatorIcEEEEllvEEvRT_T0_, symObjAddr: 0x5300, symBinAddr: 0x10000EA40, symSize: 0x50 }
  - { offsetInCU: 0x19B1B, offset: 0x31A24, size: 0x8, addend: 0x0, symName: __ZNSt3__17advanceB7v160006IPNS_6vectorINS_12basic_stringIcNS_11char_traitsIcEENS_9allocatorIcEEEENS5_IS7_EEEEllvEEvRT_T0_, symObjAddr: 0x65B0, symBinAddr: 0x10000FCE0, symSize: 0x50 }
  - { offsetInCU: 0x19B86, offset: 0x31A8F, size: 0x8, addend: 0x0, symName: __ZNSt3__17advanceB7v160006IPK4PathmmvEEvRT_T0_, symObjAddr: 0x8C30, symBinAddr: 0x100010A20, symSize: 0x50 }
  - { offsetInCU: 0x1A012, offset: 0x31F1B, size: 0x8, addend: 0x0, symName: __ZNSt3__17advanceB7v160006IPKimmvEEvRT_T0_, symObjAddr: 0xAE50, symBinAddr: 0x100011700, symSize: 0x50 }
  - { offsetInCU: 0x1B3DF, offset: 0x332E8, size: 0x8, addend: 0x0, symName: __ZNSt3__17advanceB7v160006IPNS_6threadEllvEEvRT_T0_, symObjAddr: 0xF8E0, symBinAddr: 0x100015110, symSize: 0x50 }
  - { offsetInCU: 0x1B65F, offset: 0x33568, size: 0x8, addend: 0x0, symName: __ZNSt3__17advanceB7v160006INS_16reverse_iteratorIPNS_6threadEEEllvEEvRT_T0_, symObjAddr: 0xFCD0, symBinAddr: 0x100015500, symSize: 0x50 }
  - { offsetInCU: 0x1C676, offset: 0x3457F, size: 0x8, addend: 0x0, symName: __ZNSt3__124__put_character_sequenceB7v160006IcNS_11char_traitsIcEEEERNS_13basic_ostreamIT_T0_EES7_PKS4_m, symObjAddr: 0x1CEA0, symBinAddr: 0x100021800, symSize: 0x1F0 }
  - { offsetInCU: 0x1ECB9, offset: 0x36BC2, size: 0x8, addend: 0x0, symName: __ZNSt3__1neB7v160006IPNS_12basic_stringIcNS_11char_traitsIcEENS_9allocatorIcEEEEEEbRKNS_11__wrap_iterIT_EESC_, symObjAddr: 0xC30, symBinAddr: 0x10000A880, symSize: 0x30 }
  - { offsetInCU: 0x1F5E0, offset: 0x374E9, size: 0x8, addend: 0x0, symName: __ZNSt3__17getlineB7v160006IcNS_11char_traitsIcEENS_9allocatorIcEEEERNS_13basic_istreamIT_T0_EES9_RNS_12basic_stringIS6_S7_T1_EES6_, symObjAddr: 0xD80, symBinAddr: 0x10000A9D0, symSize: 0x220 }
  - { offsetInCU: 0x1F6A0, offset: 0x375A9, size: 0x8, addend: 0x0, symName: __ZNSt3__17getlineB7v160006IcNS_11char_traitsIcEENS_9allocatorIcEEEERNS_13basic_istreamIT_T0_EES9_RNS_12basic_stringIS6_S7_T1_EE, symObjAddr: 0xFA0, symBinAddr: 0x10000ABF0, symSize: 0x50 }
  - { offsetInCU: 0x1F703, offset: 0x3760C, size: 0x8, addend: 0x0, symName: __ZNSt3__1plB7v160006IcNS_11char_traitsIcEENS_9allocatorIcEEEENS_12basic_stringIT_T0_T1_EEPKS6_OS9_, symObjAddr: 0x11F0, symBinAddr: 0x10000AE20, symSize: 0x50 }
  - { offsetInCU: 0x1F792, offset: 0x3769B, size: 0x8, addend: 0x0, symName: __ZNSt3__116forward_as_tupleB7v160006IJRiEEENS_5tupleIJDpOT_EEES5_, symObjAddr: 0x1350, symBinAddr: 0x10000AF30, symSize: 0x30 }
  - { offsetInCU: 0x1F7CB, offset: 0x376D4, size: 0x8, addend: 0x0, symName: __ZNSt3__116forward_as_tupleB7v160006IJEEENS_5tupleIJDpOT_EEES4_, symObjAddr: 0x1380, symBinAddr: 0x10000AF60, symSize: 0x10 }
  - { offsetInCU: 0x1F7F5, offset: 0x376FE, size: 0x8, addend: 0x0, symName: __ZNSt3__111this_thread9sleep_forB7v160006IxNS_5ratioILl1ELl1EEEEEvRKNS_6chrono8durationIT_T0_EE, symObjAddr: 0x1820, symBinAddr: 0x10000B3C0, symSize: 0xD0 }
  - { offsetInCU: 0x1F85D, offset: 0x37766, size: 0x8, addend: 0x0, symName: __ZNSt3__13minB7v160006IiEERKT_S3_S3_, symObjAddr: 0x1920, symBinAddr: 0x10000B4C0, symSize: 0x30 }
  - { offsetInCU: 0x1F8A0, offset: 0x377A9, size: 0x8, addend: 0x0, symName: __ZNSt3__1lsB7v160006INS_11char_traitsIcEEEERNS_13basic_ostreamIcT_EES6_PKc, symObjAddr: 0x1E80, symBinAddr: 0x10000BA20, symSize: 0x40 }
  - { offsetInCU: 0x1F8E6, offset: 0x377EF, size: 0x8, addend: 0x0, symName: __ZNSt3__14endlB7v160006IcNS_11char_traitsIcEEEERNS_13basic_ostreamIT_T0_EES7_, symObjAddr: 0x1EE0, symBinAddr: 0x10000BA80, symSize: 0x50 }
  - { offsetInCU: 0x1F926, offset: 0x3782F, size: 0x8, addend: 0x0, symName: __ZNSt3__1neB7v160006ERKNS_19__hash_map_iteratorINS_15__hash_iteratorIPNS_11__hash_nodeINS_17__hash_value_typeIi6SwitchEEPvEEEEEESC_, symObjAddr: 0x1F90, symBinAddr: 0x10000BB30, symSize: 0x30 }
  - { offsetInCU: 0x1F963, offset: 0x3786C, size: 0x8, addend: 0x0, symName: __ZNSt3__1neB7v160006ERKNS_19__hash_map_iteratorINS_15__hash_iteratorIPNS_11__hash_nodeINS_17__hash_value_typeIi6PacketEEPvEEEEEESC_, symObjAddr: 0x2080, symBinAddr: 0x10000BBF0, symSize: 0x30 }
  - { offsetInCU: 0x1FBBC, offset: 0x37AC5, size: 0x8, addend: 0x0, symName: __ZNSt3__1neB7v160006IPiEEbRKNS_11__wrap_iterIT_EES6_, symObjAddr: 0x3130, symBinAddr: 0x10000CC70, symSize: 0x30 }
  - { offsetInCU: 0x1FBFF, offset: 0x37B08, size: 0x8, addend: 0x0, symName: __ZNSt3__1neB7v160006IPNS_6threadEEEbRKNS_11__wrap_iterIT_EES7_, symObjAddr: 0x3410, symBinAddr: 0x10000CF50, symSize: 0x30 }
  - { offsetInCU: 0x1FC42, offset: 0x37B4B, size: 0x8, addend: 0x0, symName: __ZNSt3__118__debug_db_erase_cB7v160006INS_6vectorINS1_IiNS_9allocatorIiEEEENS2_IS4_EEEEEEvPT_, symObjAddr: 0x3720, symBinAddr: 0x10000D250, symSize: 0x10 }
  - { offsetInCU: 0x1FC73, offset: 0x37B7C, size: 0x8, addend: 0x0, symName: __ZNSt3__112__to_addressB7v160006INS_6vectorIiNS_9allocatorIiEEEEEEPT_S6_, symObjAddr: 0x3850, symBinAddr: 0x10000D380, symSize: 0x10 }
  - { offsetInCU: 0x1FCA8, offset: 0x37BB1, size: 0x8, addend: 0x0, symName: __ZNSt3__110destroy_atB7v160006INS_6vectorIiNS_9allocatorIiEEEELi0EEEvPT_, symObjAddr: 0x3900, symBinAddr: 0x10000D430, symSize: 0x20 }
  - { offsetInCU: 0x1FCDF, offset: 0x37BE8, size: 0x8, addend: 0x0, symName: __ZNSt3__112__destroy_atB7v160006INS_6vectorIiNS_9allocatorIiEEEELi0EEEvPT_, symObjAddr: 0x3920, symBinAddr: 0x10000D450, symSize: 0x20 }
  - { offsetInCU: 0x1FD16, offset: 0x37C1F, size: 0x8, addend: 0x0, symName: __ZNSt3__118__debug_db_erase_cB7v160006INS_6vectorINS_6threadENS_9allocatorIS2_EEEEEEvPT_, symObjAddr: 0x3D00, symBinAddr: 0x10000D710, symSize: 0x10 }
  - { offsetInCU: 0x1FD47, offset: 0x37C50, size: 0x8, addend: 0x0, symName: __ZNSt3__112__to_addressB7v160006INS_6threadEEEPT_S3_, symObjAddr: 0x3E10, symBinAddr: 0x10000D820, symSize: 0x10 }
  - { offsetInCU: 0x1FD7C, offset: 0x37C85, size: 0x8, addend: 0x0, symName: __ZNSt3__110destroy_atB7v160006INS_6threadELi0EEEvPT_, symObjAddr: 0x3EC0, symBinAddr: 0x10000D8D0, symSize: 0x20 }
  - { offsetInCU: 0x1FDB3, offset: 0x37CBC, size: 0x8, addend: 0x0, symName: __ZNSt3__112__destroy_atB7v160006INS_6threadELi0EEEvPT_, symObjAddr: 0x3EE0, symBinAddr: 0x10000D8F0, symSize: 0x20 }
  - { offsetInCU: 0x1FDEA, offset: 0x37CF3, size: 0x8, addend: 0x0, symName: __ZNSt3__118__constexpr_strlenB7v160006EPKc, symObjAddr: 0x4120, symBinAddr: 0x10000DB20, symSize: 0x20 }
  - { offsetInCU: 0x1FE16, offset: 0x37D1F, size: 0x8, addend: 0x0, symName: __ZNSt3__122__make_exception_guardB7v160006INS_6vectorINS_12basic_stringIcNS_11char_traitsIcEENS_9allocatorIcEEEENS5_IS7_EEE16__destroy_vectorEEENS_28__exception_guard_exceptionsIT_EESC_, symObjAddr: 0x4290, symBinAddr: 0x10000DC90, symSize: 0x40 }
  - { offsetInCU: 0x1FE4B, offset: 0x37D54, size: 0x8, addend: 0x0, symName: __ZNSt3__119__debug_db_insert_cB7v160006INS_6vectorINS_12basic_stringIcNS_11char_traitsIcEENS_9allocatorIcEEEENS5_IS7_EEEEEEvPT_, symObjAddr: 0x4300, symBinAddr: 0x10000DD00, symSize: 0x10 }
  - { offsetInCU: 0x1FE7C, offset: 0x37D85, size: 0x8, addend: 0x0, symName: __ZNSt3__119__allocate_at_leastB7v160006INS_9allocatorINS_12basic_stringIcNS_11char_traitsIcEENS1_IcEEEEEEEENS_19__allocation_resultINS_16allocator_traitsIT_E7pointerEEERSA_m, symObjAddr: 0x4680, symBinAddr: 0x10000E080, symSize: 0x40 }
  - { offsetInCU: 0x1FEBF, offset: 0x37DC8, size: 0x8, addend: 0x0, symName: __ZNSt3__112__to_addressB7v160006INS_12basic_stringIcNS_11char_traitsIcEENS_9allocatorIcEEEEEEPT_S8_, symObjAddr: 0x4C10, symBinAddr: 0x10000E350, symSize: 0x10 }
  - { offsetInCU: 0x1FEF4, offset: 0x37DFD, size: 0x8, addend: 0x0, symName: __ZNSt3__130__uninitialized_allocator_copyB7v160006INS_9allocatorINS_12basic_stringIcNS_11char_traitsIcEENS1_IcEEEEEEPKS6_S9_PS6_EET2_RT_T0_T1_SB_, symObjAddr: 0x4CA0, symBinAddr: 0x10000E3E0, symSize: 0x100 }
  - { offsetInCU: 0x1FF92, offset: 0x37E9B, size: 0x8, addend: 0x0, symName: __ZNSt3__122__make_exception_guardB7v160006INS_29_AllocatorDestroyRangeReverseINS_9allocatorINS_12basic_stringIcNS_11char_traitsIcEENS2_IcEEEEEEPS7_EEEENS_28__exception_guard_exceptionsIT_EESC_, symObjAddr: 0x4E00, symBinAddr: 0x10000E540, symSize: 0x60 }
  - { offsetInCU: 0x1FFEC, offset: 0x37EF5, size: 0x8, addend: 0x0, symName: __ZNSt3__112construct_atB7v160006INS_12basic_stringIcNS_11char_traitsIcEENS_9allocatorIcEEEEJRKS6_EPS6_EEPT_SB_DpOT0_, symObjAddr: 0x4FC0, symBinAddr: 0x10000E700, symSize: 0x40 }
  - { offsetInCU: 0x2005D, offset: 0x37F66, size: 0x8, addend: 0x0, symName: __ZNSt3__119__allocator_destroyB7v160006INS_9allocatorINS_12basic_stringIcNS_11char_traitsIcEENS1_IcEEEEEENS_16reverse_iteratorIPS6_EESA_EEvRT_T0_T1_, symObjAddr: 0x50A0, symBinAddr: 0x10000E7E0, symSize: 0x70 }
  - { offsetInCU: 0x200BF, offset: 0x37FC8, size: 0x8, addend: 0x0, symName: __ZNSt3__1neB7v160006IPNS_12basic_stringIcNS_11char_traitsIcEENS_9allocatorIcEEEES7_EEbRKNS_16reverse_iteratorIT_EERKNS8_IT0_EE, symObjAddr: 0x5140, symBinAddr: 0x10000E880, symSize: 0x40 }
  - { offsetInCU: 0x2010B, offset: 0x38014, size: 0x8, addend: 0x0, symName: __ZNSt3__112__to_addressB7v160006INS_16reverse_iteratorIPNS_12basic_stringIcNS_11char_traitsIcEENS_9allocatorIcEEEEEEvEENS_5decayIDTclsr19__to_address_helperIT_EE6__callclsr3stdE7declvalIRKSB_EEEEE4typeESD_, symObjAddr: 0x51A0, symBinAddr: 0x10000E8E0, symSize: 0x20 }
  - { offsetInCU: 0x20141, offset: 0x3804A, size: 0x8, addend: 0x0, symName: __ZNSt3__110destroy_atB7v160006INS_12basic_stringIcNS_11char_traitsIcEENS_9allocatorIcEEEELi0EEEvPT_, symObjAddr: 0x5200, symBinAddr: 0x10000E940, symSize: 0x20 }
  - { offsetInCU: 0x20178, offset: 0x38081, size: 0x8, addend: 0x0, symName: __ZNSt3__112__destroy_atB7v160006INS_12basic_stringIcNS_11char_traitsIcEENS_9allocatorIcEEEELi0EEEvPT_, symObjAddr: 0x5220, symBinAddr: 0x10000E960, symSize: 0x20 }
  - { offsetInCU: 0x201D8, offset: 0x380E1, size: 0x8, addend: 0x0, symName: __ZNSt3__14prevB7v160006IPNS_12basic_stringIcNS_11char_traitsIcEENS_9allocatorIcEEEEEENS_9enable_ifIXsr25__is_cpp17_input_iteratorIT_EE5valueES9_E4typeES9_NS_15iterator_traitsIS9_E15difference_typeE, symObjAddr: 0x52B0, symBinAddr: 0x10000E9F0, symSize: 0x50 }
  - { offsetInCU: 0x2021B, offset: 0x38124, size: 0x8, addend: 0x0, symName: __ZNSt3__19__advanceB7v160006IPNS_12basic_stringIcNS_11char_traitsIcEENS_9allocatorIcEEEEEEvRT_NS_15iterator_traitsIS8_E15difference_typeENS_26random_access_iterator_tagE, symObjAddr: 0x5360, symBinAddr: 0x10000EA90, symSize: 0x20 }
  - { offsetInCU: 0x20264, offset: 0x3816D, size: 0x8, addend: 0x0, symName: __ZNSt3__118__debug_db_erase_cB7v160006INS_6vectorINS_12basic_stringIcNS_11char_traitsIcEENS_9allocatorIcEEEENS5_IS7_EEEEEEvPT_, symObjAddr: 0x5550, symBinAddr: 0x10000EC80, symSize: 0x10 }
  - { offsetInCU: 0x20295, offset: 0x3819E, size: 0x8, addend: 0x0, symName: __ZNSt3__122__make_exception_guardB7v160006INS_6vectorINS1_INS_12basic_stringIcNS_11char_traitsIcEENS_9allocatorIcEEEENS5_IS7_EEEENS5_IS9_EEE16__destroy_vectorEEENS_28__exception_guard_exceptionsIT_EESE_, symObjAddr: 0x5800, symBinAddr: 0x10000EF30, symSize: 0x40 }
  - { offsetInCU: 0x202CA, offset: 0x381D3, size: 0x8, addend: 0x0, symName: __ZNSt3__119__debug_db_insert_cB7v160006INS_6vectorINS1_INS_12basic_stringIcNS_11char_traitsIcEENS_9allocatorIcEEEENS5_IS7_EEEENS5_IS9_EEEEEEvPT_, symObjAddr: 0x5870, symBinAddr: 0x10000EFA0, symSize: 0x10 }
  - { offsetInCU: 0x202FB, offset: 0x38204, size: 0x8, addend: 0x0, symName: __ZNSt3__119__allocate_at_leastB7v160006INS_9allocatorINS_6vectorINS_12basic_stringIcNS_11char_traitsIcEENS1_IcEEEENS1_IS7_EEEEEEEENS_19__allocation_resultINS_16allocator_traitsIT_E7pointerEEERSD_m, symObjAddr: 0x5BF0, symBinAddr: 0x10000F320, symSize: 0x40 }
  - { offsetInCU: 0x2033E, offset: 0x38247, size: 0x8, addend: 0x0, symName: __ZNSt3__112__to_addressB7v160006INS_6vectorINS_12basic_stringIcNS_11char_traitsIcEENS_9allocatorIcEEEENS5_IS7_EEEEEEPT_SB_, symObjAddr: 0x5EC0, symBinAddr: 0x10000F5F0, symSize: 0x10 }
  - { offsetInCU: 0x20373, offset: 0x3827C, size: 0x8, addend: 0x0, symName: __ZNSt3__130__uninitialized_allocator_copyB7v160006INS_9allocatorINS_6vectorINS_12basic_stringIcNS_11char_traitsIcEENS1_IcEEEENS1_IS7_EEEEEEPKS9_SC_PS9_EET2_RT_T0_T1_SE_, symObjAddr: 0x5F50, symBinAddr: 0x10000F680, symSize: 0x100 }
  - { offsetInCU: 0x20411, offset: 0x3831A, size: 0x8, addend: 0x0, symName: __ZNSt3__122__make_exception_guardB7v160006INS_29_AllocatorDestroyRangeReverseINS_9allocatorINS_6vectorINS_12basic_stringIcNS_11char_traitsIcEENS2_IcEEEENS2_IS8_EEEEEEPSA_EEEENS_28__exception_guard_exceptionsIT_EESF_, symObjAddr: 0x60B0, symBinAddr: 0x10000F7E0, symSize: 0x60 }
  - { offsetInCU: 0x2046B, offset: 0x38374, size: 0x8, addend: 0x0, symName: __ZNSt3__112construct_atB7v160006INS_6vectorINS_12basic_stringIcNS_11char_traitsIcEENS_9allocatorIcEEEENS5_IS7_EEEEJRKS9_EPS9_EEPT_SE_DpOT0_, symObjAddr: 0x6270, symBinAddr: 0x10000F9A0, symSize: 0x40 }
  - { offsetInCU: 0x204DC, offset: 0x383E5, size: 0x8, addend: 0x0, symName: __ZNSt3__119__allocator_destroyB7v160006INS_9allocatorINS_6vectorINS_12basic_stringIcNS_11char_traitsIcEENS1_IcEEEENS1_IS7_EEEEEENS_16reverse_iteratorIPS9_EESD_EEvRT_T0_T1_, symObjAddr: 0x6350, symBinAddr: 0x10000FA80, symSize: 0x70 }
  - { offsetInCU: 0x2053E, offset: 0x38447, size: 0x8, addend: 0x0, symName: __ZNSt3__1neB7v160006IPNS_6vectorINS_12basic_stringIcNS_11char_traitsIcEENS_9allocatorIcEEEENS5_IS7_EEEESA_EEbRKNS_16reverse_iteratorIT_EERKNSB_IT0_EE, symObjAddr: 0x63F0, symBinAddr: 0x10000FB20, symSize: 0x40 }
  - { offsetInCU: 0x2058A, offset: 0x38493, size: 0x8, addend: 0x0, symName: __ZNSt3__112__to_addressB7v160006INS_16reverse_iteratorIPNS_6vectorINS_12basic_stringIcNS_11char_traitsIcEENS_9allocatorIcEEEENS6_IS8_EEEEEEvEENS_5decayIDTclsr19__to_address_helperIT_EE6__callclsr3stdE7declvalIRKSE_EEEEE4typeESG_, symObjAddr: 0x6450, symBinAddr: 0x10000FB80, symSize: 0x20 }
  - { offsetInCU: 0x205C0, offset: 0x384C9, size: 0x8, addend: 0x0, symName: __ZNSt3__110destroy_atB7v160006INS_6vectorINS_12basic_stringIcNS_11char_traitsIcEENS_9allocatorIcEEEENS5_IS7_EEEELi0EEEvPT_, symObjAddr: 0x64B0, symBinAddr: 0x10000FBE0, symSize: 0x20 }
  - { offsetInCU: 0x205F7, offset: 0x38500, size: 0x8, addend: 0x0, symName: __ZNSt3__112__destroy_atB7v160006INS_6vectorINS_12basic_stringIcNS_11char_traitsIcEENS_9allocatorIcEEEENS5_IS7_EEEELi0EEEvPT_, symObjAddr: 0x64D0, symBinAddr: 0x10000FC00, symSize: 0x20 }
  - { offsetInCU: 0x20657, offset: 0x38560, size: 0x8, addend: 0x0, symName: __ZNSt3__14prevB7v160006IPNS_6vectorINS_12basic_stringIcNS_11char_traitsIcEENS_9allocatorIcEEEENS5_IS7_EEEEEENS_9enable_ifIXsr25__is_cpp17_input_iteratorIT_EE5valueESC_E4typeESC_NS_15iterator_traitsISC_E15difference_typeE, symObjAddr: 0x6560, symBinAddr: 0x10000FC90, symSize: 0x50 }
  - { offsetInCU: 0x2069A, offset: 0x385A3, size: 0x8, addend: 0x0, symName: __ZNSt3__19__advanceB7v160006IPNS_6vectorINS_12basic_stringIcNS_11char_traitsIcEENS_9allocatorIcEEEENS5_IS7_EEEEEEvRT_NS_15iterator_traitsISB_E15difference_typeENS_26random_access_iterator_tagE, symObjAddr: 0x6600, symBinAddr: 0x10000FD30, symSize: 0x20 }
  - { offsetInCU: 0x206E3, offset: 0x385EC, size: 0x8, addend: 0x0, symName: __ZNSt3__118__debug_db_erase_cB7v160006INS_6vectorINS1_INS_12basic_stringIcNS_11char_traitsIcEENS_9allocatorIcEEEENS5_IS7_EEEENS5_IS9_EEEEEEvPT_, symObjAddr: 0x67F0, symBinAddr: 0x10000FF20, symSize: 0x10 }
  - { offsetInCU: 0x20714, offset: 0x3861D, size: 0x8, addend: 0x0, symName: __ZNSt3__130__uninitialized_allocator_copyB7v160006INS_9allocatorINS_12basic_stringIcNS_11char_traitsIcEENS1_IcEEEEEEPS6_S8_S8_EET2_RT_T0_T1_S9_, symObjAddr: 0x6C00, symBinAddr: 0x100010330, symSize: 0x100 }
  - { offsetInCU: 0x207B2, offset: 0x386BB, size: 0x8, addend: 0x0, symName: __ZNSt3__112construct_atB7v160006INS_12basic_stringIcNS_11char_traitsIcEENS_9allocatorIcEEEEJRS6_EPS6_EEPT_SA_DpOT0_, symObjAddr: 0x6D30, symBinAddr: 0x100010460, symSize: 0x40 }
  - { offsetInCU: 0x20822, offset: 0x3872B, size: 0x8, addend: 0x0, symName: __ZNSt3__1eqB7v160006IPNS_12basic_stringIcNS_11char_traitsIcEENS_9allocatorIcEEEEEEbRKNS_11__wrap_iterIT_EESC_, symObjAddr: 0x6DF0, symBinAddr: 0x100010520, symSize: 0x40 }
  - { offsetInCU: 0x2088A, offset: 0x38793, size: 0x8, addend: 0x0, symName: __ZNSt3__112construct_atB7v160006I4PathJRNS_12basic_stringIcNS_11char_traitsIcEENS_9allocatorIcEEEES8_EPS1_EEPT_SB_DpOT0_, symObjAddr: 0x7200, symBinAddr: 0x1000107A0, symSize: 0xB0 }
  - { offsetInCU: 0x2090D, offset: 0x38816, size: 0x8, addend: 0x0, symName: __ZNSt3__18distanceB7v160006IPK4PathEENS_15iterator_traitsIT_E15difference_typeES5_S5_, symObjAddr: 0x8C00, symBinAddr: 0x1000109F0, symSize: 0x30 }
  - { offsetInCU: 0x20950, offset: 0x38859, size: 0x8, addend: 0x0, symName: __ZNSt3__14copyB7v160006IPK4PathPS1_EET0_T_S6_S5_, symObjAddr: 0x8C80, symBinAddr: 0x100010A70, symSize: 0x40 }
  - { offsetInCU: 0x209AA, offset: 0x388B3, size: 0x8, addend: 0x0, symName: __ZNSt3__110__distanceB7v160006IPK4PathEENS_15iterator_traitsIT_E15difference_typeES5_S5_NS_26random_access_iterator_tagE, symObjAddr: 0x8ED0, symBinAddr: 0x100010B40, symSize: 0x30 }
  - { offsetInCU: 0x209F7, offset: 0x38900, size: 0x8, addend: 0x0, symName: __ZNSt3__19__advanceB7v160006IPK4PathEEvRT_NS_15iterator_traitsIS4_E15difference_typeENS_26random_access_iterator_tagE, symObjAddr: 0x8F10, symBinAddr: 0x100010B70, symSize: 0x20 }
  - { offsetInCU: 0x20A40, offset: 0x38949, size: 0x8, addend: 0x0, symName: __ZNSt3__16__copyB7v160006INS_17_ClassicAlgPolicyEPK4PathS4_PS2_EENS_4pairIT0_T2_EES7_T1_S8_, symObjAddr: 0x8F30, symBinAddr: 0x100010B90, symSize: 0x40 }
  - { offsetInCU: 0x20AAC, offset: 0x389B5, size: 0x8, addend: 0x0, symName: __ZNSt3__123__dispatch_copy_or_moveB7v160006INS_17_ClassicAlgPolicyENS_11__copy_loopIS1_EENS_14__copy_trivialEPK4PathS7_PS5_EENS_4pairIT2_T4_EESA_T3_SB_, symObjAddr: 0x8F70, symBinAddr: 0x100010BD0, symSize: 0x40 }
  - { offsetInCU: 0x20B2A, offset: 0x38A33, size: 0x8, addend: 0x0, symName: __ZNSt3__121__unwrap_and_dispatchB7v160006INS_10__overloadINS_11__copy_loopINS_17_ClassicAlgPolicyEEENS_14__copy_trivialEEEPK4PathS9_PS7_Li0EEENS_4pairIT0_T2_EESC_T1_SD_, symObjAddr: 0x8FB0, symBinAddr: 0x100010C10, symSize: 0xB0 }
  - { offsetInCU: 0x20BB9, offset: 0x38AC2, size: 0x8, addend: 0x0, symName: __ZNSt3__114__unwrap_rangeB7v160006IPK4PathS3_EEDaT_T0_, symObjAddr: 0x9060, symBinAddr: 0x100010CC0, symSize: 0x40 }
  - { offsetInCU: 0x20D2B, offset: 0x38C34, size: 0x8, addend: 0x0, symName: __ZNSt3__19make_pairB7v160006IPK4PathPS1_EENS_4pairINS_18__unwrap_ref_decayIT_E4typeENS6_IT0_E4typeEEEOS7_OSA_, symObjAddr: 0x9140, symBinAddr: 0x100010D80, symSize: 0x30 }
  - { offsetInCU: 0x20D7A, offset: 0x38C83, size: 0x8, addend: 0x0, symName: __ZNSt3__114__rewrap_rangeB7v160006IPK4PathS3_S3_EET0_S4_T1_, symObjAddr: 0x9170, symBinAddr: 0x100010DB0, symSize: 0x30 }
  - { offsetInCU: 0x20EEB, offset: 0x38DF4, size: 0x8, addend: 0x0, symName: __ZNSt3__113__unwrap_iterB7v160006IPK4PathNS_18__unwrap_iter_implIS3_Lb1EEELi0EEEDTclsrT0_8__unwrapclsr3stdE7declvalIT_EEEES7_, symObjAddr: 0x9230, symBinAddr: 0x100010E30, symSize: 0x20 }
  - { offsetInCU: 0x20F82, offset: 0x38E8B, size: 0x8, addend: 0x0, symName: __ZNSt3__112__to_addressB7v160006IK4PathEEPT_S4_, symObjAddr: 0x92A0, symBinAddr: 0x100010EA0, symSize: 0x10 }
  - { offsetInCU: 0x20FB7, offset: 0x38EC0, size: 0x8, addend: 0x0, symName: __ZNSt3__113__rewrap_iterB7v160006IPK4PathS3_NS_18__unwrap_iter_implIS3_Lb1EEEEET_S6_T0_, symObjAddr: 0x93E0, symBinAddr: 0x100010F70, symSize: 0x40 }
  - { offsetInCU: 0x2100C, offset: 0x38F15, size: 0x8, addend: 0x0, symName: __ZNSt3__130__uninitialized_allocator_copyB7v160006INS_9allocatorI4PathEEPKS2_S5_PS2_EET2_RT_T0_T1_S7_, symObjAddr: 0x94E0, symBinAddr: 0x100011010, symSize: 0x100 }
  - { offsetInCU: 0x210DA, offset: 0x38FE3, size: 0x8, addend: 0x0, symName: __ZNSt3__13minB7v160006IiNS_6__lessIiiEEEERKT_S5_S5_T0_, symObjAddr: 0xAA60, symBinAddr: 0x100011350, symSize: 0x50 }
  - { offsetInCU: 0x2116F, offset: 0x39078, size: 0x8, addend: 0x0, symName: __ZNSt3__18distanceB7v160006IPKiEENS_15iterator_traitsIT_E15difference_typeES4_S4_, symObjAddr: 0xADF0, symBinAddr: 0x1000116A0, symSize: 0x30 }
  - { offsetInCU: 0x211B2, offset: 0x390BB, size: 0x8, addend: 0x0, symName: __ZNSt3__14copyB7v160006IPKiPiEET0_T_S5_S4_, symObjAddr: 0xAEA0, symBinAddr: 0x100011750, symSize: 0x40 }
  - { offsetInCU: 0x2120C, offset: 0x39115, size: 0x8, addend: 0x0, symName: __ZNSt3__125__debug_db_invalidate_allB7v160006INS_6vectorIiNS_9allocatorIiEEEEEEvPT_, symObjAddr: 0xB190, symBinAddr: 0x100011A40, symSize: 0x10 }
  - { offsetInCU: 0x2123D, offset: 0x39146, size: 0x8, addend: 0x0, symName: __ZNSt3__110__distanceB7v160006IPKiEENS_15iterator_traitsIT_E15difference_typeES4_S4_NS_26random_access_iterator_tagE, symObjAddr: 0xB1A0, symBinAddr: 0x100011A50, symSize: 0x20 }
  - { offsetInCU: 0x2128A, offset: 0x39193, size: 0x8, addend: 0x0, symName: __ZNSt3__19__advanceB7v160006IPKiEEvRT_NS_15iterator_traitsIS3_E15difference_typeENS_26random_access_iterator_tagE, symObjAddr: 0xB210, symBinAddr: 0x100011AC0, symSize: 0x20 }
  - { offsetInCU: 0x212D3, offset: 0x391DC, size: 0x8, addend: 0x0, symName: __ZNSt3__16__copyB7v160006INS_17_ClassicAlgPolicyEPKiS3_PiEENS_4pairIT0_T2_EES6_T1_S7_, symObjAddr: 0xB230, symBinAddr: 0x100011AE0, symSize: 0x40 }
  - { offsetInCU: 0x2133F, offset: 0x39248, size: 0x8, addend: 0x0, symName: __ZNSt3__123__dispatch_copy_or_moveB7v160006INS_17_ClassicAlgPolicyENS_11__copy_loopIS1_EENS_14__copy_trivialEPKiS6_PiEENS_4pairIT2_T4_EES9_T3_SA_, symObjAddr: 0xB270, symBinAddr: 0x100011B20, symSize: 0x40 }
  - { offsetInCU: 0x213BD, offset: 0x392C6, size: 0x8, addend: 0x0, symName: __ZNSt3__121__unwrap_and_dispatchB7v160006INS_10__overloadINS_11__copy_loopINS_17_ClassicAlgPolicyEEENS_14__copy_trivialEEEPKiS8_PiLi0EEENS_4pairIT0_T2_EESB_T1_SC_, symObjAddr: 0xB2B0, symBinAddr: 0x100011B60, symSize: 0xB0 }
  - { offsetInCU: 0x2144C, offset: 0x39355, size: 0x8, addend: 0x0, symName: __ZNSt3__114__unwrap_rangeB7v160006IPKiS2_EEDaT_T0_, symObjAddr: 0xB360, symBinAddr: 0x100011C10, symSize: 0x40 }
  - { offsetInCU: 0x215E1, offset: 0x394EA, size: 0x8, addend: 0x0, symName: __ZNSt3__113__unwrap_iterB7v160006IPiNS_18__unwrap_iter_implIS1_Lb1EEELi0EEEDTclsrT0_8__unwrapclsr3stdE7declvalIT_EEEES5_, symObjAddr: 0xB3E0, symBinAddr: 0x100011C90, symSize: 0x20 }
  - { offsetInCU: 0x21625, offset: 0x3952E, size: 0x8, addend: 0x0, symName: __ZNSt3__19make_pairB7v160006IPKiPiEENS_4pairINS_18__unwrap_ref_decayIT_E4typeENS5_IT0_E4typeEEEOS6_OS9_, symObjAddr: 0xB400, symBinAddr: 0x100011CB0, symSize: 0x30 }
  - { offsetInCU: 0x21674, offset: 0x3957D, size: 0x8, addend: 0x0, symName: __ZNSt3__114__rewrap_rangeB7v160006IPKiS2_S2_EET0_S3_T1_, symObjAddr: 0xB430, symBinAddr: 0x100011CE0, symSize: 0x30 }
  - { offsetInCU: 0x216C9, offset: 0x395D2, size: 0x8, addend: 0x0, symName: __ZNSt3__113__rewrap_iterB7v160006IPiS1_NS_18__unwrap_iter_implIS1_Lb1EEEEET_S4_T0_, symObjAddr: 0xB460, symBinAddr: 0x100011D10, symSize: 0x40 }
  - { offsetInCU: 0x2183A, offset: 0x39743, size: 0x8, addend: 0x0, symName: __ZNSt3__113__unwrap_iterB7v160006IPKiNS_18__unwrap_iter_implIS2_Lb1EEELi0EEEDTclsrT0_8__unwrapclsr3stdE7declvalIT_EEEES6_, symObjAddr: 0xB4F0, symBinAddr: 0x100011DA0, symSize: 0x20 }
  - { offsetInCU: 0x218D1, offset: 0x397DA, size: 0x8, addend: 0x0, symName: __ZNSt3__112__to_addressB7v160006IKiEEPT_S3_, symObjAddr: 0xB560, symBinAddr: 0x100011E10, symSize: 0x10 }
  - { offsetInCU: 0x21906, offset: 0x3980F, size: 0x8, addend: 0x0, symName: __ZNSt3__119__copy_trivial_implB7v160006IKiiEENS_4pairIPT_PT0_EES4_S4_S6_, symObjAddr: 0xB5A0, symBinAddr: 0x100011E50, symSize: 0x70 }
  - { offsetInCU: 0x2196E, offset: 0x39877, size: 0x8, addend: 0x0, symName: __ZNSt3__19make_pairB7v160006IRPKiPiEENS_4pairINS_18__unwrap_ref_decayIT_E4typeENS6_IT0_E4typeEEEOS7_OSA_, symObjAddr: 0xB610, symBinAddr: 0x100011EC0, symSize: 0x30 }
  - { offsetInCU: 0x21A10, offset: 0x39919, size: 0x8, addend: 0x0, symName: __ZNSt3__112__to_addressB7v160006IiEEPT_S2_, symObjAddr: 0xB6C0, symBinAddr: 0x100011F70, symSize: 0x10 }
  - { offsetInCU: 0x21A45, offset: 0x3994E, size: 0x8, addend: 0x0, symName: __ZNSt3__113__rewrap_iterB7v160006IPKiS2_NS_18__unwrap_iter_implIS2_Lb1EEEEET_S5_T0_, symObjAddr: 0xB760, symBinAddr: 0x100012010, symSize: 0x40 }
  - { offsetInCU: 0x21A9A, offset: 0x399A3, size: 0x8, addend: 0x0, symName: __ZNSt3__130__uninitialized_allocator_copyB7v160006INS_9allocatorIiEEiiLPv0EEEPT0_RT_PKS4_S9_S5_, symObjAddr: 0xB870, symBinAddr: 0x100012120, symSize: 0x30 }
  - { offsetInCU: 0x21B13, offset: 0x39A1C, size: 0x8, addend: 0x0, symName: __ZNSt3__110destroy_atB7v160006IiLi0EEEvPT_, symObjAddr: 0xBAC0, symBinAddr: 0x100012370, symSize: 0x20 }
  - { offsetInCU: 0x21B4A, offset: 0x39A53, size: 0x8, addend: 0x0, symName: __ZNSt3__112__destroy_atB7v160006IiLi0EEEvPT_, symObjAddr: 0xBAE0, symBinAddr: 0x100012390, symSize: 0x10 }
  - { offsetInCU: 0x21B81, offset: 0x39A8A, size: 0x8, addend: 0x0, symName: __ZNSt3__119__allocate_at_leastB7v160006INS_9allocatorIiEEEENS_19__allocation_resultINS_16allocator_traitsIT_E7pointerEEERS5_m, symObjAddr: 0xBCE0, symBinAddr: 0x100012590, symSize: 0x40 }
  - { offsetInCU: 0x21BC4, offset: 0x39ACD, size: 0x8, addend: 0x0, symName: __ZNSt3__119__debug_db_insert_cB7v160006INS_6vectorIiNS_9allocatorIiEEEEEEvPT_, symObjAddr: 0xBF20, symBinAddr: 0x1000127D0, symSize: 0x10 }
  - { offsetInCU: 0x21BF5, offset: 0x39AFE, size: 0x8, addend: 0x0, symName: __ZNSt3__1eqB7v160006IPiEEbRKNS_11__wrap_iterIT_EES6_, symObjAddr: 0xC060, symBinAddr: 0x100012910, symSize: 0x40 }
  - { offsetInCU: 0x21C5E, offset: 0x39B67, size: 0x8, addend: 0x0, symName: '__ZNSt3__112construct_atB7v160006INS_6threadEJZ4mainE3$_1EPS1_EEPT_S5_DpOT0_', symObjAddr: 0xC350, symBinAddr: 0x100012C00, symSize: 0x40 }
  - { offsetInCU: 0x220ED, offset: 0x39FF6, size: 0x8, addend: 0x0, symName: __ZNSt3__122__libcpp_thread_createB7v160006EPP17_opaque_pthread_tPFPvS3_ES3_, symObjAddr: 0xC590, symBinAddr: 0x100012E40, symSize: 0x30 }
  - { offsetInCU: 0x2213A, offset: 0x3A043, size: 0x8, addend: 0x0, symName: '__ZNSt3__114__thread_proxyB7v160006INS_5tupleIJNS_10unique_ptrINS_15__thread_structENS_14default_deleteIS3_EEEEZ4mainE3$_1EEEEEPvS9_', symObjAddr: 0xC5C0, symBinAddr: 0x100012E70, symSize: 0xA0 }
  - { offsetInCU: 0x22282, offset: 0x3A18B, size: 0x8, addend: 0x0, symName: '__ZNSt3__13getB7v160006ILm0EJNS_10unique_ptrINS_15__thread_structENS_14default_deleteIS2_EEEEZ4mainE3$_1EEERNS_13tuple_elementIXT_ENS_5tupleIJDpT0_EEEE4typeERSB_', symObjAddr: 0xCC50, symBinAddr: 0x100013500, symSize: 0x20 }
  - { offsetInCU: 0x222CB, offset: 0x3A1D4, size: 0x8, addend: 0x0, symName: '__ZNSt3__116__thread_executeB7v160006INS_10unique_ptrINS_15__thread_structENS_14default_deleteIS2_EEEEZ4mainE3$_1JEJEEEvRNS_5tupleIJT_T0_DpT1_EEENS_15__tuple_indicesIJXspT2_EEEE', symObjAddr: 0xCC70, symBinAddr: 0x100013520, symSize: 0x30 }
  - { offsetInCU: 0x2231D, offset: 0x3A226, size: 0x8, addend: 0x0, symName: __ZNSt3__116__libcpp_tls_setB7v160006EmPv, symObjAddr: 0xCCA0, symBinAddr: 0x100013550, symSize: 0x30 }
  - { offsetInCU: 0x2235B, offset: 0x3A264, size: 0x8, addend: 0x0, symName: '__ZNSt3__18__invokeB7v160006IZ4mainE3$_1JEEEDTclclsr3stdE7declvalIT_EEspclsr3stdE7declvalIT0_EEEEOS2_DpOS3_', symObjAddr: 0xCCE0, symBinAddr: 0x100013590, symSize: 0x20 }
  - { offsetInCU: 0x22394, offset: 0x3A29D, size: 0x8, addend: 0x0, symName: '__ZNSt3__13getB7v160006ILm1EJNS_10unique_ptrINS_15__thread_structENS_14default_deleteIS2_EEEEZ4mainE3$_1EEERNS_13tuple_elementIXT_ENS_5tupleIJDpT0_EEEE4typeERSB_', symObjAddr: 0xCD00, symBinAddr: 0x1000135B0, symSize: 0x20 }
  - { offsetInCU: 0x223DC, offset: 0x3A2E5, size: 0x8, addend: 0x0, symName: __ZNSt3__116forward_as_tupleB7v160006IJiEEENS_5tupleIJDpOT_EEES4_, symObjAddr: 0xD4B0, symBinAddr: 0x100013D60, symSize: 0x30 }
  - { offsetInCU: 0x2243A, offset: 0x3A343, size: 0x8, addend: 0x0, symName: __ZNSt3__112construct_atB7v160006INS_4pairIKi6PacketEEJRKNS_21piecewise_construct_tENS_5tupleIJOiEEENS8_IJEEEEPS4_EEPT_SE_DpOT0_, symObjAddr: 0xDE80, symBinAddr: 0x100013F50, symSize: 0x50 }
  - { offsetInCU: 0x224D0, offset: 0x3A3D9, size: 0x8, addend: 0x0, symName: __ZNSt3__13getB7v160006ILm0EJOiEEERNS_13tuple_elementIXT_ENS_5tupleIJDpT0_EEEE4typeERS6_, symObjAddr: 0xDF70, symBinAddr: 0x100014040, symSize: 0x20 }
  - { offsetInCU: 0x2255B, offset: 0x3A464, size: 0x8, addend: 0x0, symName: __ZNSt3__119__allocate_at_leastB7v160006INS_9allocatorINS_6threadEEEEENS_19__allocation_resultINS_16allocator_traitsIT_E7pointerEEERS6_m, symObjAddr: 0xF090, symBinAddr: 0x1000148C0, symSize: 0x40 }
  - { offsetInCU: 0x2259E, offset: 0x3A4A7, size: 0x8, addend: 0x0, symName: __ZNSt3__142__uninitialized_allocator_move_if_noexceptB7v160006INS_9allocatorINS_6threadEEENS_16reverse_iteratorIPS2_EES6_S6_EET2_RT_T0_T1_S7_, symObjAddr: 0xF240, symBinAddr: 0x100014A70, symSize: 0x180 }
  - { offsetInCU: 0x2263D, offset: 0x3A546, size: 0x8, addend: 0x0, symName: __ZNSt3__14swapB7v160006IPNS_6threadEEENS_9enable_ifIXaasr21is_move_constructibleIT_EE5valuesr18is_move_assignableIS4_EE5valueEvE4typeERS4_S7_, symObjAddr: 0xF410, symBinAddr: 0x100014C40, symSize: 0x40 }
  - { offsetInCU: 0x2268E, offset: 0x3A597, size: 0x8, addend: 0x0, symName: __ZNSt3__125__debug_db_invalidate_allB7v160006INS_6vectorINS_6threadENS_9allocatorIS2_EEEEEEvPT_, symObjAddr: 0xF500, symBinAddr: 0x100014D30, symSize: 0x10 }
  - { offsetInCU: 0x226BF, offset: 0x3A5C8, size: 0x8, addend: 0x0, symName: __ZNSt3__122__make_exception_guardB7v160006INS_29_AllocatorDestroyRangeReverseINS_9allocatorINS_6threadEEENS_16reverse_iteratorIPS3_EEEEEENS_28__exception_guard_exceptionsIT_EESA_, symObjAddr: 0xF510, symBinAddr: 0x100014D40, symSize: 0x60 }
  - { offsetInCU: 0x226F4, offset: 0x3A5FD, size: 0x8, addend: 0x0, symName: __ZNSt3__1neB7v160006IPNS_6threadES2_EEbRKNS_16reverse_iteratorIT_EERKNS3_IT0_EE, symObjAddr: 0xF5B0, symBinAddr: 0x100014DE0, symSize: 0x40 }
  - { offsetInCU: 0x22740, offset: 0x3A649, size: 0x8, addend: 0x0, symName: __ZNSt3__112__to_addressB7v160006INS_16reverse_iteratorIPNS_6threadEEEvEENS_5decayIDTclsr19__to_address_helperIT_EE6__callclsr3stdE7declvalIRKS6_EEEEE4typeES8_, symObjAddr: 0xF620, symBinAddr: 0x100014E50, symSize: 0x20 }
  - { offsetInCU: 0x22776, offset: 0x3A67F, size: 0x8, addend: 0x0, symName: __ZNSt3__112construct_atB7v160006INS_6threadEJS1_EPS1_EEPT_S4_DpOT0_, symObjAddr: 0xF780, symBinAddr: 0x100014FB0, symSize: 0x40 }
  - { offsetInCU: 0x2280F, offset: 0x3A718, size: 0x8, addend: 0x0, symName: __ZNSt3__14prevB7v160006IPNS_6threadEEENS_9enable_ifIXsr25__is_cpp17_input_iteratorIT_EE5valueES4_E4typeES4_NS_15iterator_traitsIS4_E15difference_typeE, symObjAddr: 0xF890, symBinAddr: 0x1000150C0, symSize: 0x50 }
  - { offsetInCU: 0x22852, offset: 0x3A75B, size: 0x8, addend: 0x0, symName: __ZNSt3__19__advanceB7v160006IPNS_6threadEEEvRT_NS_15iterator_traitsIS3_E15difference_typeENS_26random_access_iterator_tagE, symObjAddr: 0xF930, symBinAddr: 0x100015160, symSize: 0x20 }
  - { offsetInCU: 0x2289C, offset: 0x3A7A5, size: 0x8, addend: 0x0, symName: __ZNSt3__119__allocator_destroyB7v160006INS_9allocatorINS_6threadEEENS_16reverse_iteratorINS4_IPS2_EEEES7_EEvRT_T0_T1_, symObjAddr: 0xFA80, symBinAddr: 0x1000152B0, symSize: 0x70 }
  - { offsetInCU: 0x228FE, offset: 0x3A807, size: 0x8, addend: 0x0, symName: __ZNSt3__1neB7v160006INS_16reverse_iteratorIPNS_6threadEEES4_EEbRKNS1_IT_EERKNS1_IT0_EE, symObjAddr: 0xFB20, symBinAddr: 0x100015350, symSize: 0x50 }
  - { offsetInCU: 0x2294A, offset: 0x3A853, size: 0x8, addend: 0x0, symName: __ZNSt3__112__to_addressB7v160006INS_16reverse_iteratorINS1_IPNS_6threadEEEEEvEENS_5decayIDTclsr19__to_address_helperIT_EE6__callclsr3stdE7declvalIRKS7_EEEEE4typeES9_, symObjAddr: 0xFB70, symBinAddr: 0x1000153A0, symSize: 0x20 }
  - { offsetInCU: 0x229A9, offset: 0x3A8B2, size: 0x8, addend: 0x0, symName: __ZNSt3__14prevB7v160006INS_16reverse_iteratorIPNS_6threadEEEEENS_9enable_ifIXsr25__is_cpp17_input_iteratorIT_EE5valueES6_E4typeES6_NS_15iterator_traitsIS6_E15difference_typeE, symObjAddr: 0xFC70, symBinAddr: 0x1000154A0, symSize: 0x60 }
  - { offsetInCU: 0x229EC, offset: 0x3A8F5, size: 0x8, addend: 0x0, symName: __ZNSt3__19__advanceB7v160006INS_16reverse_iteratorIPNS_6threadEEEEEvRT_NS_15iterator_traitsIS5_E15difference_typeENS_26random_access_iterator_tagE, symObjAddr: 0xFD20, symBinAddr: 0x100015550, symSize: 0x30 }
  - { offsetInCU: 0x22A35, offset: 0x3A93E, size: 0x8, addend: 0x0, symName: __ZNSt3__122__libcpp_thread_isnullB7v160006EPKP17_opaque_pthread_t, symObjAddr: 0xFFE0, symBinAddr: 0x100015810, symSize: 0x30 }
  - { offsetInCU: 0x22A63, offset: 0x3A96C, size: 0x8, addend: 0x0, symName: __ZNSt3__122__libcpp_thread_get_idB7v160006EPKP17_opaque_pthread_t, symObjAddr: 0x10010, symBinAddr: 0x100015840, symSize: 0x20 }
  - { offsetInCU: 0x22A91, offset: 0x3A99A, size: 0x8, addend: 0x0, symName: __ZNSt3__1eqB7v160006IPNS_6threadEEEbRKNS_11__wrap_iterIT_EES7_, symObjAddr: 0x100B0, symBinAddr: 0x1000158E0, symSize: 0x40 }
  - { offsetInCU: 0x22AD4, offset: 0x3A9DD, size: 0x8, addend: 0x0, symName: __ZNSt3__118__debug_db_erase_cB7v160006INS_6vectorIiNS_9allocatorIiEEEEEEvPT_, symObjAddr: 0x10480, symBinAddr: 0x100015CB0, symSize: 0x10 }
  - { offsetInCU: 0x22B05, offset: 0x3AA0E, size: 0x8, addend: 0x0, symName: __ZNSt3__119__debug_db_insert_cB7v160006INS_13unordered_mapINS_12basic_stringIcNS_11char_traitsIcEENS_9allocatorIcEEEENS_6vectorI4PathNS5_IS9_EEEENS_4hashIS7_EENS_8equal_toIS7_EENS5_INS_4pairIKS7_SB_EEEEEEEEvPT_, symObjAddr: 0x104F0, symBinAddr: 0x100015D20, symSize: 0x10 }
  - { offsetInCU: 0x22B36, offset: 0x3AA3F, size: 0x8, addend: 0x0, symName: __ZNSt3__118__debug_db_erase_cB7v160006INS_12__hash_tableINS_17__hash_value_typeINS_12basic_stringIcNS_11char_traitsIcEENS_9allocatorIcEEEENS_6vectorI4PathNS6_ISA_EEEEEENS_22__unordered_map_hasherIS8_SD_NS_4hashIS8_EENS_8equal_toIS8_EELb1EEENS_21__unordered_map_equalIS8_SD_SI_SG_Lb1EEENS6_ISD_EEEEEEvPT_, symObjAddr: 0x10B70, symBinAddr: 0x100016360, symSize: 0x10 }
  - { offsetInCU: 0x22B9A, offset: 0x3AAA3, size: 0x8, addend: 0x0, symName: __ZNSt3__110destroy_atB7v160006INS_4pairIKNS_12basic_stringIcNS_11char_traitsIcEENS_9allocatorIcEEEENS_6vectorI4PathNS5_ISA_EEEEEELi0EEEvPT_, symObjAddr: 0x10C90, symBinAddr: 0x100016480, symSize: 0x20 }
  - { offsetInCU: 0x22BD1, offset: 0x3AADA, size: 0x8, addend: 0x0, symName: __ZNSt3__112__destroy_atB7v160006INS_4pairIKNS_12basic_stringIcNS_11char_traitsIcEENS_9allocatorIcEEEENS_6vectorI4PathNS5_ISA_EEEEEELi0EEEvPT_, symObjAddr: 0x10CB0, symBinAddr: 0x1000164A0, symSize: 0x20 }
  - { offsetInCU: 0x22C08, offset: 0x3AB11, size: 0x8, addend: 0x0, symName: __ZNSt3__17launderB7v160006INS_4pairIKNS_12basic_stringIcNS_11char_traitsIcEENS_9allocatorIcEEEENS_6vectorI4PathNS5_ISA_EEEEEEEEPT_SF_, symObjAddr: 0x10D40, symBinAddr: 0x100016530, symSize: 0x20 }
  - { offsetInCU: 0x22C3F, offset: 0x3AB48, size: 0x8, addend: 0x0, symName: __ZNSt3__19__launderB7v160006INS_4pairIKNS_12basic_stringIcNS_11char_traitsIcEENS_9allocatorIcEEEENS_6vectorI4PathNS5_ISA_EEEEEEEEPT_SF_, symObjAddr: 0x10D60, symBinAddr: 0x100016550, symSize: 0x10 }
  - { offsetInCU: 0x22C76, offset: 0x3AB7F, size: 0x8, addend: 0x0, symName: __ZNSt3__119__debug_db_insert_cB7v160006INS_13unordered_mapIi4HostNS_4hashIiEENS_8equal_toIiEENS_9allocatorINS_4pairIKiS2_EEEEEEEEvPT_, symObjAddr: 0x11050, symBinAddr: 0x100016840, symSize: 0x10 }
  - { offsetInCU: 0x22CA7, offset: 0x3ABB0, size: 0x8, addend: 0x0, symName: __ZNSt3__118__debug_db_erase_cB7v160006INS_12__hash_tableINS_17__hash_value_typeIi4HostEENS_22__unordered_map_hasherIiS4_NS_4hashIiEENS_8equal_toIiEELb1EEENS_21__unordered_map_equalIiS4_S9_S7_Lb1EEENS_9allocatorIS4_EEEEEEvPT_, symObjAddr: 0x11690, symBinAddr: 0x100016E80, symSize: 0x10 }
  - { offsetInCU: 0x22D0B, offset: 0x3AC14, size: 0x8, addend: 0x0, symName: __ZNSt3__110destroy_atB7v160006INS_4pairIKi4HostEELi0EEEvPT_, symObjAddr: 0x117B0, symBinAddr: 0x100016FA0, symSize: 0x20 }
  - { offsetInCU: 0x22D42, offset: 0x3AC4B, size: 0x8, addend: 0x0, symName: __ZNSt3__112__destroy_atB7v160006INS_4pairIKi4HostEELi0EEEvPT_, symObjAddr: 0x117D0, symBinAddr: 0x100016FC0, symSize: 0x20 }
  - { offsetInCU: 0x22D79, offset: 0x3AC82, size: 0x8, addend: 0x0, symName: __ZNSt3__17launderB7v160006INS_4pairIKi4HostEEEEPT_S6_, symObjAddr: 0x11850, symBinAddr: 0x100017040, symSize: 0x20 }
  - { offsetInCU: 0x22DB0, offset: 0x3ACB9, size: 0x8, addend: 0x0, symName: __ZNSt3__19__launderB7v160006INS_4pairIKi4HostEEEEPT_S6_, symObjAddr: 0x11870, symBinAddr: 0x100017060, symSize: 0x10 }
  - { offsetInCU: 0x22DE7, offset: 0x3ACF0, size: 0x8, addend: 0x0, symName: __ZNSt3__119__debug_db_insert_cB7v160006INS_13unordered_mapIi6SwitchNS_4hashIiEENS_8equal_toIiEENS_9allocatorINS_4pairIKiS2_EEEEEEEEvPT_, symObjAddr: 0x11B60, symBinAddr: 0x100017350, symSize: 0x10 }
  - { offsetInCU: 0x22E18, offset: 0x3AD21, size: 0x8, addend: 0x0, symName: __ZNSt3__118__debug_db_erase_cB7v160006INS_12__hash_tableINS_17__hash_value_typeIi6SwitchEENS_22__unordered_map_hasherIiS4_NS_4hashIiEENS_8equal_toIiEELb1EEENS_21__unordered_map_equalIiS4_S9_S7_Lb1EEENS_9allocatorIS4_EEEEEEvPT_, symObjAddr: 0x121A0, symBinAddr: 0x100017990, symSize: 0x10 }
  - { offsetInCU: 0x22E7C, offset: 0x3AD85, size: 0x8, addend: 0x0, symName: __ZNSt3__110destroy_atB7v160006INS_4pairIKi6SwitchEELi0EEEvPT_, symObjAddr: 0x122C0, symBinAddr: 0x100017AB0, symSize: 0x20 }
  - { offsetInCU: 0x22EB3, offset: 0x3ADBC, size: 0x8, addend: 0x0, symName: __ZNSt3__112__destroy_atB7v160006INS_4pairIKi6SwitchEELi0EEEvPT_, symObjAddr: 0x122E0, symBinAddr: 0x100017AD0, symSize: 0x20 }
  - { offsetInCU: 0x22EEA, offset: 0x3ADF3, size: 0x8, addend: 0x0, symName: __ZNSt3__17launderB7v160006INS_4pairIKi6SwitchEEEEPT_S6_, symObjAddr: 0x12360, symBinAddr: 0x100017B50, symSize: 0x20 }
  - { offsetInCU: 0x22F21, offset: 0x3AE2A, size: 0x8, addend: 0x0, symName: __ZNSt3__19__launderB7v160006INS_4pairIKi6SwitchEEEEPT_S6_, symObjAddr: 0x12380, symBinAddr: 0x100017B70, symSize: 0x10 }
  - { offsetInCU: 0x22F58, offset: 0x3AE61, size: 0x8, addend: 0x0, symName: __ZNSt3__119__debug_db_insert_cB7v160006INS_13unordered_mapIiNS_5mutexENS_4hashIiEENS_8equal_toIiEENS_9allocatorINS_4pairIKiS2_EEEEEEEEvPT_, symObjAddr: 0x12680, symBinAddr: 0x100017E70, symSize: 0x10 }
  - { offsetInCU: 0x22F89, offset: 0x3AE92, size: 0x8, addend: 0x0, symName: __ZNSt3__118__debug_db_erase_cB7v160006INS_12__hash_tableINS_17__hash_value_typeIiNS_5mutexEEENS_22__unordered_map_hasherIiS4_NS_4hashIiEENS_8equal_toIiEELb1EEENS_21__unordered_map_equalIiS4_S9_S7_Lb1EEENS_9allocatorIS4_EEEEEEvPT_, symObjAddr: 0x12CC0, symBinAddr: 0x1000184B0, symSize: 0x10 }
  - { offsetInCU: 0x22FED, offset: 0x3AEF6, size: 0x8, addend: 0x0, symName: __ZNSt3__110destroy_atB7v160006INS_4pairIKiNS_5mutexEEELi0EEEvPT_, symObjAddr: 0x12DE0, symBinAddr: 0x1000185D0, symSize: 0x20 }
  - { offsetInCU: 0x23024, offset: 0x3AF2D, size: 0x8, addend: 0x0, symName: __ZNSt3__112__destroy_atB7v160006INS_4pairIKiNS_5mutexEEELi0EEEvPT_, symObjAddr: 0x12E00, symBinAddr: 0x1000185F0, symSize: 0x20 }
  - { offsetInCU: 0x2305B, offset: 0x3AF64, size: 0x8, addend: 0x0, symName: __ZNSt3__17launderB7v160006INS_4pairIKiNS_5mutexEEEEEPT_S6_, symObjAddr: 0x12E80, symBinAddr: 0x100018670, symSize: 0x20 }
  - { offsetInCU: 0x23092, offset: 0x3AF9B, size: 0x8, addend: 0x0, symName: __ZNSt3__19__launderB7v160006INS_4pairIKiNS_5mutexEEEEEPT_S6_, symObjAddr: 0x12EA0, symBinAddr: 0x100018690, symSize: 0x10 }
  - { offsetInCU: 0x230C9, offset: 0x3AFD2, size: 0x8, addend: 0x0, symName: __ZNSt3__125__debug_db_invalidate_allB7v160006INS_12basic_stringIcNS_11char_traitsIcEENS_9allocatorIcEEEEEEvPT_, symObjAddr: 0x137B0, symBinAddr: 0x100018F50, symSize: 0x10 }
  - { offsetInCU: 0x230FA, offset: 0x3B003, size: 0x8, addend: 0x0, symName: __ZNSt3__19use_facetB7v160006INS_5ctypeIcEEEERKT_RKNS_6localeE, symObjAddr: 0x139D0, symBinAddr: 0x100019120, symSize: 0x30 }
  - { offsetInCU: 0x235D3, offset: 0x3B4DC, size: 0x8, addend: 0x0, symName: __ZNSt3__1neB7v160006ERKNS_25__hash_map_const_iteratorINS_21__hash_const_iteratorIPNS_11__hash_nodeINS_17__hash_value_typeINS_12basic_stringIcNS_11char_traitsIcEENS_9allocatorIcEEEENS_6vectorI4PathNS7_ISB_EEEEEEPvEEEEEESL_, symObjAddr: 0x13A30, symBinAddr: 0x100019180, symSize: 0x30 }
  - { offsetInCU: 0x23610, offset: 0x3B519, size: 0x8, addend: 0x0, symName: __ZNSt3__1neB7v160006ERKNS_21__hash_const_iteratorIPNS_11__hash_nodeINS_17__hash_value_typeINS_12basic_stringIcNS_11char_traitsIcEENS_9allocatorIcEEEENS_6vectorI4PathNS6_ISA_EEEEEEPvEEEESJ_, symObjAddr: 0x13AD0, symBinAddr: 0x100019220, symSize: 0x30 }
  - { offsetInCU: 0x2364D, offset: 0x3B556, size: 0x8, addend: 0x0, symName: __ZNSt3__1eqB7v160006ERKNS_21__hash_const_iteratorIPNS_11__hash_nodeINS_17__hash_value_typeINS_12basic_stringIcNS_11char_traitsIcEENS_9allocatorIcEEEENS_6vectorI4PathNS6_ISA_EEEEEEPvEEEESJ_, symObjAddr: 0x13B00, symBinAddr: 0x100019250, symSize: 0x30 }
  - { offsetInCU: 0x2368A, offset: 0x3B593, size: 0x8, addend: 0x0, symName: __ZNSt3__1eqB7v160006INS_9allocatorIcEEEEbRKNS_12basic_stringIcNS_11char_traitsIcEET_EES9_, symObjAddr: 0x14DD0, symBinAddr: 0x100019740, symSize: 0x110 }
  - { offsetInCU: 0x236FD, offset: 0x3B606, size: 0x8, addend: 0x0, symName: __ZNSt3__118__constexpr_memcmpB7v160006IcEEiPKT_S3_m, symObjAddr: 0x14F40, symBinAddr: 0x1000198B0, symSize: 0x30 }
  - { offsetInCU: 0x2374E, offset: 0x3B657, size: 0x8, addend: 0x0, symName: __ZNSt3__17launderB7v160006IKNS_4pairIKNS_12basic_stringIcNS_11char_traitsIcEENS_9allocatorIcEEEENS_6vectorI4PathNS5_ISA_EEEEEEEEPT_SG_, symObjAddr: 0x14F70, symBinAddr: 0x1000198E0, symSize: 0x20 }
  - { offsetInCU: 0x23785, offset: 0x3B68E, size: 0x8, addend: 0x0, symName: __ZNSt3__19__launderB7v160006IKNS_4pairIKNS_12basic_stringIcNS_11char_traitsIcEENS_9allocatorIcEEEENS_6vectorI4PathNS5_ISA_EEEEEEEEPT_SG_, symObjAddr: 0x14F90, symBinAddr: 0x100019900, symSize: 0x10 }
  - { offsetInCU: 0x237BC, offset: 0x3B6C5, size: 0x8, addend: 0x0, symName: __ZNSt3__116forward_as_tupleB7v160006IJRKNS_12basic_stringIcNS_11char_traitsIcEENS_9allocatorIcEEEEEEENS_5tupleIJDpOT_EEESC_, symObjAddr: 0x15590, symBinAddr: 0x100019F00, symSize: 0x30 }
  - { offsetInCU: 0x23838, offset: 0x3B741, size: 0x8, addend: 0x0, symName: __ZNSt3__112construct_atB7v160006INS_4pairIKNS_12basic_stringIcNS_11char_traitsIcEENS_9allocatorIcEEEENS_6vectorI4PathNS5_ISA_EEEEEEJRKNS_21piecewise_construct_tENS_5tupleIJRS8_EEENSH_IJEEEEPSD_EEPT_SN_DpOT0_, symObjAddr: 0x15C10, symBinAddr: 0x10001A580, symSize: 0x50 }
  - { offsetInCU: 0x238CE, offset: 0x3B7D7, size: 0x8, addend: 0x0, symName: __ZNSt3__13getB7v160006ILm0EJRKNS_12basic_stringIcNS_11char_traitsIcEENS_9allocatorIcEEEEEEERNS_13tuple_elementIXT_ENS_5tupleIJDpT0_EEEE4typeERSD_, symObjAddr: 0x15D10, symBinAddr: 0x10001A680, symSize: 0x20 }
  - { offsetInCU: 0x23911, offset: 0x3B81A, size: 0x8, addend: 0x0, symName: __ZNSt3__125__debug_db_invalidate_allB7v160006INS_12__hash_tableINS_17__hash_value_typeINS_12basic_stringIcNS_11char_traitsIcEENS_9allocatorIcEEEENS_6vectorI4PathNS6_ISA_EEEEEENS_22__unordered_map_hasherIS8_SD_NS_4hashIS8_EENS_8equal_toIS8_EELb1EEENS_21__unordered_map_equalIS8_SD_SI_SG_Lb1EEENS6_ISD_EEEEEEvPT_, symObjAddr: 0x16250, symBinAddr: 0x10001ABC0, symSize: 0x10 }
  - { offsetInCU: 0x239AE, offset: 0x3B8B7, size: 0x8, addend: 0x0, symName: __ZNSt3__17launderB7v160006IKNS_4pairIKi4HostEEEEPT_S7_, symObjAddr: 0x171F0, symBinAddr: 0x10001BB60, symSize: 0x20 }
  - { offsetInCU: 0x239E5, offset: 0x3B8EE, size: 0x8, addend: 0x0, symName: __ZNSt3__19__launderB7v160006IKNS_4pairIKi4HostEEEEPT_S7_, symObjAddr: 0x17210, symBinAddr: 0x10001BB80, symSize: 0x10 }
  - { offsetInCU: 0x23A5F, offset: 0x3B968, size: 0x8, addend: 0x0, symName: __ZNSt3__112construct_atB7v160006INS_4pairIKi4HostEEJRiS3_EPS4_EEPT_S8_DpOT0_, symObjAddr: 0x174C0, symBinAddr: 0x10001BE30, symSize: 0x40 }
  - { offsetInCU: 0x23AE2, offset: 0x3B9EB, size: 0x8, addend: 0x0, symName: __ZNSt3__115__debug_db_swapB7v160006INS_13unordered_mapIi6PacketNS_4hashIiEENS_8equal_toIiEENS_9allocatorINS_4pairIKiS2_EEEEEEEEvPT_SE_, symObjAddr: 0x176F0, symBinAddr: 0x10001C050, symSize: 0x10 }
  - { offsetInCU: 0x23B21, offset: 0x3BA2A, size: 0x8, addend: 0x0, symName: __ZNSt3__115__debug_db_swapB7v160006INS_6vectorI4PathNS_9allocatorIS2_EEEEEEvPT_S7_, symObjAddr: 0x17AC0, symBinAddr: 0x10001C420, symSize: 0x10 }
  - { offsetInCU: 0x23B60, offset: 0x3BA69, size: 0x8, addend: 0x0, symName: __ZNSt3__125__debug_db_invalidate_allB7v160006INS_12__hash_tableINS_17__hash_value_typeIi4HostEENS_22__unordered_map_hasherIiS4_NS_4hashIiEENS_8equal_toIiEELb1EEENS_21__unordered_map_equalIiS4_S9_S7_Lb1EEENS_9allocatorIS4_EEEEEEvPT_, symObjAddr: 0x17FD0, symBinAddr: 0x10001C930, symSize: 0x10 }
  - { offsetInCU: 0x23BD4, offset: 0x3BADD, size: 0x8, addend: 0x0, symName: __ZNSt3__112construct_atB7v160006INS_4pairIKiNS_5mutexEEEJRKNS_21piecewise_construct_tENS_5tupleIJRiEEENS8_IJEEEEPS4_EEPT_SE_DpOT0_, symObjAddr: 0x18AB0, symBinAddr: 0x10001D410, symSize: 0x50 }
  - { offsetInCU: 0x23C6A, offset: 0x3BB73, size: 0x8, addend: 0x0, symName: __ZNSt3__13getB7v160006ILm0EJRiEEERNS_13tuple_elementIXT_ENS_5tupleIJDpT0_EEEE4typeERS6_, symObjAddr: 0x18BC0, symBinAddr: 0x10001D520, symSize: 0x20 }
  - { offsetInCU: 0x23CAD, offset: 0x3BBB6, size: 0x8, addend: 0x0, symName: __ZNSt3__17launderB7v160006IKNS_4pairIKiNS_5mutexEEEEEPT_S7_, symObjAddr: 0x18D00, symBinAddr: 0x10001D660, symSize: 0x20 }
  - { offsetInCU: 0x23CE4, offset: 0x3BBED, size: 0x8, addend: 0x0, symName: __ZNSt3__19__launderB7v160006IKNS_4pairIKiNS_5mutexEEEEEPT_S7_, symObjAddr: 0x18D20, symBinAddr: 0x10001D680, symSize: 0x10 }
  - { offsetInCU: 0x23D1B, offset: 0x3BC24, size: 0x8, addend: 0x0, symName: __ZNSt3__125__debug_db_invalidate_allB7v160006INS_12__hash_tableINS_17__hash_value_typeIiNS_5mutexEEENS_22__unordered_map_hasherIiS4_NS_4hashIiEENS_8equal_toIiEELb1EEENS_21__unordered_map_equalIiS4_S9_S7_Lb1EEENS_9allocatorIS4_EEEEEEvPT_, symObjAddr: 0x198E0, symBinAddr: 0x10001E240, symSize: 0x10 }
  - { offsetInCU: 0x23D70, offset: 0x3BC79, size: 0x8, addend: 0x0, symName: __ZNSt3__17launderB7v160006IKNS_4pairIKi6SwitchEEEEPT_S7_, symObjAddr: 0x1A800, symBinAddr: 0x10001F160, symSize: 0x20 }
  - { offsetInCU: 0x23DA7, offset: 0x3BCB0, size: 0x8, addend: 0x0, symName: __ZNSt3__19__launderB7v160006IKNS_4pairIKi6SwitchEEEEPT_S7_, symObjAddr: 0x1A820, symBinAddr: 0x10001F180, symSize: 0x10 }
  - { offsetInCU: 0x23E21, offset: 0x3BD2A, size: 0x8, addend: 0x0, symName: __ZNSt3__112construct_atB7v160006INS_4pairIKi6SwitchEEJRiS3_EPS4_EEPT_S8_DpOT0_, symObjAddr: 0x1AAD0, symBinAddr: 0x10001F430, symSize: 0x40 }
  - { offsetInCU: 0x23EA4, offset: 0x3BDAD, size: 0x8, addend: 0x0, symName: __ZNSt3__125__debug_db_invalidate_allB7v160006INS_12__hash_tableINS_17__hash_value_typeIi6SwitchEENS_22__unordered_map_hasherIiS4_NS_4hashIiEENS_8equal_toIiEELb1EEENS_21__unordered_map_equalIiS4_S9_S7_Lb1EEENS_9allocatorIS4_EEEEEEvPT_, symObjAddr: 0x1B100, symBinAddr: 0x10001FA60, symSize: 0x10 }
  - { offsetInCU: 0x244DF, offset: 0x3C3E8, size: 0x8, addend: 0x0, symName: '__ZNSt3__114__thread_proxyB7v160006INS_5tupleIJNS_10unique_ptrINS_15__thread_structENS_14default_deleteIS3_EEEEZ4sendR4Hosti6PacketNS_12basic_stringIcNS_11char_traitsIcEENS_9allocatorIcEEEEE3$_0EEEEEPvSI_', symObjAddr: 0x1BBA0, symBinAddr: 0x100020500, symSize: 0xA0 }
  - { offsetInCU: 0x24540, offset: 0x3C449, size: 0x8, addend: 0x0, symName: '__ZNSt3__13getB7v160006ILm0EJNS_10unique_ptrINS_15__thread_structENS_14default_deleteIS2_EEEEZ4sendR4Hosti6PacketNS_12basic_stringIcNS_11char_traitsIcEENS_9allocatorIcEEEEE3$_0EEERNS_13tuple_elementIXT_ENS_5tupleIJDpT0_EEEE4typeERSK_', symObjAddr: 0x1BE70, symBinAddr: 0x1000207D0, symSize: 0x20 }
  - { offsetInCU: 0x24589, offset: 0x3C492, size: 0x8, addend: 0x0, symName: '__ZNSt3__116__thread_executeB7v160006INS_10unique_ptrINS_15__thread_structENS_14default_deleteIS2_EEEEZ4sendR4Hosti6PacketNS_12basic_stringIcNS_11char_traitsIcEENS_9allocatorIcEEEEE3$_0JEJEEEvRNS_5tupleIJT_T0_DpT1_EEENS_15__tuple_indicesIJXspT2_EEEE', symObjAddr: 0x1BE90, symBinAddr: 0x1000207F0, symSize: 0x30 }
  - { offsetInCU: 0x245DC, offset: 0x3C4E5, size: 0x8, addend: 0x0, symName: '__ZNSt3__18__invokeB7v160006IZ4sendR4Hosti6PacketNS_12basic_stringIcNS_11char_traitsIcEENS_9allocatorIcEEEEE3$_0JEEEDTclclsr3stdE7declvalIT_EEspclsr3stdE7declvalIT0_EEEEOSB_DpOSC_', symObjAddr: 0x1BEC0, symBinAddr: 0x100020820, symSize: 0x20 }
  - { offsetInCU: 0x24615, offset: 0x3C51E, size: 0x8, addend: 0x0, symName: '__ZNSt3__13getB7v160006ILm1EJNS_10unique_ptrINS_15__thread_structENS_14default_deleteIS2_EEEEZ4sendR4Hosti6PacketNS_12basic_stringIcNS_11char_traitsIcEENS_9allocatorIcEEEEE3$_0EEERNS_13tuple_elementIXT_ENS_5tupleIJDpT0_EEEE4typeERSK_', symObjAddr: 0x1BEE0, symBinAddr: 0x100020840, symSize: 0x20 }
  - { offsetInCU: 0x2465D, offset: 0x3C566, size: 0x8, addend: 0x0, symName: __ZNSt3__1eqB7v160006ERKNS_19__hash_map_iteratorINS_15__hash_iteratorIPNS_11__hash_nodeINS_17__hash_value_typeIi6SwitchEEPvEEEEEESC_, symObjAddr: 0x1C1B0, symBinAddr: 0x100020B10, symSize: 0x30 }
  - { offsetInCU: 0x2469B, offset: 0x3C5A4, size: 0x8, addend: 0x0, symName: __ZNSt3__120__throw_out_of_rangeB7v160006EPKc, symObjAddr: 0x1C1E0, symBinAddr: 0x100020B40, symSize: 0x70 }
  - { offsetInCU: 0x246C5, offset: 0x3C5CE, size: 0x8, addend: 0x0, symName: __ZNSt3__1eqB7v160006ERKNS_15__hash_iteratorIPNS_11__hash_nodeINS_17__hash_value_typeIi6SwitchEEPvEEEESA_, symObjAddr: 0x1C430, symBinAddr: 0x100020D90, symSize: 0x30 }
  - { offsetInCU: 0x24768, offset: 0x3C671, size: 0x8, addend: 0x0, symName: __ZNSt3__116forward_as_tupleB7v160006IJRKiEEENS_5tupleIJDpOT_EEES6_, symObjAddr: 0x1CAD0, symBinAddr: 0x100021430, symSize: 0x30 }
  - { offsetInCU: 0x247A1, offset: 0x3C6AA, size: 0x8, addend: 0x0, symName: __ZNSt3__112construct_atB7v160006INS_4pairIKi6PacketEEJRKNS_21piecewise_construct_tENS_5tupleIJRS2_EEENS8_IJEEEEPS4_EEPT_SE_DpOT0_, symObjAddr: 0x1CC90, symBinAddr: 0x1000215F0, symSize: 0x50 }
  - { offsetInCU: 0x24837, offset: 0x3C740, size: 0x8, addend: 0x0, symName: __ZNSt3__13getB7v160006ILm0EJRKiEEERNS_13tuple_elementIXT_ENS_5tupleIJDpT0_EEEE4typeERS7_, symObjAddr: 0x1CD80, symBinAddr: 0x1000216E0, symSize: 0x20 }
  - { offsetInCU: 0x2488F, offset: 0x3C798, size: 0x8, addend: 0x0, symName: __ZNSt3__116__pad_and_outputB7v160006IcNS_11char_traitsIcEEEENS_19ostreambuf_iteratorIT_T0_EES6_PKS4_S8_S8_RNS_8ios_baseES4_, symObjAddr: 0x1D0B0, symBinAddr: 0x100021A10, symSize: 0x220 }
  - { offsetInCU: 0x24960, offset: 0x3C869, size: 0x8, addend: 0x0, symName: __ZNSt3__112__to_addressB7v160006IcEEPT_S2_, symObjAddr: 0x1D4E0, symBinAddr: 0x100021E40, symSize: 0x10 }
  - { offsetInCU: 0x24995, offset: 0x3C89E, size: 0x8, addend: 0x0, symName: __ZNSt3__1neB7v160006ERKNS_15__hash_iteratorIPNS_11__hash_nodeINS_17__hash_value_typeIi6SwitchEEPvEEEESA_, symObjAddr: 0x1D580, symBinAddr: 0x100021EE0, symSize: 0x30 }
  - { offsetInCU: 0x249D2, offset: 0x3C8DB, size: 0x8, addend: 0x0, symName: __ZNSt3__1neB7v160006ERKNS_15__hash_iteratorIPNS_11__hash_nodeINS_17__hash_value_typeIi6PacketEEPvEEEESA_, symObjAddr: 0x1D690, symBinAddr: 0x100021FF0, symSize: 0x30 }
  - { offsetInCU: 0x24A0F, offset: 0x3C918, size: 0x8, addend: 0x0, symName: __ZNSt3__1eqB7v160006ERKNS_15__hash_iteratorIPNS_11__hash_nodeINS_17__hash_value_typeIi6PacketEEPvEEEESA_, symObjAddr: 0x1D6C0, symBinAddr: 0x100022020, symSize: 0x30 }
  - { offsetInCU: 0x24A70, offset: 0x3C979, size: 0x8, addend: 0x0, symName: __ZNSt3__113__countl_zeroB7v160006IjEEiT_, symObjAddr: 0x1DB20, symBinAddr: 0x100022480, symSize: 0x40 }
  - { offsetInCU: 0x24AA5, offset: 0x3C9AE, size: 0x8, addend: 0x0, symName: __ZNSt3__112__libcpp_clzB7v160006Ej, symObjAddr: 0x1DF10, symBinAddr: 0x100022870, symSize: 0x20 }
  - { offsetInCU: 0x24AD1, offset: 0x3C9DA, size: 0x8, addend: 0x0, symName: __ZNSt3__1eqB7v160006ERKNS_19__hash_map_iteratorINS_15__hash_iteratorIPNS_11__hash_nodeINS_17__hash_value_typeIi4HostEEPvEEEEEESC_, symObjAddr: 0x1DF80, symBinAddr: 0x1000228E0, symSize: 0x30 }
  - { offsetInCU: 0x24B0E, offset: 0x3CA17, size: 0x8, addend: 0x0, symName: __ZNSt3__1eqB7v160006ERKNS_15__hash_iteratorIPNS_11__hash_nodeINS_17__hash_value_typeIi4HostEEPvEEEESA_, symObjAddr: 0x1E1C0, symBinAddr: 0x100022B20, symSize: 0x30 }
  - { offsetInCU: 0x24FAE, offset: 0x3CEB7, size: 0x8, addend: 0x0, symName: __ZNSt3__114__thread_proxyB7v160006INS_5tupleIJNS_10unique_ptrINS_15__thread_structENS_14default_deleteIS3_EEEEPFviiNS_12basic_stringIcNS_11char_traitsIcEENS_9allocatorIcEEEEEiiSC_EEEEEPvSG_, symObjAddr: 0x1E440, symBinAddr: 0x100022DA0, symSize: 0xA0 }
  - { offsetInCU: 0x2501D, offset: 0x3CF26, size: 0x8, addend: 0x0, symName: __ZNSt3__13getB7v160006ILm0EJNS_10unique_ptrINS_15__thread_structENS_14default_deleteIS2_EEEEPFviiNS_12basic_stringIcNS_11char_traitsIcEENS_9allocatorIcEEEEEiiSB_EEERNS_13tuple_elementIXT_ENS_5tupleIJDpT0_EEEE4typeERSI_, symObjAddr: 0x1E810, symBinAddr: 0x100023170, symSize: 0x20 }
  - { offsetInCU: 0x25075, offset: 0x3CF7E, size: 0x8, addend: 0x0, symName: __ZNSt3__116__thread_executeB7v160006INS_10unique_ptrINS_15__thread_structENS_14default_deleteIS2_EEEEPFviiNS_12basic_stringIcNS_11char_traitsIcEENS_9allocatorIcEEEEEJiiSB_EJLm2ELm3ELm4EEEEvRNS_5tupleIJT_T0_DpT1_EEENS_15__tuple_indicesIJXspT2_EEEE, symObjAddr: 0x1E830, symBinAddr: 0x100023190, symSize: 0x60 }
  - { offsetInCU: 0x250EA, offset: 0x3CFF3, size: 0x8, addend: 0x0, symName: __ZNSt3__18__invokeB7v160006IPFviiNS_12basic_stringIcNS_11char_traitsIcEENS_9allocatorIcEEEEEJiiS6_EEEDTclclsr3stdE7declvalIT_EEspclsr3stdE7declvalIT0_EEEEOS9_DpOSA_, symObjAddr: 0x1E890, symBinAddr: 0x1000231F0, symSize: 0x90 }
  - { offsetInCU: 0x2515E, offset: 0x3D067, size: 0x8, addend: 0x0, symName: __ZNSt3__13getB7v160006ILm1EJNS_10unique_ptrINS_15__thread_structENS_14default_deleteIS2_EEEEPFviiNS_12basic_stringIcNS_11char_traitsIcEENS_9allocatorIcEEEEEiiSB_EEERNS_13tuple_elementIXT_ENS_5tupleIJDpT0_EEEE4typeERSI_, symObjAddr: 0x1E920, symBinAddr: 0x100023280, symSize: 0x20 }
  - { offsetInCU: 0x251B5, offset: 0x3D0BE, size: 0x8, addend: 0x0, symName: __ZNSt3__13getB7v160006ILm2EJNS_10unique_ptrINS_15__thread_structENS_14default_deleteIS2_EEEEPFviiNS_12basic_stringIcNS_11char_traitsIcEENS_9allocatorIcEEEEEiiSB_EEERNS_13tuple_elementIXT_ENS_5tupleIJDpT0_EEEE4typeERSI_, symObjAddr: 0x1E940, symBinAddr: 0x1000232A0, symSize: 0x20 }
  - { offsetInCU: 0x2520C, offset: 0x3D115, size: 0x8, addend: 0x0, symName: __ZNSt3__13getB7v160006ILm3EJNS_10unique_ptrINS_15__thread_structENS_14default_deleteIS2_EEEEPFviiNS_12basic_stringIcNS_11char_traitsIcEENS_9allocatorIcEEEEEiiSB_EEERNS_13tuple_elementIXT_ENS_5tupleIJDpT0_EEEE4typeERSI_, symObjAddr: 0x1E960, symBinAddr: 0x1000232C0, symSize: 0x20 }
  - { offsetInCU: 0x25263, offset: 0x3D16C, size: 0x8, addend: 0x0, symName: __ZNSt3__13getB7v160006ILm4EJNS_10unique_ptrINS_15__thread_structENS_14default_deleteIS2_EEEEPFviiNS_12basic_stringIcNS_11char_traitsIcEENS_9allocatorIcEEEEEiiSB_EEERNS_13tuple_elementIXT_ENS_5tupleIJDpT0_EEEE4typeERSI_, symObjAddr: 0x1E980, symBinAddr: 0x1000232E0, symSize: 0x20 }
  - { offsetInCU: 0x252BA, offset: 0x3D1C3, size: 0x8, addend: 0x0, symName: __ZNSt3__112construct_atB7v160006INS_4pairIKi6SwitchEEJRKNS_21piecewise_construct_tENS_5tupleIJRS2_EEENS8_IJEEEEPS4_EEPT_SE_DpOT0_, symObjAddr: 0x1F330, symBinAddr: 0x100023C90, symSize: 0x50 }
  - { offsetInCU: 0x25F83, offset: 0x3DE8C, size: 0x8, addend: 0x0, symName: _ongoing_allreduces, symObjAddr: 0x15B988, symBinAddr: 0x10002C0F0, symSize: 0x0 }
  - { offsetInCU: 0x26188, offset: 0x3E091, size: 0x8, addend: 0x0, symName: _data_threads, symObjAddr: 0x15B9A0, symBinAddr: 0x10002C108, symSize: 0x0 }
  - { offsetInCU: 0x263CE, offset: 0x3E2D7, size: 0x8, addend: 0x0, symName: _switch_map_mutex, symObjAddr: 0x21978, symBinAddr: 0x10002C000, symSize: 0x0 }
  - { offsetInCU: 0x26441, offset: 0x3E34A, size: 0x8, addend: 0x0, symName: _host_map_mutex, symObjAddr: 0x219B8, symBinAddr: 0x10002C040, symSize: 0x0 }
  - { offsetInCU: 0x26457, offset: 0x3E360, size: 0x8, addend: 0x0, symName: _all_paths_mutex, symObjAddr: 0x219F8, symBinAddr: 0x10002C080, symSize: 0x0 }
  - { offsetInCU: 0x2646D, offset: 0x3E376, size: 0x8, addend: 0x0, symName: _host_map, symObjAddr: 0x15B9B8, symBinAddr: 0x10002C120, symSize: 0x0 }
  - { offsetInCU: 0x26C6C, offset: 0x3EB75, size: 0x8, addend: 0x0, symName: _switch_map, symObjAddr: 0x15B9E0, symBinAddr: 0x10002C148, symSize: 0x0 }
  - { offsetInCU: 0x27187, offset: 0x3F090, size: 0x8, addend: 0x0, symName: _switch_mutex_map, symObjAddr: 0x15BA08, symBinAddr: 0x10002C170, symSize: 0x0 }
  - { offsetInCU: 0x27612, offset: 0x3F51B, size: 0x8, addend: 0x0, symName: _host_mutex_map, symObjAddr: 0x15BA30, symBinAddr: 0x10002C198, symSize: 0x0 }
  - { offsetInCU: 0x27628, offset: 0x3F531, size: 0x8, addend: 0x0, symName: _keep_running, symObjAddr: 0x21A38, symBinAddr: 0x10002C0C0, symSize: 0x0 }
  - { offsetInCU: 0x27695, offset: 0x3F59E, size: 0x8, addend: 0x0, symName: _root_switch, symObjAddr: 0x15BA58, symBinAddr: 0x10002C1C0, symSize: 0x0 }
  - { offsetInCU: 0x276AB, offset: 0x3F5B4, size: 0x8, addend: 0x0, symName: _tree_types, symObjAddr: 0x15BA60, symBinAddr: 0x10002C1C8, symSize: 0x0 }
  - { offsetInCU: 0x278C9, offset: 0x3F7D2, size: 0x8, addend: 0x0, symName: __ZL7TIMEOUT, symObjAddr: 0x21C68, symBinAddr: 0x100027150, symSize: 0x0 }
  - { offsetInCU: 0x27D21, offset: 0x3FC2A, size: 0x8, addend: 0x0, symName: _main, symObjAddr: 0x2980, symBinAddr: 0x10000C4C0, symSize: 0x630 }
  - { offsetInCU: 0x2800C, offset: 0x3FF15, size: 0x8, addend: 0x0, symName: __ZNSt3__16vectorINS_6threadENS_9allocatorIS1_EEE26__swap_out_circular_bufferERNS_14__split_bufferIS1_RS3_EE, symObjAddr: 0xED50, symBinAddr: 0x100014580, symSize: 0x130 }
  - { offsetInCU: 0x280CA, offset: 0x3FFD3, size: 0x8, addend: 0x0, symName: __ZNKSt3__16chrono15__duration_castINS0_8durationIxNS_5ratioILl1ELl1000000000EEEEENS2_IxNS3_ILl1ELl1000EEEEENS3_ILl1ELl1000000EEELb1ELb0EEclB7v160006ERKS5_, symObjAddr: 0x10110, symBinAddr: 0x100015940, symSize: 0x50 }
  - { offsetInCU: 0x281C8, offset: 0x400D1, size: 0x8, addend: 0x0, symName: __ZNKSt3__16chrono13__duration_ltINS0_8durationIxNS_5ratioILl1ELl1EEEEENS2_IeS4_EEEclB7v160006ERKS5_RKS6_, symObjAddr: 0x1B710, symBinAddr: 0x100020070, symSize: 0x60 }
  - { offsetInCU: 0x28221, offset: 0x4012A, size: 0x8, addend: 0x0, symName: __ZNKSt3__16chrono15__duration_castINS0_8durationIxNS_5ratioILl1ELl1EEEEENS2_IxNS3_ILl1ELl1000000000EEEEENS3_ILl1000000000ELl1EEELb0ELb1EEclB7v160006ERKS5_, symObjAddr: 0x1B8B0, symBinAddr: 0x100020210, symSize: 0x40 }
  - { offsetInCU: 0x28269, offset: 0x40172, size: 0x8, addend: 0x0, symName: __ZNKSt3__16chrono13__duration_ltINS0_8durationIxNS_5ratioILl1ELl1000000000EEEEENS2_IxNS3_ILl1ELl1EEEEEEclB7v160006ERKS5_RKS7_, symObjAddr: 0x1B8F0, symBinAddr: 0x100020250, symSize: 0x60 }
  - { offsetInCU: 0x282BC, offset: 0x401C5, size: 0x8, addend: 0x0, symName: __Z4sendR4Hosti6PacketNSt3__112basic_stringIcNS2_11char_traitsIcEENS2_9allocatorIcEEEE, symObjAddr: 0x1580, symBinAddr: 0x10000B140, symSize: 0x280 }
  - { offsetInCU: 0x28558, offset: 0x40461, size: 0x8, addend: 0x0, symName: __ZNSt3__124uniform_int_distributionIiEclINS_23mersenne_twister_engineIjLm32ELm624ELm397ELm31ELj2567483615ELm11ELj4294967295ELm7ELj2636928640ELm15ELj4022730752ELm18ELj1812433253EEEEEiRT_RKNS1_10param_typeE, symObjAddr: 0x1D950, symBinAddr: 0x1000222B0, symSize: 0x150 }
  - { offsetInCU: 0x2A442, offset: 0x4234B, size: 0x8, addend: 0x0, symName: __ZNSt3__113unordered_mapINS_12basic_stringIcNS_11char_traitsIcEENS_9allocatorIcEEEENS_6vectorI4PathNS4_IS8_EEEENS_4hashIS6_EENS_8equal_toIS6_EENS4_INS_4pairIKS6_SA_EEEEEC1B7v160006Ev, symObjAddr: 0x0, symBinAddr: 0x100009C50, symSize: 0x20 }
  - { offsetInCU: 0x2A46B, offset: 0x42374, size: 0x8, addend: 0x0, symName: __ZNSt3__113unordered_mapINS_12basic_stringIcNS_11char_traitsIcEENS_9allocatorIcEEEENS_6vectorI4PathNS4_IS8_EEEENS_4hashIS6_EENS_8equal_toIS6_EENS4_INS_4pairIKS6_SA_EEEEED1B7v160006Ev, symObjAddr: 0x20, symBinAddr: 0x100009C70, symSize: 0x20 }
  - { offsetInCU: 0x2A494, offset: 0x4239D, size: 0x8, addend: 0x0, symName: __ZNSt3__16vectorINS0_IiNS_9allocatorIiEEEENS1_IS3_EEED1B7v160006Ev, symObjAddr: 0x40, symBinAddr: 0x100009C90, symSize: 0x20 }
  - { offsetInCU: 0x2A4BD, offset: 0x423C6, size: 0x8, addend: 0x0, symName: __ZNSt3__16vectorINS_6threadENS_9allocatorIS1_EEED1B7v160006Ev, symObjAddr: 0x60, symBinAddr: 0x100009CB0, symSize: 0x20 }
  - { offsetInCU: 0x2A4E6, offset: 0x423EF, size: 0x8, addend: 0x0, symName: __ZNSt3__113unordered_mapIi4HostNS_4hashIiEENS_8equal_toIiEENS_9allocatorINS_4pairIKiS1_EEEEEC1B7v160006Ev, symObjAddr: 0x80, symBinAddr: 0x100009CD0, symSize: 0x20 }
  - { offsetInCU: 0x2A50F, offset: 0x42418, size: 0x8, addend: 0x0, symName: __ZNSt3__113unordered_mapIi4HostNS_4hashIiEENS_8equal_toIiEENS_9allocatorINS_4pairIKiS1_EEEEED1B7v160006Ev, symObjAddr: 0xA0, symBinAddr: 0x100009CF0, symSize: 0x20 }
  - { offsetInCU: 0x2A538, offset: 0x42441, size: 0x8, addend: 0x0, symName: __ZNSt3__113unordered_mapIi6SwitchNS_4hashIiEENS_8equal_toIiEENS_9allocatorINS_4pairIKiS1_EEEEEC1B7v160006Ev, symObjAddr: 0xC0, symBinAddr: 0x100009D10, symSize: 0x20 }
  - { offsetInCU: 0x2A561, offset: 0x4246A, size: 0x8, addend: 0x0, symName: __ZNSt3__113unordered_mapIi6SwitchNS_4hashIiEENS_8equal_toIiEENS_9allocatorINS_4pairIKiS1_EEEEED1B7v160006Ev, symObjAddr: 0xE0, symBinAddr: 0x100009D30, symSize: 0x20 }
  - { offsetInCU: 0x2A58A, offset: 0x42493, size: 0x8, addend: 0x0, symName: __ZNSt3__113unordered_mapIiNS_5mutexENS_4hashIiEENS_8equal_toIiEENS_9allocatorINS_4pairIKiS1_EEEEEC1B7v160006Ev, symObjAddr: 0x100, symBinAddr: 0x100009D50, symSize: 0x20 }
  - { offsetInCU: 0x2A5B3, offset: 0x424BC, size: 0x8, addend: 0x0, symName: __ZNSt3__113unordered_mapIiNS_5mutexENS_4hashIiEENS_8equal_toIiEENS_9allocatorINS_4pairIKiS1_EEEEED1B7v160006Ev, symObjAddr: 0x120, symBinAddr: 0x100009D70, symSize: 0x20 }
  - { offsetInCU: 0x2A5E1, offset: 0x424EA, size: 0x8, addend: 0x0, symName: __ZNSt3__112basic_stringIcNS_11char_traitsIcEENS_9allocatorIcEEEC1B7v160006IDnEEPKc, symObjAddr: 0x140, symBinAddr: 0x100009D90, symSize: 0x30 }
  - { offsetInCU: 0x2A61E, offset: 0x42527, size: 0x8, addend: 0x0, symName: __ZNSt3__16vectorINS_12basic_stringIcNS_11char_traitsIcEENS_9allocatorIcEEEENS4_IS6_EEEC1B7v160006ESt16initializer_listIS6_E, symObjAddr: 0x170, symBinAddr: 0x100009DC0, symSize: 0x30 }
  - { offsetInCU: 0x2A658, offset: 0x42561, size: 0x8, addend: 0x0, symName: __ZNSt3__16vectorINS0_INS_12basic_stringIcNS_11char_traitsIcEENS_9allocatorIcEEEENS4_IS6_EEEENS4_IS8_EEEC1B7v160006ESt16initializer_listIS8_E, symObjAddr: 0x1A0, symBinAddr: 0x100009DF0, symSize: 0x30 }
  - { offsetInCU: 0x2A692, offset: 0x4259B, size: 0x8, addend: 0x0, symName: __ZNSt3__16vectorINS_12basic_stringIcNS_11char_traitsIcEENS_9allocatorIcEEEENS4_IS6_EEED1B7v160006Ev, symObjAddr: 0x1D0, symBinAddr: 0x100009E20, symSize: 0x20 }
  - { offsetInCU: 0x2A6BB, offset: 0x425C4, size: 0x8, addend: 0x0, symName: __ZNSt3__16vectorINS0_INS_12basic_stringIcNS_11char_traitsIcEENS_9allocatorIcEEEENS4_IS6_EEEENS4_IS8_EEED1B7v160006Ev, symObjAddr: 0x1F0, symBinAddr: 0x100009E40, symSize: 0x20 }
  - { offsetInCU: 0x2A6E3, offset: 0x425EC, size: 0x8, addend: 0x0, symName: __Z13network_setupiii, symObjAddr: 0x210, symBinAddr: 0x100009E60, symSize: 0x970 }
  - { offsetInCU: 0x2A864, offset: 0x4276D, size: 0x8, addend: 0x0, symName: __ZNSt3__16vectorINS0_INS_12basic_stringIcNS_11char_traitsIcEENS_9allocatorIcEEEENS4_IS6_EEEENS4_IS8_EEEixB7v160006Em, symObjAddr: 0xB80, symBinAddr: 0x10000A7D0, symSize: 0x20 }
  - { offsetInCU: 0x2A899, offset: 0x427A2, size: 0x8, addend: 0x0, symName: __ZNSt3__16vectorINS_12basic_stringIcNS_11char_traitsIcEENS_9allocatorIcEEEENS4_IS6_EEEC1ERKS8_, symObjAddr: 0xBA0, symBinAddr: 0x10000A7F0, symSize: 0x30 }
  - { offsetInCU: 0x2A8D3, offset: 0x427DC, size: 0x8, addend: 0x0, symName: __ZNSt3__16vectorINS_12basic_stringIcNS_11char_traitsIcEENS_9allocatorIcEEEENS4_IS6_EEE5beginB7v160006Ev, symObjAddr: 0xBD0, symBinAddr: 0x10000A820, symSize: 0x30 }
  - { offsetInCU: 0x2A8F9, offset: 0x42802, size: 0x8, addend: 0x0, symName: __ZNSt3__16vectorINS_12basic_stringIcNS_11char_traitsIcEENS_9allocatorIcEEEENS4_IS6_EEE3endB7v160006Ev, symObjAddr: 0xC00, symBinAddr: 0x10000A850, symSize: 0x30 }
  - { offsetInCU: 0x2A91F, offset: 0x42828, size: 0x8, addend: 0x0, symName: __ZNKSt3__111__wrap_iterIPNS_12basic_stringIcNS_11char_traitsIcEENS_9allocatorIcEEEEEdeB7v160006Ev, symObjAddr: 0xC60, symBinAddr: 0x10000A8B0, symSize: 0x20 }
  - { offsetInCU: 0x2AA09, offset: 0x42912, size: 0x8, addend: 0x0, symName: __ZNSt3__119basic_istringstreamIcNS_11char_traitsIcEENS_9allocatorIcEEEC1B7v160006ERKNS_12basic_stringIcS2_S4_EEj, symObjAddr: 0xC80, symBinAddr: 0x10000A8D0, symSize: 0xE0 }
  - { offsetInCU: 0x2AA50, offset: 0x42959, size: 0x8, addend: 0x0, symName: __ZNSt3__112basic_stringIcNS_11char_traitsIcEENS_9allocatorIcEEEC1B7v160006Ev, symObjAddr: 0xD60, symBinAddr: 0x10000A9B0, symSize: 0x20 }
  - { offsetInCU: 0x2AA79, offset: 0x42982, size: 0x8, addend: 0x0, symName: __ZNKSt3__113unordered_mapINS_12basic_stringIcNS_11char_traitsIcEENS_9allocatorIcEEEENS_6vectorI4PathNS4_IS8_EEEENS_4hashIS6_EENS_8equal_toIS6_EENS4_INS_4pairIKS6_SA_EEEEE8containsB7v160006ERSG_, symObjAddr: 0xFF0, symBinAddr: 0x10000AC40, symSize: 0x50 }
  - { offsetInCU: 0x2AAAD, offset: 0x429B6, size: 0x8, addend: 0x0, symName: __ZNSt3__113unordered_mapINS_12basic_stringIcNS_11char_traitsIcEENS_9allocatorIcEEEENS_6vectorI4PathNS4_IS8_EEEENS_4hashIS6_EENS_8equal_toIS6_EENS4_INS_4pairIKS6_SA_EEEEEixERSG_, symObjAddr: 0x1040, symBinAddr: 0x10000AC90, symSize: 0x70 }
  - { offsetInCU: 0x2AAE2, offset: 0x429EB, size: 0x8, addend: 0x0, symName: __ZNSt3__16vectorI4PathNS_9allocatorIS1_EEE12emplace_backIJRNS_12basic_stringIcNS_11char_traitsIcEENS2_IcEEEESB_EEERS1_DpOT_, symObjAddr: 0x10B0, symBinAddr: 0x10000AD00, symSize: 0x70 }
  - { offsetInCU: 0x2AB36, offset: 0x42A3F, size: 0x8, addend: 0x0, symName: __ZNSt3__16vectorI4PathNS_9allocatorIS1_EEEaSB7v160006ESt16initializer_listIS1_E, symObjAddr: 0x1120, symBinAddr: 0x10000AD70, symSize: 0x50 }
  - { offsetInCU: 0x2AB6F, offset: 0x42A78, size: 0x8, addend: 0x0, symName: __ZNSt3__119basic_istringstreamIcNS_11char_traitsIcEENS_9allocatorIcEEED1Ev, symObjAddr: 0x1190, symBinAddr: 0x10000ADC0, symSize: 0x40 }
  - { offsetInCU: 0x2AB9B, offset: 0x42AA4, size: 0x8, addend: 0x0, symName: __ZNSt3__111__wrap_iterIPNS_12basic_stringIcNS_11char_traitsIcEENS_9allocatorIcEEEEEppB7v160006Ev, symObjAddr: 0x11D0, symBinAddr: 0x10000AE00, symSize: 0x20 }
  - { offsetInCU: 0x2ABC5, offset: 0x42ACE, size: 0x8, addend: 0x0, symName: __ZNSt3__113unordered_mapIi4HostNS_4hashIiEENS_8equal_toIiEENS_9allocatorINS_4pairIKiS1_EEEEE7emplaceB7v160006IJRiS1_EEENS7_INS_19__hash_map_iteratorINS_15__hash_iteratorIPNS_11__hash_nodeINS_17__hash_value_typeIiS1_EEPvEEEEEEbEEDpOT_, symObjAddr: 0x1290, symBinAddr: 0x10000AE70, symSize: 0x50 }
  - { offsetInCU: 0x2AC18, offset: 0x42B21, size: 0x8, addend: 0x0, symName: __ZN4HostD1Ev, symObjAddr: 0x12E0, symBinAddr: 0x10000AEC0, symSize: 0x20 }
  - { offsetInCU: 0x2AC57, offset: 0x42B60, size: 0x8, addend: 0x0, symName: __ZNSt3__113unordered_mapIiNS_5mutexENS_4hashIiEENS_8equal_toIiEENS_9allocatorINS_4pairIKiS1_EEEEE7emplaceB7v160006IJRKNS_21piecewise_construct_tENS_5tupleIJRiEEENSG_IJEEEEEENS7_INS_19__hash_map_iteratorINS_15__hash_iteratorIPNS_11__hash_nodeINS_17__hash_value_typeIiS1_EEPvEEEEEEbEEDpOT_, symObjAddr: 0x1300, symBinAddr: 0x10000AEE0, symSize: 0x50 }
  - { offsetInCU: 0x2ACC3, offset: 0x42BCC, size: 0x8, addend: 0x0, symName: __ZNSt3__113unordered_mapIi6SwitchNS_4hashIiEENS_8equal_toIiEENS_9allocatorINS_4pairIKiS1_EEEEE7emplaceB7v160006IJRiS1_EEENS7_INS_19__hash_map_iteratorINS_15__hash_iteratorIPNS_11__hash_nodeINS_17__hash_value_typeIiS1_EEPvEEEEEEbEEDpOT_, symObjAddr: 0x13B0, symBinAddr: 0x10000AF70, symSize: 0x50 }
  - { offsetInCU: 0x2AD16, offset: 0x42C1F, size: 0x8, addend: 0x0, symName: __ZN6SwitchD1Ev, symObjAddr: 0x1400, symBinAddr: 0x10000AFC0, symSize: 0x20 }
  - { offsetInCU: 0x2AD40, offset: 0x42C49, size: 0x8, addend: 0x0, symName: __Z8getPathsR4Host, symObjAddr: 0x1420, symBinAddr: 0x10000AFE0, symSize: 0xB0 }
  - { offsetInCU: 0x2AD7A, offset: 0x42C83, size: 0x8, addend: 0x0, symName: __Z8getPathsR6Switch, symObjAddr: 0x14D0, symBinAddr: 0x10000B090, symSize: 0xB0 }
  - { offsetInCU: 0x2ADBA, offset: 0x42CC3, size: 0x8, addend: 0x0, symName: __ZNSt3__16chrono8durationIxNS_5ratioILl1ELl1EEEEC1B7v160006IiEERKT_PNS_9enable_ifIXaasr14is_convertibleIS8_xEE5valueooL_ZNS_17integral_constantIbLb0EE5valueEEntsr23treat_as_floating_pointIS6_EE5valueEvE4typeE, symObjAddr: 0x18F0, symBinAddr: 0x10000B490, symSize: 0x30 }
  - { offsetInCU: 0x2AE0B, offset: 0x42D14, size: 0x8, addend: 0x0, symName: '__ZNSt3__16threadC1IZ4sendR4Hosti6PacketNS_12basic_stringIcNS_11char_traitsIcEENS_9allocatorIcEEEEE3$_0JEvEEOT_DpOT0_', symObjAddr: 0x1950, symBinAddr: 0x10000B4F0, symSize: 0x30 }
  - { offsetInCU: 0x2AE52, offset: 0x42D5B, size: 0x8, addend: 0x0, symName: __ZNSt3__112basic_stringIcNS_11char_traitsIcEENS_9allocatorIcEEEixB7v160006Em, symObjAddr: 0x1980, symBinAddr: 0x10000B520, symSize: 0x30 }
  - { offsetInCU: 0x2AE86, offset: 0x42D8F, size: 0x8, addend: 0x0, symName: __ZNSt3__113unordered_mapIi6SwitchNS_4hashIiEENS_8equal_toIiEENS_9allocatorINS_4pairIKiS1_EEEEE2atERS8_, symObjAddr: 0x19B0, symBinAddr: 0x10000B550, symSize: 0x70 }
  - { offsetInCU: 0x2AECA, offset: 0x42DD3, size: 0x8, addend: 0x0, symName: __ZNSt3__113unordered_mapIi6PacketNS_4hashIiEENS_8equal_toIiEENS_9allocatorINS_4pairIKiS1_EEEEEixERS8_, symObjAddr: 0x1A20, symBinAddr: 0x10000B5C0, symSize: 0x70 }
  - { offsetInCU: 0x2AEFE, offset: 0x42E07, size: 0x8, addend: 0x0, symName: __Z12forward_dataiiNSt3__112basic_stringIcNS_11char_traitsIcEENS_9allocatorIcEEEE, symObjAddr: 0x1A90, symBinAddr: 0x10000B630, symSize: 0x3F0 }
  - { offsetInCU: 0x2B067, offset: 0x42F70, size: 0x8, addend: 0x0, symName: __ZNSt3__113basic_ostreamIcNS_11char_traitsIcEEElsB7v160006EPFRS3_S4_E, symObjAddr: 0x1EC0, symBinAddr: 0x10000BA60, symSize: 0x20 }
  - { offsetInCU: 0x2B09A, offset: 0x42FA3, size: 0x8, addend: 0x0, symName: __ZNSt3__113unordered_mapIi6SwitchNS_4hashIiEENS_8equal_toIiEENS_9allocatorINS_4pairIKiS1_EEEEE5beginB7v160006Ev, symObjAddr: 0x1F30, symBinAddr: 0x10000BAD0, symSize: 0x30 }
  - { offsetInCU: 0x2B0BF, offset: 0x42FC8, size: 0x8, addend: 0x0, symName: __ZNSt3__113unordered_mapIi6SwitchNS_4hashIiEENS_8equal_toIiEENS_9allocatorINS_4pairIKiS1_EEEEE3endB7v160006Ev, symObjAddr: 0x1F60, symBinAddr: 0x10000BB00, symSize: 0x30 }
  - { offsetInCU: 0x2B0E4, offset: 0x42FED, size: 0x8, addend: 0x0, symName: __ZNKSt3__119__hash_map_iteratorINS_15__hash_iteratorIPNS_11__hash_nodeINS_17__hash_value_typeIi6SwitchEEPvEEEEEdeB7v160006Ev, symObjAddr: 0x1FC0, symBinAddr: 0x10000BB60, symSize: 0x30 }
  - { offsetInCU: 0x2B109, offset: 0x43012, size: 0x8, addend: 0x0, symName: __ZNSt3__113unordered_mapIi6PacketNS_4hashIiEENS_8equal_toIiEENS_9allocatorINS_4pairIKiS1_EEEEE5beginB7v160006Ev, symObjAddr: 0x2020, symBinAddr: 0x10000BB90, symSize: 0x30 }
  - { offsetInCU: 0x2B12E, offset: 0x43037, size: 0x8, addend: 0x0, symName: __ZNSt3__113unordered_mapIi6PacketNS_4hashIiEENS_8equal_toIiEENS_9allocatorINS_4pairIKiS1_EEEEE3endB7v160006Ev, symObjAddr: 0x2050, symBinAddr: 0x10000BBC0, symSize: 0x30 }
  - { offsetInCU: 0x2B153, offset: 0x4305C, size: 0x8, addend: 0x0, symName: __ZNKSt3__119__hash_map_iteratorINS_15__hash_iteratorIPNS_11__hash_nodeINS_17__hash_value_typeIi6PacketEEPvEEEEEdeB7v160006Ev, symObjAddr: 0x20B0, symBinAddr: 0x10000BC20, symSize: 0x30 }
  - { offsetInCU: 0x2B178, offset: 0x43081, size: 0x8, addend: 0x0, symName: __ZNSt3__119__hash_map_iteratorINS_15__hash_iteratorIPNS_11__hash_nodeINS_17__hash_value_typeIi6PacketEEPvEEEEEppB7v160006Ev, symObjAddr: 0x2110, symBinAddr: 0x10000BC50, symSize: 0x30 }
  - { offsetInCU: 0x2B19D, offset: 0x430A6, size: 0x8, addend: 0x0, symName: __ZNSt3__119__hash_map_iteratorINS_15__hash_iteratorIPNS_11__hash_nodeINS_17__hash_value_typeIi6SwitchEEPvEEEEEppB7v160006Ev, symObjAddr: 0x2140, symBinAddr: 0x10000BC80, symSize: 0x30 }
  - { offsetInCU: 0x2B1C1, offset: 0x430CA, size: 0x8, addend: 0x0, symName: __Z17generatePrivateIPv, symObjAddr: 0x2170, symBinAddr: 0x10000BCB0, symSize: 0x3D0 }
  - { offsetInCU: 0x2B223, offset: 0x4312C, size: 0x8, addend: 0x0, symName: __ZNSt3__119basic_ostringstreamIcNS_11char_traitsIcEENS_9allocatorIcEEEC1B7v160006Ev, symObjAddr: 0x2540, symBinAddr: 0x10000C080, symSize: 0xE0 }
  - { offsetInCU: 0x2B24C, offset: 0x43155, size: 0x8, addend: 0x0, symName: __ZNKSt3__119basic_ostringstreamIcNS_11char_traitsIcEENS_9allocatorIcEEE3strB7v160006Ev, symObjAddr: 0x2620, symBinAddr: 0x10000C160, symSize: 0x30 }
  - { offsetInCU: 0x2B276, offset: 0x4317F, size: 0x8, addend: 0x0, symName: __ZNSt3__119basic_ostringstreamIcNS_11char_traitsIcEENS_9allocatorIcEEED1Ev, symObjAddr: 0x2650, symBinAddr: 0x10000C190, symSize: 0x40 }
  - { offsetInCU: 0x2B2A2, offset: 0x431AB, size: 0x8, addend: 0x0, symName: __Z26select_tree_configurationsRiS_RNSt3__16vectorIiNS0_9allocatorIiEEEEi, symObjAddr: 0x2690, symBinAddr: 0x10000C1D0, symSize: 0x2A0 }
  - { offsetInCU: 0x2B2FD, offset: 0x43206, size: 0x8, addend: 0x0, symName: __ZNSt3__16vectorIiNS_9allocatorIiEEEaSB7v160006ESt16initializer_listIiE, symObjAddr: 0x2930, symBinAddr: 0x10000C470, symSize: 0x50 }
  - { offsetInCU: 0x2B331, offset: 0x4323A, size: 0x8, addend: 0x0, symName: __ZNSt3__16vectorIiNS_9allocatorIiEEEC1B7v160006Ev, symObjAddr: 0x2FB0, symBinAddr: 0x10000CAF0, symSize: 0x20 }
  - { offsetInCU: 0x2B373, offset: 0x4327C, size: 0x8, addend: 0x0, symName: __ZNSt3__113random_deviceC1Ev, symObjAddr: 0x2FD0, symBinAddr: 0x10000CB10, symSize: 0x70 }
  - { offsetInCU: 0x2B39C, offset: 0x432A5, size: 0x8, addend: 0x0, symName: __ZNSt3__123mersenne_twister_engineIjLm32ELm624ELm397ELm31ELj2567483615ELm11ELj4294967295ELm7ELj2636928640ELm15ELj4022730752ELm18ELj1812433253EEC1B7v160006Ej, symObjAddr: 0x3040, symBinAddr: 0x10000CB80, symSize: 0x30 }
  - { offsetInCU: 0x2B3D3, offset: 0x432DC, size: 0x8, addend: 0x0, symName: __ZNSt3__124uniform_int_distributionIiEC1Eii, symObjAddr: 0x3070, symBinAddr: 0x10000CBB0, symSize: 0x30 }
  - { offsetInCU: 0x2B418, offset: 0x43321, size: 0x8, addend: 0x0, symName: __ZNSt3__124uniform_int_distributionIiEclINS_23mersenne_twister_engineIjLm32ELm624ELm397ELm31ELj2567483615ELm11ELj4294967295ELm7ELj2636928640ELm15ELj4022730752ELm18ELj1812433253EEEEEiRT_, symObjAddr: 0x30A0, symBinAddr: 0x10000CBE0, symSize: 0x30 }
  - { offsetInCU: 0x2B454, offset: 0x4335D, size: 0x8, addend: 0x0, symName: __ZNSt3__16vectorIiNS_9allocatorIiEEE5beginB7v160006Ev, symObjAddr: 0x30D0, symBinAddr: 0x10000CC10, symSize: 0x30 }
  - { offsetInCU: 0x2B47A, offset: 0x43383, size: 0x8, addend: 0x0, symName: __ZNSt3__16vectorIiNS_9allocatorIiEEE3endB7v160006Ev, symObjAddr: 0x3100, symBinAddr: 0x10000CC40, symSize: 0x30 }
  - { offsetInCU: 0x2B4A0, offset: 0x433A9, size: 0x8, addend: 0x0, symName: __ZNKSt3__111__wrap_iterIPiEdeB7v160006Ev, symObjAddr: 0x3160, symBinAddr: 0x10000CCA0, symSize: 0x20 }
  - { offsetInCU: 0x2B4C5, offset: 0x433CE, size: 0x8, addend: 0x0, symName: __ZNKSt3__16vectorIiNS_9allocatorIiEEE4sizeB7v160006Ev, symObjAddr: 0x3180, symBinAddr: 0x10000CCC0, symSize: 0x20 }
  - { offsetInCU: 0x2B4EA, offset: 0x433F3, size: 0x8, addend: 0x0, symName: __ZNSt3__113unordered_mapIi4HostNS_4hashIiEENS_8equal_toIiEENS_9allocatorINS_4pairIKiS1_EEEEE2atERS8_, symObjAddr: 0x31A0, symBinAddr: 0x10000CCE0, symSize: 0x70 }
  - { offsetInCU: 0x2B533, offset: 0x4343C, size: 0x8, addend: 0x0, symName: '__ZNSt3__16vectorINS_6threadENS_9allocatorIS1_EEE12emplace_backIJZ4mainE3$_1EEERS1_DpOT_', symObjAddr: 0x3210, symBinAddr: 0x10000CD50, symSize: 0x70 }
  - { offsetInCU: 0x2B578, offset: 0x43481, size: 0x8, addend: 0x0, symName: '__ZZ4mainEN3$_1D1Ev', symObjAddr: 0x3280, symBinAddr: 0x10000CDC0, symSize: 0x20 }
  - { offsetInCU: 0x2B5A4, offset: 0x434AD, size: 0x8, addend: 0x0, symName: __ZNSt3__111__wrap_iterIPiEppB7v160006Ev, symObjAddr: 0x32A0, symBinAddr: 0x10000CDE0, symSize: 0x20 }
  - { offsetInCU: 0x2B5CE, offset: 0x434D7, size: 0x8, addend: 0x0, symName: __ZNSt3__16threadC1IRFviiNS_12basic_stringIcNS_11char_traitsIcEENS_9allocatorIcEEEEEJRiSA_RS7_EvEEOT_DpOT0_, symObjAddr: 0x32C0, symBinAddr: 0x10000CE00, symSize: 0x40 }
  - { offsetInCU: 0x2B652, offset: 0x4355B, size: 0x8, addend: 0x0, symName: __ZNKSt3__16thread8joinableB7v160006Ev, symObjAddr: 0x3300, symBinAddr: 0x10000CE40, symSize: 0x40 }
  - { offsetInCU: 0x2B677, offset: 0x43580, size: 0x8, addend: 0x0, symName: __ZNSt3__113unordered_mapIi6SwitchNS_4hashIiEENS_8equal_toIiEENS_9allocatorINS_4pairIKiS1_EEEEEixERS8_, symObjAddr: 0x3340, symBinAddr: 0x10000CE80, symSize: 0x70 }
  - { offsetInCU: 0x2B6AC, offset: 0x435B5, size: 0x8, addend: 0x0, symName: __ZNSt3__16vectorINS_6threadENS_9allocatorIS1_EEE5beginB7v160006Ev, symObjAddr: 0x33B0, symBinAddr: 0x10000CEF0, symSize: 0x30 }
  - { offsetInCU: 0x2B6D2, offset: 0x435DB, size: 0x8, addend: 0x0, symName: __ZNSt3__16vectorINS_6threadENS_9allocatorIS1_EEE3endB7v160006Ev, symObjAddr: 0x33E0, symBinAddr: 0x10000CF20, symSize: 0x30 }
  - { offsetInCU: 0x2B6F8, offset: 0x43601, size: 0x8, addend: 0x0, symName: __ZNKSt3__111__wrap_iterIPNS_6threadEEdeB7v160006Ev, symObjAddr: 0x3440, symBinAddr: 0x10000CF80, symSize: 0x20 }
  - { offsetInCU: 0x2B71D, offset: 0x43626, size: 0x8, addend: 0x0, symName: __ZNSt3__111__wrap_iterIPNS_6threadEEppB7v160006Ev, symObjAddr: 0x3460, symBinAddr: 0x10000CFA0, symSize: 0x20 }
  - { offsetInCU: 0x2B742, offset: 0x4364B, size: 0x8, addend: 0x0, symName: __ZNKSt3__16chrono8durationIxNS_5ratioILl1ELl1000EEEE5countB7v160006Ev, symObjAddr: 0x3500, symBinAddr: 0x10000D040, symSize: 0x20 }
  - { offsetInCU: 0x2B767, offset: 0x43670, size: 0x8, addend: 0x0, symName: __ZNSt3__16vectorIiNS_9allocatorIiEEED1B7v160006Ev, symObjAddr: 0x3520, symBinAddr: 0x10000D060, symSize: 0x20 }
  - { offsetInCU: 0x2B790, offset: 0x43699, size: 0x8, addend: 0x0, symName: __ZNSt3__16vectorINS0_IiNS_9allocatorIiEEEENS1_IS3_EEED2B7v160006Ev, symObjAddr: 0x3540, symBinAddr: 0x10000D080, symSize: 0x40 }
  - { offsetInCU: 0x2B7B9, offset: 0x436C2, size: 0x8, addend: 0x0, symName: __ZNSt3__16vectorINS0_IiNS_9allocatorIiEEEENS1_IS3_EEE16__destroy_vectorC1ERS5_, symObjAddr: 0x3580, symBinAddr: 0x10000D0C0, symSize: 0x30 }
  - { offsetInCU: 0x2B7F1, offset: 0x436FA, size: 0x8, addend: 0x0, symName: __ZNSt3__16vectorINS0_IiNS_9allocatorIiEEEENS1_IS3_EEE16__destroy_vectorclB7v160006Ev, symObjAddr: 0x35C0, symBinAddr: 0x10000D0F0, symSize: 0x90 }
  - { offsetInCU: 0x2B816, offset: 0x4371F, size: 0x8, addend: 0x0, symName: __ZNSt3__16vectorINS0_IiNS_9allocatorIiEEEENS1_IS3_EEE16__destroy_vectorC2ERS5_, symObjAddr: 0x3650, symBinAddr: 0x10000D180, symSize: 0x20 }
  - { offsetInCU: 0x2B84E, offset: 0x43757, size: 0x8, addend: 0x0, symName: __ZNKSt3__16vectorINS0_IiNS_9allocatorIiEEEENS1_IS3_EEE17__annotate_deleteB7v160006Ev, symObjAddr: 0x3670, symBinAddr: 0x10000D1A0, symSize: 0xB0 }
  - { offsetInCU: 0x2B873, offset: 0x4377C, size: 0x8, addend: 0x0, symName: __ZNSt3__16vectorINS0_IiNS_9allocatorIiEEEENS1_IS3_EEE7__clearB7v160006Ev, symObjAddr: 0x3730, symBinAddr: 0x10000D260, symSize: 0x20 }
  - { offsetInCU: 0x2B898, offset: 0x437A1, size: 0x8, addend: 0x0, symName: __ZNSt3__116allocator_traitsINS_9allocatorINS_6vectorIiNS1_IiEEEEEEE10deallocateB7v160006ERS5_PS4_m, symObjAddr: 0x3750, symBinAddr: 0x10000D280, symSize: 0x30 }
  - { offsetInCU: 0x2B8DA, offset: 0x437E3, size: 0x8, addend: 0x0, symName: __ZNSt3__16vectorINS0_IiNS_9allocatorIiEEEENS1_IS3_EEE7__allocB7v160006Ev, symObjAddr: 0x3780, symBinAddr: 0x10000D2B0, symSize: 0x20 }
  - { offsetInCU: 0x2B8FF, offset: 0x43808, size: 0x8, addend: 0x0, symName: __ZNKSt3__16vectorINS0_IiNS_9allocatorIiEEEENS1_IS3_EEE8capacityB7v160006Ev, symObjAddr: 0x37A0, symBinAddr: 0x10000D2D0, symSize: 0x40 }
  - { offsetInCU: 0x2B924, offset: 0x4382D, size: 0x8, addend: 0x0, symName: __ZNKSt3__16vectorINS0_IiNS_9allocatorIiEEEENS1_IS3_EEE31__annotate_contiguous_containerB7v160006EPKvS7_S7_S7_, symObjAddr: 0x37E0, symBinAddr: 0x10000D310, symSize: 0x20 }
  - { offsetInCU: 0x2B979, offset: 0x43882, size: 0x8, addend: 0x0, symName: __ZNKSt3__16vectorINS0_IiNS_9allocatorIiEEEENS1_IS3_EEE4dataB7v160006Ev, symObjAddr: 0x3800, symBinAddr: 0x10000D330, symSize: 0x20 }
  - { offsetInCU: 0x2B99E, offset: 0x438A7, size: 0x8, addend: 0x0, symName: __ZNKSt3__16vectorINS0_IiNS_9allocatorIiEEEENS1_IS3_EEE4sizeB7v160006Ev, symObjAddr: 0x3820, symBinAddr: 0x10000D350, symSize: 0x30 }
  - { offsetInCU: 0x2B9C3, offset: 0x438CC, size: 0x8, addend: 0x0, symName: __ZNSt3__16vectorINS0_IiNS_9allocatorIiEEEENS1_IS3_EEE22__base_destruct_at_endB7v160006EPS3_, symObjAddr: 0x3860, symBinAddr: 0x10000D390, symSize: 0x80 }
  - { offsetInCU: 0x2BA06, offset: 0x4390F, size: 0x8, addend: 0x0, symName: __ZNSt3__116allocator_traitsINS_9allocatorINS_6vectorIiNS1_IiEEEEEEE7destroyB7v160006IS4_vvEEvRS5_PT_, symObjAddr: 0x38E0, symBinAddr: 0x10000D410, symSize: 0x20 }
  - { offsetInCU: 0x2BA41, offset: 0x4394A, size: 0x8, addend: 0x0, symName: __ZNSt3__19allocatorINS_6vectorIiNS0_IiEEEEE10deallocateB7v160006EPS3_m, symObjAddr: 0x3940, symBinAddr: 0x10000D470, symSize: 0x50 }
  - { offsetInCU: 0x2BA82, offset: 0x4398B, size: 0x8, addend: 0x0, symName: __ZNSt3__117__compressed_pairIPNS_6vectorIiNS_9allocatorIiEEEENS2_IS4_EEE6secondB7v160006Ev, symObjAddr: 0x3AB0, symBinAddr: 0x10000D4C0, symSize: 0x20 }
  - { offsetInCU: 0x2BAA7, offset: 0x439B0, size: 0x8, addend: 0x0, symName: __ZNSt3__122__compressed_pair_elemINS_9allocatorINS_6vectorIiNS1_IiEEEEEELi1ELb1EE5__getB7v160006Ev, symObjAddr: 0x3AD0, symBinAddr: 0x10000D4E0, symSize: 0x10 }
  - { offsetInCU: 0x2BACC, offset: 0x439D5, size: 0x8, addend: 0x0, symName: __ZNKSt3__16vectorINS0_IiNS_9allocatorIiEEEENS1_IS3_EEE9__end_capB7v160006Ev, symObjAddr: 0x3AE0, symBinAddr: 0x10000D4F0, symSize: 0x20 }
  - { offsetInCU: 0x2BAF1, offset: 0x439FA, size: 0x8, addend: 0x0, symName: __ZNKSt3__117__compressed_pairIPNS_6vectorIiNS_9allocatorIiEEEENS2_IS4_EEE5firstB7v160006Ev, symObjAddr: 0x3B00, symBinAddr: 0x10000D510, symSize: 0x20 }
  - { offsetInCU: 0x2BB16, offset: 0x43A1F, size: 0x8, addend: 0x0, symName: __ZNKSt3__122__compressed_pair_elemIPNS_6vectorIiNS_9allocatorIiEEEELi0ELb0EE5__getB7v160006Ev, symObjAddr: 0x3B20, symBinAddr: 0x10000D530, symSize: 0x10 }
  - { offsetInCU: 0x2BB3B, offset: 0x43A44, size: 0x8, addend: 0x0, symName: __ZNSt3__16vectorINS_6threadENS_9allocatorIS1_EEED2B7v160006Ev, symObjAddr: 0x3B30, symBinAddr: 0x10000D540, symSize: 0x40 }
  - { offsetInCU: 0x2BB64, offset: 0x43A6D, size: 0x8, addend: 0x0, symName: __ZNSt3__16vectorINS_6threadENS_9allocatorIS1_EEE16__destroy_vectorC1ERS4_, symObjAddr: 0x3B70, symBinAddr: 0x10000D580, symSize: 0x30 }
  - { offsetInCU: 0x2BB9C, offset: 0x43AA5, size: 0x8, addend: 0x0, symName: __ZNSt3__16vectorINS_6threadENS_9allocatorIS1_EEE16__destroy_vectorclB7v160006Ev, symObjAddr: 0x3BA0, symBinAddr: 0x10000D5B0, symSize: 0x90 }
  - { offsetInCU: 0x2BBC1, offset: 0x43ACA, size: 0x8, addend: 0x0, symName: __ZNSt3__16vectorINS_6threadENS_9allocatorIS1_EEE16__destroy_vectorC2ERS4_, symObjAddr: 0x3C30, symBinAddr: 0x10000D640, symSize: 0x20 }
  - { offsetInCU: 0x2BBF9, offset: 0x43B02, size: 0x8, addend: 0x0, symName: __ZNKSt3__16vectorINS_6threadENS_9allocatorIS1_EEE17__annotate_deleteB7v160006Ev, symObjAddr: 0x3C50, symBinAddr: 0x10000D660, symSize: 0xB0 }
  - { offsetInCU: 0x2BC1E, offset: 0x43B27, size: 0x8, addend: 0x0, symName: __ZNSt3__16vectorINS_6threadENS_9allocatorIS1_EEE7__clearB7v160006Ev, symObjAddr: 0x3D10, symBinAddr: 0x10000D720, symSize: 0x20 }
  - { offsetInCU: 0x2BC43, offset: 0x43B4C, size: 0x8, addend: 0x0, symName: __ZNSt3__116allocator_traitsINS_9allocatorINS_6threadEEEE10deallocateB7v160006ERS3_PS2_m, symObjAddr: 0x3D30, symBinAddr: 0x10000D740, symSize: 0x30 }
  - { offsetInCU: 0x2BC85, offset: 0x43B8E, size: 0x8, addend: 0x0, symName: __ZNSt3__16vectorINS_6threadENS_9allocatorIS1_EEE7__allocB7v160006Ev, symObjAddr: 0x3D60, symBinAddr: 0x10000D770, symSize: 0x20 }
  - { offsetInCU: 0x2BCAA, offset: 0x43BB3, size: 0x8, addend: 0x0, symName: __ZNKSt3__16vectorINS_6threadENS_9allocatorIS1_EEE8capacityB7v160006Ev, symObjAddr: 0x3D80, symBinAddr: 0x10000D790, symSize: 0x30 }
  - { offsetInCU: 0x2BCCF, offset: 0x43BD8, size: 0x8, addend: 0x0, symName: __ZNKSt3__16vectorINS_6threadENS_9allocatorIS1_EEE31__annotate_contiguous_containerB7v160006EPKvS6_S6_S6_, symObjAddr: 0x3DB0, symBinAddr: 0x10000D7C0, symSize: 0x20 }
  - { offsetInCU: 0x2BD24, offset: 0x43C2D, size: 0x8, addend: 0x0, symName: __ZNKSt3__16vectorINS_6threadENS_9allocatorIS1_EEE4dataB7v160006Ev, symObjAddr: 0x3DD0, symBinAddr: 0x10000D7E0, symSize: 0x20 }
  - { offsetInCU: 0x2BD49, offset: 0x43C52, size: 0x8, addend: 0x0, symName: __ZNKSt3__16vectorINS_6threadENS_9allocatorIS1_EEE4sizeB7v160006Ev, symObjAddr: 0x3DF0, symBinAddr: 0x10000D800, symSize: 0x20 }
  - { offsetInCU: 0x2BD6E, offset: 0x43C77, size: 0x8, addend: 0x0, symName: __ZNSt3__16vectorINS_6threadENS_9allocatorIS1_EEE22__base_destruct_at_endB7v160006EPS1_, symObjAddr: 0x3E20, symBinAddr: 0x10000D830, symSize: 0x80 }
  - { offsetInCU: 0x2BDB1, offset: 0x43CBA, size: 0x8, addend: 0x0, symName: __ZNSt3__116allocator_traitsINS_9allocatorINS_6threadEEEE7destroyB7v160006IS2_vvEEvRS3_PT_, symObjAddr: 0x3EA0, symBinAddr: 0x10000D8B0, symSize: 0x20 }
  - { offsetInCU: 0x2BDEC, offset: 0x43CF5, size: 0x8, addend: 0x0, symName: __ZNSt3__19allocatorINS_6threadEE10deallocateB7v160006EPS1_m, symObjAddr: 0x3F00, symBinAddr: 0x10000D910, symSize: 0x40 }
  - { offsetInCU: 0x2BE2D, offset: 0x43D36, size: 0x8, addend: 0x0, symName: __ZNSt3__117__compressed_pairIPNS_6threadENS_9allocatorIS1_EEE6secondB7v160006Ev, symObjAddr: 0x3F40, symBinAddr: 0x10000D950, symSize: 0x20 }
  - { offsetInCU: 0x2BE52, offset: 0x43D5B, size: 0x8, addend: 0x0, symName: __ZNSt3__122__compressed_pair_elemINS_9allocatorINS_6threadEEELi1ELb1EE5__getB7v160006Ev, symObjAddr: 0x3F60, symBinAddr: 0x10000D970, symSize: 0x10 }
  - { offsetInCU: 0x2BE77, offset: 0x43D80, size: 0x8, addend: 0x0, symName: __ZNKSt3__16vectorINS_6threadENS_9allocatorIS1_EEE9__end_capB7v160006Ev, symObjAddr: 0x3F70, symBinAddr: 0x10000D980, symSize: 0x20 }
  - { offsetInCU: 0x2BE9C, offset: 0x43DA5, size: 0x8, addend: 0x0, symName: __ZNKSt3__117__compressed_pairIPNS_6threadENS_9allocatorIS1_EEE5firstB7v160006Ev, symObjAddr: 0x3F90, symBinAddr: 0x10000D9A0, symSize: 0x20 }
  - { offsetInCU: 0x2BEC1, offset: 0x43DCA, size: 0x8, addend: 0x0, symName: __ZNKSt3__122__compressed_pair_elemIPNS_6threadELi0ELb0EE5__getB7v160006Ev, symObjAddr: 0x3FB0, symBinAddr: 0x10000D9C0, symSize: 0x10 }
  - { offsetInCU: 0x2BEE6, offset: 0x43DEF, size: 0x8, addend: 0x0, symName: __ZNSt3__112basic_stringIcNS_11char_traitsIcEENS_9allocatorIcEEEC2B7v160006IDnEEPKc, symObjAddr: 0x3FC0, symBinAddr: 0x10000D9D0, symSize: 0x60 }
  - { offsetInCU: 0x2BF28, offset: 0x43E31, size: 0x8, addend: 0x0, symName: __ZNSt3__117__compressed_pairINS_12basic_stringIcNS_11char_traitsIcEENS_9allocatorIcEEE5__repES5_EC1B7v160006INS_18__default_init_tagESA_EEOT_OT0_, symObjAddr: 0x4020, symBinAddr: 0x10000DA30, symSize: 0x30 }
  - { offsetInCU: 0x2BF7F, offset: 0x43E88, size: 0x8, addend: 0x0, symName: __ZNSt3__111char_traitsIcE6lengthEPKc, symObjAddr: 0x4050, symBinAddr: 0x10000DA60, symSize: 0x30 }
  - { offsetInCU: 0x2BFA2, offset: 0x43EAB, size: 0x8, addend: 0x0, symName: __ZNSt3__117__compressed_pairINS_12basic_stringIcNS_11char_traitsIcEENS_9allocatorIcEEE5__repES5_EC2B7v160006INS_18__default_init_tagESA_EEOT_OT0_, symObjAddr: 0x4090, symBinAddr: 0x10000DA90, symSize: 0x30 }
  - { offsetInCU: 0x2BFF9, offset: 0x43F02, size: 0x8, addend: 0x0, symName: __ZNSt3__122__compressed_pair_elemINS_12basic_stringIcNS_11char_traitsIcEENS_9allocatorIcEEE5__repELi0ELb0EEC2B7v160006ENS_18__default_init_tagE, symObjAddr: 0x40C0, symBinAddr: 0x10000DAC0, symSize: 0x10 }
  - { offsetInCU: 0x2C02C, offset: 0x43F35, size: 0x8, addend: 0x0, symName: __ZNSt3__122__compressed_pair_elemINS_9allocatorIcEELi1ELb1EEC2B7v160006ENS_18__default_init_tagE, symObjAddr: 0x40D0, symBinAddr: 0x10000DAD0, symSize: 0x20 }
  - { offsetInCU: 0x2C05F, offset: 0x43F68, size: 0x8, addend: 0x0, symName: __ZNSt3__19allocatorIcEC2B7v160006Ev, symObjAddr: 0x40F0, symBinAddr: 0x10000DAF0, symSize: 0x20 }
  - { offsetInCU: 0x2C088, offset: 0x43F91, size: 0x8, addend: 0x0, symName: __ZNSt3__116__non_trivial_ifILb1ENS_9allocatorIcEEEC2B7v160006Ev, symObjAddr: 0x4110, symBinAddr: 0x10000DB10, symSize: 0x10 }
  - { offsetInCU: 0x2C0B1, offset: 0x43FBA, size: 0x8, addend: 0x0, symName: __ZNSt3__16vectorINS_12basic_stringIcNS_11char_traitsIcEENS_9allocatorIcEEEENS4_IS6_EEEC2B7v160006ESt16initializer_listIS6_E, symObjAddr: 0x4140, symBinAddr: 0x10000DB40, symSize: 0x120 }
  - { offsetInCU: 0x2C106, offset: 0x4400F, size: 0x8, addend: 0x0, symName: __ZNSt3__117__compressed_pairIPNS_12basic_stringIcNS_11char_traitsIcEENS_9allocatorIcEEEENS4_IS6_EEEC1B7v160006IDnNS_18__default_init_tagEEEOT_OT0_, symObjAddr: 0x4260, symBinAddr: 0x10000DC60, symSize: 0x30 }
  - { offsetInCU: 0x2C15D, offset: 0x44066, size: 0x8, addend: 0x0, symName: __ZNSt3__16vectorINS_12basic_stringIcNS_11char_traitsIcEENS_9allocatorIcEEEENS4_IS6_EEE16__destroy_vectorC1ERS8_, symObjAddr: 0x42D0, symBinAddr: 0x10000DCD0, symSize: 0x30 }
  - { offsetInCU: 0x2C195, offset: 0x4409E, size: 0x8, addend: 0x0, symName: __ZNKSt16initializer_listINSt3__112basic_stringIcNS0_11char_traitsIcEENS0_9allocatorIcEEEEE4sizeB7v160006Ev, symObjAddr: 0x4310, symBinAddr: 0x10000DD10, symSize: 0x20 }
  - { offsetInCU: 0x2C1BA, offset: 0x440C3, size: 0x8, addend: 0x0, symName: __ZNSt3__16vectorINS_12basic_stringIcNS_11char_traitsIcEENS_9allocatorIcEEEENS4_IS6_EEE11__vallocateB7v160006Em, symObjAddr: 0x4330, symBinAddr: 0x10000DD30, symSize: 0xA0 }
  - { offsetInCU: 0x2C1FD, offset: 0x44106, size: 0x8, addend: 0x0, symName: __ZNSt3__16vectorINS_12basic_stringIcNS_11char_traitsIcEENS_9allocatorIcEEEENS4_IS6_EEE18__construct_at_endIPKS6_Li0EEEvT_SC_m, symObjAddr: 0x43D0, symBinAddr: 0x10000DDD0, symSize: 0x90 }
  - { offsetInCU: 0x2C26E, offset: 0x44177, size: 0x8, addend: 0x0, symName: __ZNKSt16initializer_listINSt3__112basic_stringIcNS0_11char_traitsIcEENS0_9allocatorIcEEEEE5beginB7v160006Ev, symObjAddr: 0x4460, symBinAddr: 0x10000DE60, symSize: 0x20 }
  - { offsetInCU: 0x2C293, offset: 0x4419C, size: 0x8, addend: 0x0, symName: __ZNKSt16initializer_listINSt3__112basic_stringIcNS0_11char_traitsIcEENS0_9allocatorIcEEEEE3endB7v160006Ev, symObjAddr: 0x4480, symBinAddr: 0x10000DE80, symSize: 0x20 }
  - { offsetInCU: 0x2C2B8, offset: 0x441C1, size: 0x8, addend: 0x0, symName: __ZNSt3__128__exception_guard_exceptionsINS_6vectorINS_12basic_stringIcNS_11char_traitsIcEENS_9allocatorIcEEEENS5_IS7_EEE16__destroy_vectorEE10__completeB7v160006Ev, symObjAddr: 0x44A0, symBinAddr: 0x10000DEA0, symSize: 0x20 }
  - { offsetInCU: 0x2C2DD, offset: 0x441E6, size: 0x8, addend: 0x0, symName: __ZNSt3__128__exception_guard_exceptionsINS_6vectorINS_12basic_stringIcNS_11char_traitsIcEENS_9allocatorIcEEEENS5_IS7_EEE16__destroy_vectorEED1B7v160006Ev, symObjAddr: 0x44C0, symBinAddr: 0x10000DEC0, symSize: 0x20 }
  - { offsetInCU: 0x2C306, offset: 0x4420F, size: 0x8, addend: 0x0, symName: __ZNSt3__117__compressed_pairIPNS_12basic_stringIcNS_11char_traitsIcEENS_9allocatorIcEEEENS4_IS6_EEEC2B7v160006IDnNS_18__default_init_tagEEEOT_OT0_, symObjAddr: 0x44E0, symBinAddr: 0x10000DEE0, symSize: 0x40 }
  - { offsetInCU: 0x2C35D, offset: 0x44266, size: 0x8, addend: 0x0, symName: __ZNSt3__122__compressed_pair_elemIPNS_12basic_stringIcNS_11char_traitsIcEENS_9allocatorIcEEEELi0ELb0EEC2B7v160006IDnvEEOT_, symObjAddr: 0x4520, symBinAddr: 0x10000DF20, symSize: 0x20 }
  - { offsetInCU: 0x2C39E, offset: 0x442A7, size: 0x8, addend: 0x0, symName: __ZNSt3__122__compressed_pair_elemINS_9allocatorINS_12basic_stringIcNS_11char_traitsIcEENS1_IcEEEEEELi1ELb1EEC2B7v160006ENS_18__default_init_tagE, symObjAddr: 0x4540, symBinAddr: 0x10000DF40, symSize: 0x20 }
  - { offsetInCU: 0x2C3D1, offset: 0x442DA, size: 0x8, addend: 0x0, symName: __ZNSt3__19allocatorINS_12basic_stringIcNS_11char_traitsIcEENS0_IcEEEEEC2B7v160006Ev, symObjAddr: 0x4560, symBinAddr: 0x10000DF60, symSize: 0x20 }
  - { offsetInCU: 0x2C3FA, offset: 0x44303, size: 0x8, addend: 0x0, symName: __ZNSt3__116__non_trivial_ifILb1ENS_9allocatorINS_12basic_stringIcNS_11char_traitsIcEENS1_IcEEEEEEEC2B7v160006Ev, symObjAddr: 0x4580, symBinAddr: 0x10000DF80, symSize: 0x10 }
  - { offsetInCU: 0x2C423, offset: 0x4432C, size: 0x8, addend: 0x0, symName: __ZNSt3__128__exception_guard_exceptionsINS_6vectorINS_12basic_stringIcNS_11char_traitsIcEENS_9allocatorIcEEEENS5_IS7_EEE16__destroy_vectorEEC1B7v160006ESA_, symObjAddr: 0x4590, symBinAddr: 0x10000DF90, symSize: 0x30 }
  - { offsetInCU: 0x2C45A, offset: 0x44363, size: 0x8, addend: 0x0, symName: __ZNSt3__128__exception_guard_exceptionsINS_6vectorINS_12basic_stringIcNS_11char_traitsIcEENS_9allocatorIcEEEENS5_IS7_EEE16__destroy_vectorEEC2B7v160006ESA_, symObjAddr: 0x45C0, symBinAddr: 0x10000DFC0, symSize: 0x20 }
  - { offsetInCU: 0x2C491, offset: 0x4439A, size: 0x8, addend: 0x0, symName: __ZNSt3__16vectorINS_12basic_stringIcNS_11char_traitsIcEENS_9allocatorIcEEEENS4_IS6_EEE16__destroy_vectorC2ERS8_, symObjAddr: 0x45E0, symBinAddr: 0x10000DFE0, symSize: 0x20 }
  - { offsetInCU: 0x2C4C9, offset: 0x443D2, size: 0x8, addend: 0x0, symName: __ZNKSt3__16vectorINS_12basic_stringIcNS_11char_traitsIcEENS_9allocatorIcEEEENS4_IS6_EEE8max_sizeEv, symObjAddr: 0x4600, symBinAddr: 0x10000E000, symSize: 0x60 }
  - { offsetInCU: 0x2C4EF, offset: 0x443F8, size: 0x8, addend: 0x0, symName: __ZNKSt3__16vectorINS_12basic_stringIcNS_11char_traitsIcEENS_9allocatorIcEEEENS4_IS6_EEE20__throw_length_errorB7v160006Ev, symObjAddr: 0x4660, symBinAddr: 0x10000E060, symSize: 0x20 }
  - { offsetInCU: 0x2C514, offset: 0x4441D, size: 0x8, addend: 0x0, symName: __ZNSt3__16vectorINS_12basic_stringIcNS_11char_traitsIcEENS_9allocatorIcEEEENS4_IS6_EEE7__allocB7v160006Ev, symObjAddr: 0x46C0, symBinAddr: 0x10000E0C0, symSize: 0x20 }
  - { offsetInCU: 0x2C539, offset: 0x44442, size: 0x8, addend: 0x0, symName: __ZNSt3__16vectorINS_12basic_stringIcNS_11char_traitsIcEENS_9allocatorIcEEEENS4_IS6_EEE9__end_capB7v160006Ev, symObjAddr: 0x46E0, symBinAddr: 0x10000E0E0, symSize: 0x20 }
  - { offsetInCU: 0x2C55E, offset: 0x44467, size: 0x8, addend: 0x0, symName: __ZNKSt3__16vectorINS_12basic_stringIcNS_11char_traitsIcEENS_9allocatorIcEEEENS4_IS6_EEE14__annotate_newB7v160006Em, symObjAddr: 0x4700, symBinAddr: 0x10000E100, symSize: 0xA0 }
  - { offsetInCU: 0x2C59C, offset: 0x444A5, size: 0x8, addend: 0x0, symName: __ZNSt3__116allocator_traitsINS_9allocatorINS_12basic_stringIcNS_11char_traitsIcEENS1_IcEEEEEEE8max_sizeB7v160006IS7_vvEEmRKS7_, symObjAddr: 0x47D0, symBinAddr: 0x10000E1A0, symSize: 0x30 }
  - { offsetInCU: 0x2C5C8, offset: 0x444D1, size: 0x8, addend: 0x0, symName: __ZNKSt3__16vectorINS_12basic_stringIcNS_11char_traitsIcEENS_9allocatorIcEEEENS4_IS6_EEE7__allocB7v160006Ev, symObjAddr: 0x4800, symBinAddr: 0x10000E1D0, symSize: 0x20 }
  - { offsetInCU: 0x2C5ED, offset: 0x444F6, size: 0x8, addend: 0x0, symName: __ZNKSt3__117__compressed_pairIPNS_12basic_stringIcNS_11char_traitsIcEENS_9allocatorIcEEEENS4_IS6_EEE6secondB7v160006Ev, symObjAddr: 0x48D0, symBinAddr: 0x10000E1F0, symSize: 0x20 }
  - { offsetInCU: 0x2C612, offset: 0x4451B, size: 0x8, addend: 0x0, symName: __ZNKSt3__122__compressed_pair_elemINS_9allocatorINS_12basic_stringIcNS_11char_traitsIcEENS1_IcEEEEEELi1ELb1EE5__getB7v160006Ev, symObjAddr: 0x48F0, symBinAddr: 0x10000E210, symSize: 0x10 }
  - { offsetInCU: 0x2C637, offset: 0x44540, size: 0x8, addend: 0x0, symName: __ZNSt3__19allocatorINS_12basic_stringIcNS_11char_traitsIcEENS0_IcEEEEE8allocateB7v160006Em, symObjAddr: 0x49F0, symBinAddr: 0x10000E220, symSize: 0x50 }
  - { offsetInCU: 0x2C66A, offset: 0x44573, size: 0x8, addend: 0x0, symName: __ZNSt3__117__compressed_pairIPNS_12basic_stringIcNS_11char_traitsIcEENS_9allocatorIcEEEENS4_IS6_EEE6secondB7v160006Ev, symObjAddr: 0x4B30, symBinAddr: 0x10000E270, symSize: 0x20 }
  - { offsetInCU: 0x2C68F, offset: 0x44598, size: 0x8, addend: 0x0, symName: __ZNSt3__122__compressed_pair_elemINS_9allocatorINS_12basic_stringIcNS_11char_traitsIcEENS1_IcEEEEEELi1ELb1EE5__getB7v160006Ev, symObjAddr: 0x4B50, symBinAddr: 0x10000E290, symSize: 0x10 }
  - { offsetInCU: 0x2C6B4, offset: 0x445BD, size: 0x8, addend: 0x0, symName: __ZNSt3__117__compressed_pairIPNS_12basic_stringIcNS_11char_traitsIcEENS_9allocatorIcEEEENS4_IS6_EEE5firstB7v160006Ev, symObjAddr: 0x4B60, symBinAddr: 0x10000E2A0, symSize: 0x20 }
  - { offsetInCU: 0x2C6D9, offset: 0x445E2, size: 0x8, addend: 0x0, symName: __ZNSt3__122__compressed_pair_elemIPNS_12basic_stringIcNS_11char_traitsIcEENS_9allocatorIcEEEELi0ELb0EE5__getB7v160006Ev, symObjAddr: 0x4B80, symBinAddr: 0x10000E2C0, symSize: 0x10 }
  - { offsetInCU: 0x2C6FE, offset: 0x44607, size: 0x8, addend: 0x0, symName: __ZNKSt3__16vectorINS_12basic_stringIcNS_11char_traitsIcEENS_9allocatorIcEEEENS4_IS6_EEE31__annotate_contiguous_containerB7v160006EPKvSA_SA_SA_, symObjAddr: 0x4B90, symBinAddr: 0x10000E2D0, symSize: 0x20 }
  - { offsetInCU: 0x2C753, offset: 0x4465C, size: 0x8, addend: 0x0, symName: __ZNKSt3__16vectorINS_12basic_stringIcNS_11char_traitsIcEENS_9allocatorIcEEEENS4_IS6_EEE4dataB7v160006Ev, symObjAddr: 0x4BB0, symBinAddr: 0x10000E2F0, symSize: 0x20 }
  - { offsetInCU: 0x2C778, offset: 0x44681, size: 0x8, addend: 0x0, symName: __ZNKSt3__16vectorINS_12basic_stringIcNS_11char_traitsIcEENS_9allocatorIcEEEENS4_IS6_EEE8capacityB7v160006Ev, symObjAddr: 0x4BD0, symBinAddr: 0x10000E310, symSize: 0x40 }
  - { offsetInCU: 0x2C79D, offset: 0x446A6, size: 0x8, addend: 0x0, symName: __ZNKSt3__16vectorINS_12basic_stringIcNS_11char_traitsIcEENS_9allocatorIcEEEENS4_IS6_EEE9__end_capB7v160006Ev, symObjAddr: 0x4C20, symBinAddr: 0x10000E360, symSize: 0x20 }
  - { offsetInCU: 0x2C7C2, offset: 0x446CB, size: 0x8, addend: 0x0, symName: __ZNKSt3__117__compressed_pairIPNS_12basic_stringIcNS_11char_traitsIcEENS_9allocatorIcEEEENS4_IS6_EEE5firstB7v160006Ev, symObjAddr: 0x4C40, symBinAddr: 0x10000E380, symSize: 0x20 }
  - { offsetInCU: 0x2C7E7, offset: 0x446F0, size: 0x8, addend: 0x0, symName: __ZNKSt3__122__compressed_pair_elemIPNS_12basic_stringIcNS_11char_traitsIcEENS_9allocatorIcEEEELi0ELb0EE5__getB7v160006Ev, symObjAddr: 0x4C60, symBinAddr: 0x10000E3A0, symSize: 0x10 }
  - { offsetInCU: 0x2C825, offset: 0x4472E, size: 0x8, addend: 0x0, symName: __ZNSt3__16vectorINS_12basic_stringIcNS_11char_traitsIcEENS_9allocatorIcEEEENS4_IS6_EEE21_ConstructTransactionC1B7v160006ERS8_m, symObjAddr: 0x4C70, symBinAddr: 0x10000E3B0, symSize: 0x30 }
  - { offsetInCU: 0x2C86C, offset: 0x44775, size: 0x8, addend: 0x0, symName: __ZNSt3__16vectorINS_12basic_stringIcNS_11char_traitsIcEENS_9allocatorIcEEEENS4_IS6_EEE21_ConstructTransactionD1B7v160006Ev, symObjAddr: 0x4DA0, symBinAddr: 0x10000E4E0, symSize: 0x20 }
  - { offsetInCU: 0x2C895, offset: 0x4479E, size: 0x8, addend: 0x0, symName: __ZNSt3__16vectorINS_12basic_stringIcNS_11char_traitsIcEENS_9allocatorIcEEEENS4_IS6_EEE21_ConstructTransactionC2B7v160006ERS8_m, symObjAddr: 0x4DC0, symBinAddr: 0x10000E500, symSize: 0x40 }
  - { offsetInCU: 0x2C8DC, offset: 0x447E5, size: 0x8, addend: 0x0, symName: __ZNSt3__129_AllocatorDestroyRangeReverseINS_9allocatorINS_12basic_stringIcNS_11char_traitsIcEENS1_IcEEEEEEPS6_EC1B7v160006ERS7_RS8_SB_, symObjAddr: 0x4E60, symBinAddr: 0x10000E5A0, symSize: 0x40 }
  - { offsetInCU: 0x2C932, offset: 0x4483B, size: 0x8, addend: 0x0, symName: __ZNSt3__116allocator_traitsINS_9allocatorINS_12basic_stringIcNS_11char_traitsIcEENS1_IcEEEEEEE9constructB7v160006IS6_JRKS6_EvvEEvRS7_PT_DpOT0_, symObjAddr: 0x4EA0, symBinAddr: 0x10000E5E0, symSize: 0x30 }
  - { offsetInCU: 0x2C987, offset: 0x44890, size: 0x8, addend: 0x0, symName: __ZNSt3__128__exception_guard_exceptionsINS_29_AllocatorDestroyRangeReverseINS_9allocatorINS_12basic_stringIcNS_11char_traitsIcEENS2_IcEEEEEEPS7_EEE10__completeB7v160006Ev, symObjAddr: 0x4ED0, symBinAddr: 0x10000E610, symSize: 0x20 }
  - { offsetInCU: 0x2C9AC, offset: 0x448B5, size: 0x8, addend: 0x0, symName: __ZNSt3__128__exception_guard_exceptionsINS_29_AllocatorDestroyRangeReverseINS_9allocatorINS_12basic_stringIcNS_11char_traitsIcEENS2_IcEEEEEEPS7_EEED1B7v160006Ev, symObjAddr: 0x4EF0, symBinAddr: 0x10000E630, symSize: 0x20 }
  - { offsetInCU: 0x2C9D5, offset: 0x448DE, size: 0x8, addend: 0x0, symName: __ZNSt3__128__exception_guard_exceptionsINS_29_AllocatorDestroyRangeReverseINS_9allocatorINS_12basic_stringIcNS_11char_traitsIcEENS2_IcEEEEEEPS7_EEEC1B7v160006ESA_, symObjAddr: 0x4F10, symBinAddr: 0x10000E650, symSize: 0x40 }
  - { offsetInCU: 0x2CA0C, offset: 0x44915, size: 0x8, addend: 0x0, symName: __ZNSt3__128__exception_guard_exceptionsINS_29_AllocatorDestroyRangeReverseINS_9allocatorINS_12basic_stringIcNS_11char_traitsIcEENS2_IcEEEEEEPS7_EEEC2B7v160006ESA_, symObjAddr: 0x4F50, symBinAddr: 0x10000E690, symSize: 0x30 }
  - { offsetInCU: 0x2CA43, offset: 0x4494C, size: 0x8, addend: 0x0, symName: __ZNSt3__129_AllocatorDestroyRangeReverseINS_9allocatorINS_12basic_stringIcNS_11char_traitsIcEENS1_IcEEEEEEPS6_EC2B7v160006ERS7_RS8_SB_, symObjAddr: 0x4F80, symBinAddr: 0x10000E6C0, symSize: 0x40 }
  - { offsetInCU: 0x2CA99, offset: 0x449A2, size: 0x8, addend: 0x0, symName: __ZNSt3__128__exception_guard_exceptionsINS_29_AllocatorDestroyRangeReverseINS_9allocatorINS_12basic_stringIcNS_11char_traitsIcEENS2_IcEEEEEEPS7_EEED2B7v160006Ev, symObjAddr: 0x5000, symBinAddr: 0x10000E740, symSize: 0x40 }
  - { offsetInCU: 0x2CAC2, offset: 0x449CB, size: 0x8, addend: 0x0, symName: __ZNKSt3__129_AllocatorDestroyRangeReverseINS_9allocatorINS_12basic_stringIcNS_11char_traitsIcEENS1_IcEEEEEEPS6_EclB7v160006Ev, symObjAddr: 0x5040, symBinAddr: 0x10000E780, symSize: 0x60 }
  - { offsetInCU: 0x2CAE7, offset: 0x449F0, size: 0x8, addend: 0x0, symName: __ZNSt3__116reverse_iteratorIPNS_12basic_stringIcNS_11char_traitsIcEENS_9allocatorIcEEEEEC1B7v160006ES7_, symObjAddr: 0x5110, symBinAddr: 0x10000E850, symSize: 0x30 }
  - { offsetInCU: 0x2CB1E, offset: 0x44A27, size: 0x8, addend: 0x0, symName: __ZNSt3__116allocator_traitsINS_9allocatorINS_12basic_stringIcNS_11char_traitsIcEENS1_IcEEEEEEE7destroyB7v160006IS6_vvEEvRS7_PT_, symObjAddr: 0x5180, symBinAddr: 0x10000E8C0, symSize: 0x20 }
  - { offsetInCU: 0x2CB59, offset: 0x44A62, size: 0x8, addend: 0x0, symName: __ZNSt3__116reverse_iteratorIPNS_12basic_stringIcNS_11char_traitsIcEENS_9allocatorIcEEEEEppB7v160006Ev, symObjAddr: 0x51C0, symBinAddr: 0x10000E900, symSize: 0x20 }
  - { offsetInCU: 0x2CB7E, offset: 0x44A87, size: 0x8, addend: 0x0, symName: __ZNKSt3__116reverse_iteratorIPNS_12basic_stringIcNS_11char_traitsIcEENS_9allocatorIcEEEEE4baseB7v160006Ev, symObjAddr: 0x51E0, symBinAddr: 0x10000E920, symSize: 0x20 }
  - { offsetInCU: 0x2CBA8, offset: 0x44AB1, size: 0x8, addend: 0x0, symName: __ZNSt3__119__to_address_helperINS_16reverse_iteratorIPNS_12basic_stringIcNS_11char_traitsIcEENS_9allocatorIcEEEEEEvE6__callB7v160006ERKS9_, symObjAddr: 0x5240, symBinAddr: 0x10000E980, symSize: 0x40 }
  - { offsetInCU: 0x2CBCB, offset: 0x44AD4, size: 0x8, addend: 0x0, symName: __ZNKSt3__116reverse_iteratorIPNS_12basic_stringIcNS_11char_traitsIcEENS_9allocatorIcEEEEEptB7v160006Ev, symObjAddr: 0x5280, symBinAddr: 0x10000E9C0, symSize: 0x30 }
  - { offsetInCU: 0x2CBF0, offset: 0x44AF9, size: 0x8, addend: 0x0, symName: __ZNSt3__116reverse_iteratorIPNS_12basic_stringIcNS_11char_traitsIcEENS_9allocatorIcEEEEEC2B7v160006ES7_, symObjAddr: 0x5380, symBinAddr: 0x10000EAB0, symSize: 0x30 }
  - { offsetInCU: 0x2CC27, offset: 0x44B30, size: 0x8, addend: 0x0, symName: __ZNSt3__16vectorINS_12basic_stringIcNS_11char_traitsIcEENS_9allocatorIcEEEENS4_IS6_EEE21_ConstructTransactionD2B7v160006Ev, symObjAddr: 0x53B0, symBinAddr: 0x10000EAE0, symSize: 0x20 }
  - { offsetInCU: 0x2CC50, offset: 0x44B59, size: 0x8, addend: 0x0, symName: __ZNSt3__128__exception_guard_exceptionsINS_6vectorINS_12basic_stringIcNS_11char_traitsIcEENS_9allocatorIcEEEENS5_IS7_EEE16__destroy_vectorEED2B7v160006Ev, symObjAddr: 0x53D0, symBinAddr: 0x10000EB00, symSize: 0x40 }
  - { offsetInCU: 0x2CC79, offset: 0x44B82, size: 0x8, addend: 0x0, symName: __ZNSt3__16vectorINS_12basic_stringIcNS_11char_traitsIcEENS_9allocatorIcEEEENS4_IS6_EEE16__destroy_vectorclB7v160006Ev, symObjAddr: 0x5410, symBinAddr: 0x10000EB40, symSize: 0x90 }
  - { offsetInCU: 0x2CC9E, offset: 0x44BA7, size: 0x8, addend: 0x0, symName: __ZNKSt3__16vectorINS_12basic_stringIcNS_11char_traitsIcEENS_9allocatorIcEEEENS4_IS6_EEE17__annotate_deleteB7v160006Ev, symObjAddr: 0x54A0, symBinAddr: 0x10000EBD0, symSize: 0xB0 }
  - { offsetInCU: 0x2CCC3, offset: 0x44BCC, size: 0x8, addend: 0x0, symName: __ZNSt3__16vectorINS_12basic_stringIcNS_11char_traitsIcEENS_9allocatorIcEEEENS4_IS6_EEE7__clearB7v160006Ev, symObjAddr: 0x5560, symBinAddr: 0x10000EC90, symSize: 0x20 }
  - { offsetInCU: 0x2CCE8, offset: 0x44BF1, size: 0x8, addend: 0x0, symName: __ZNSt3__116allocator_traitsINS_9allocatorINS_12basic_stringIcNS_11char_traitsIcEENS1_IcEEEEEEE10deallocateB7v160006ERS7_PS6_m, symObjAddr: 0x5580, symBinAddr: 0x10000ECB0, symSize: 0x30 }
  - { offsetInCU: 0x2CD2A, offset: 0x44C33, size: 0x8, addend: 0x0, symName: __ZNKSt3__16vectorINS_12basic_stringIcNS_11char_traitsIcEENS_9allocatorIcEEEENS4_IS6_EEE4sizeB7v160006Ev, symObjAddr: 0x55B0, symBinAddr: 0x10000ECE0, symSize: 0x30 }
  - { offsetInCU: 0x2CD4F, offset: 0x44C58, size: 0x8, addend: 0x0, symName: __ZNSt3__16vectorINS_12basic_stringIcNS_11char_traitsIcEENS_9allocatorIcEEEENS4_IS6_EEE22__base_destruct_at_endB7v160006EPS6_, symObjAddr: 0x55E0, symBinAddr: 0x10000ED10, symSize: 0x80 }
  - { offsetInCU: 0x2CD92, offset: 0x44C9B, size: 0x8, addend: 0x0, symName: __ZNSt3__19allocatorINS_12basic_stringIcNS_11char_traitsIcEENS0_IcEEEEE10deallocateB7v160006EPS5_m, symObjAddr: 0x5660, symBinAddr: 0x10000ED90, symSize: 0x50 }
  - { offsetInCU: 0x2CDD3, offset: 0x44CDC, size: 0x8, addend: 0x0, symName: __ZNSt3__16vectorINS0_INS_12basic_stringIcNS_11char_traitsIcEENS_9allocatorIcEEEENS4_IS6_EEEENS4_IS8_EEEC2B7v160006ESt16initializer_listIS8_E, symObjAddr: 0x56B0, symBinAddr: 0x10000EDE0, symSize: 0x120 }
  - { offsetInCU: 0x2CE23, offset: 0x44D2C, size: 0x8, addend: 0x0, symName: __ZNSt3__117__compressed_pairIPNS_6vectorINS_12basic_stringIcNS_11char_traitsIcEENS_9allocatorIcEEEENS5_IS7_EEEENS5_IS9_EEEC1B7v160006IDnNS_18__default_init_tagEEEOT_OT0_, symObjAddr: 0x57D0, symBinAddr: 0x10000EF00, symSize: 0x30 }
  - { offsetInCU: 0x2CE7A, offset: 0x44D83, size: 0x8, addend: 0x0, symName: __ZNSt3__16vectorINS0_INS_12basic_stringIcNS_11char_traitsIcEENS_9allocatorIcEEEENS4_IS6_EEEENS4_IS8_EEE16__destroy_vectorC1ERSA_, symObjAddr: 0x5840, symBinAddr: 0x10000EF70, symSize: 0x30 }
  - { offsetInCU: 0x2CEB2, offset: 0x44DBB, size: 0x8, addend: 0x0, symName: __ZNKSt16initializer_listINSt3__16vectorINS0_12basic_stringIcNS0_11char_traitsIcEENS0_9allocatorIcEEEENS5_IS7_EEEEE4sizeB7v160006Ev, symObjAddr: 0x5880, symBinAddr: 0x10000EFB0, symSize: 0x20 }
  - { offsetInCU: 0x2CED7, offset: 0x44DE0, size: 0x8, addend: 0x0, symName: __ZNSt3__16vectorINS0_INS_12basic_stringIcNS_11char_traitsIcEENS_9allocatorIcEEEENS4_IS6_EEEENS4_IS8_EEE11__vallocateB7v160006Em, symObjAddr: 0x58A0, symBinAddr: 0x10000EFD0, symSize: 0xA0 }
  - { offsetInCU: 0x2CF1A, offset: 0x44E23, size: 0x8, addend: 0x0, symName: __ZNSt3__16vectorINS0_INS_12basic_stringIcNS_11char_traitsIcEENS_9allocatorIcEEEENS4_IS6_EEEENS4_IS8_EEE18__construct_at_endIPKS8_Li0EEEvT_SE_m, symObjAddr: 0x5940, symBinAddr: 0x10000F070, symSize: 0x90 }
  - { offsetInCU: 0x2CF8B, offset: 0x44E94, size: 0x8, addend: 0x0, symName: __ZNKSt16initializer_listINSt3__16vectorINS0_12basic_stringIcNS0_11char_traitsIcEENS0_9allocatorIcEEEENS5_IS7_EEEEE5beginB7v160006Ev, symObjAddr: 0x59D0, symBinAddr: 0x10000F100, symSize: 0x20 }
  - { offsetInCU: 0x2CFB0, offset: 0x44EB9, size: 0x8, addend: 0x0, symName: __ZNKSt16initializer_listINSt3__16vectorINS0_12basic_stringIcNS0_11char_traitsIcEENS0_9allocatorIcEEEENS5_IS7_EEEEE3endB7v160006Ev, symObjAddr: 0x59F0, symBinAddr: 0x10000F120, symSize: 0x20 }
  - { offsetInCU: 0x2CFD5, offset: 0x44EDE, size: 0x8, addend: 0x0, symName: __ZNSt3__128__exception_guard_exceptionsINS_6vectorINS1_INS_12basic_stringIcNS_11char_traitsIcEENS_9allocatorIcEEEENS5_IS7_EEEENS5_IS9_EEE16__destroy_vectorEE10__completeB7v160006Ev, symObjAddr: 0x5A10, symBinAddr: 0x10000F140, symSize: 0x20 }
  - { offsetInCU: 0x2CFFA, offset: 0x44F03, size: 0x8, addend: 0x0, symName: __ZNSt3__128__exception_guard_exceptionsINS_6vectorINS1_INS_12basic_stringIcNS_11char_traitsIcEENS_9allocatorIcEEEENS5_IS7_EEEENS5_IS9_EEE16__destroy_vectorEED1B7v160006Ev, symObjAddr: 0x5A30, symBinAddr: 0x10000F160, symSize: 0x20 }
  - { offsetInCU: 0x2D023, offset: 0x44F2C, size: 0x8, addend: 0x0, symName: __ZNSt3__117__compressed_pairIPNS_6vectorINS_12basic_stringIcNS_11char_traitsIcEENS_9allocatorIcEEEENS5_IS7_EEEENS5_IS9_EEEC2B7v160006IDnNS_18__default_init_tagEEEOT_OT0_, symObjAddr: 0x5A50, symBinAddr: 0x10000F180, symSize: 0x40 }
  - { offsetInCU: 0x2D07A, offset: 0x44F83, size: 0x8, addend: 0x0, symName: __ZNSt3__122__compressed_pair_elemIPNS_6vectorINS_12basic_stringIcNS_11char_traitsIcEENS_9allocatorIcEEEENS5_IS7_EEEELi0ELb0EEC2B7v160006IDnvEEOT_, symObjAddr: 0x5A90, symBinAddr: 0x10000F1C0, symSize: 0x20 }
  - { offsetInCU: 0x2D0BB, offset: 0x44FC4, size: 0x8, addend: 0x0, symName: __ZNSt3__122__compressed_pair_elemINS_9allocatorINS_6vectorINS_12basic_stringIcNS_11char_traitsIcEENS1_IcEEEENS1_IS7_EEEEEELi1ELb1EEC2B7v160006ENS_18__default_init_tagE, symObjAddr: 0x5AB0, symBinAddr: 0x10000F1E0, symSize: 0x20 }
  - { offsetInCU: 0x2D0EE, offset: 0x44FF7, size: 0x8, addend: 0x0, symName: __ZNSt3__19allocatorINS_6vectorINS_12basic_stringIcNS_11char_traitsIcEENS0_IcEEEENS0_IS6_EEEEEC2B7v160006Ev, symObjAddr: 0x5AD0, symBinAddr: 0x10000F200, symSize: 0x20 }
  - { offsetInCU: 0x2D117, offset: 0x45020, size: 0x8, addend: 0x0, symName: __ZNSt3__116__non_trivial_ifILb1ENS_9allocatorINS_6vectorINS_12basic_stringIcNS_11char_traitsIcEENS1_IcEEEENS1_IS7_EEEEEEEC2B7v160006Ev, symObjAddr: 0x5AF0, symBinAddr: 0x10000F220, symSize: 0x10 }
  - { offsetInCU: 0x2D140, offset: 0x45049, size: 0x8, addend: 0x0, symName: __ZNSt3__128__exception_guard_exceptionsINS_6vectorINS1_INS_12basic_stringIcNS_11char_traitsIcEENS_9allocatorIcEEEENS5_IS7_EEEENS5_IS9_EEE16__destroy_vectorEEC1B7v160006ESC_, symObjAddr: 0x5B00, symBinAddr: 0x10000F230, symSize: 0x30 }
  - { offsetInCU: 0x2D177, offset: 0x45080, size: 0x8, addend: 0x0, symName: __ZNSt3__128__exception_guard_exceptionsINS_6vectorINS1_INS_12basic_stringIcNS_11char_traitsIcEENS_9allocatorIcEEEENS5_IS7_EEEENS5_IS9_EEE16__destroy_vectorEEC2B7v160006ESC_, symObjAddr: 0x5B30, symBinAddr: 0x10000F260, symSize: 0x20 }
  - { offsetInCU: 0x2D1AE, offset: 0x450B7, size: 0x8, addend: 0x0, symName: __ZNSt3__16vectorINS0_INS_12basic_stringIcNS_11char_traitsIcEENS_9allocatorIcEEEENS4_IS6_EEEENS4_IS8_EEE16__destroy_vectorC2ERSA_, symObjAddr: 0x5B50, symBinAddr: 0x10000F280, symSize: 0x20 }
  - { offsetInCU: 0x2D1E6, offset: 0x450EF, size: 0x8, addend: 0x0, symName: __ZNKSt3__16vectorINS0_INS_12basic_stringIcNS_11char_traitsIcEENS_9allocatorIcEEEENS4_IS6_EEEENS4_IS8_EEE8max_sizeEv, symObjAddr: 0x5B70, symBinAddr: 0x10000F2A0, symSize: 0x60 }
  - { offsetInCU: 0x2D20C, offset: 0x45115, size: 0x8, addend: 0x0, symName: __ZNKSt3__16vectorINS0_INS_12basic_stringIcNS_11char_traitsIcEENS_9allocatorIcEEEENS4_IS6_EEEENS4_IS8_EEE20__throw_length_errorB7v160006Ev, symObjAddr: 0x5BD0, symBinAddr: 0x10000F300, symSize: 0x20 }
  - { offsetInCU: 0x2D231, offset: 0x4513A, size: 0x8, addend: 0x0, symName: __ZNSt3__16vectorINS0_INS_12basic_stringIcNS_11char_traitsIcEENS_9allocatorIcEEEENS4_IS6_EEEENS4_IS8_EEE7__allocB7v160006Ev, symObjAddr: 0x5C30, symBinAddr: 0x10000F360, symSize: 0x20 }
  - { offsetInCU: 0x2D256, offset: 0x4515F, size: 0x8, addend: 0x0, symName: __ZNSt3__16vectorINS0_INS_12basic_stringIcNS_11char_traitsIcEENS_9allocatorIcEEEENS4_IS6_EEEENS4_IS8_EEE9__end_capB7v160006Ev, symObjAddr: 0x5C50, symBinAddr: 0x10000F380, symSize: 0x20 }
  - { offsetInCU: 0x2D27B, offset: 0x45184, size: 0x8, addend: 0x0, symName: __ZNKSt3__16vectorINS0_INS_12basic_stringIcNS_11char_traitsIcEENS_9allocatorIcEEEENS4_IS6_EEEENS4_IS8_EEE14__annotate_newB7v160006Em, symObjAddr: 0x5C70, symBinAddr: 0x10000F3A0, symSize: 0xA0 }
  - { offsetInCU: 0x2D2B9, offset: 0x451C2, size: 0x8, addend: 0x0, symName: __ZNSt3__116allocator_traitsINS_9allocatorINS_6vectorINS_12basic_stringIcNS_11char_traitsIcEENS1_IcEEEENS1_IS7_EEEEEEE8max_sizeB7v160006ISA_vvEEmRKSA_, symObjAddr: 0x5D10, symBinAddr: 0x10000F440, symSize: 0x30 }
  - { offsetInCU: 0x2D2E5, offset: 0x451EE, size: 0x8, addend: 0x0, symName: __ZNKSt3__16vectorINS0_INS_12basic_stringIcNS_11char_traitsIcEENS_9allocatorIcEEEENS4_IS6_EEEENS4_IS8_EEE7__allocB7v160006Ev, symObjAddr: 0x5D40, symBinAddr: 0x10000F470, symSize: 0x20 }
  - { offsetInCU: 0x2D30A, offset: 0x45213, size: 0x8, addend: 0x0, symName: __ZNKSt3__117__compressed_pairIPNS_6vectorINS_12basic_stringIcNS_11char_traitsIcEENS_9allocatorIcEEEENS5_IS7_EEEENS5_IS9_EEE6secondB7v160006Ev, symObjAddr: 0x5D60, symBinAddr: 0x10000F490, symSize: 0x20 }
  - { offsetInCU: 0x2D32F, offset: 0x45238, size: 0x8, addend: 0x0, symName: __ZNKSt3__122__compressed_pair_elemINS_9allocatorINS_6vectorINS_12basic_stringIcNS_11char_traitsIcEENS1_IcEEEENS1_IS7_EEEEEELi1ELb1EE5__getB7v160006Ev, symObjAddr: 0x5D80, symBinAddr: 0x10000F4B0, symSize: 0x10 }
  - { offsetInCU: 0x2D354, offset: 0x4525D, size: 0x8, addend: 0x0, symName: __ZNSt3__19allocatorINS_6vectorINS_12basic_stringIcNS_11char_traitsIcEENS0_IcEEEENS0_IS6_EEEEE8allocateB7v160006Em, symObjAddr: 0x5D90, symBinAddr: 0x10000F4C0, symSize: 0x50 }
  - { offsetInCU: 0x2D387, offset: 0x45290, size: 0x8, addend: 0x0, symName: __ZNSt3__117__compressed_pairIPNS_6vectorINS_12basic_stringIcNS_11char_traitsIcEENS_9allocatorIcEEEENS5_IS7_EEEENS5_IS9_EEE6secondB7v160006Ev, symObjAddr: 0x5DE0, symBinAddr: 0x10000F510, symSize: 0x20 }
  - { offsetInCU: 0x2D3AC, offset: 0x452B5, size: 0x8, addend: 0x0, symName: __ZNSt3__122__compressed_pair_elemINS_9allocatorINS_6vectorINS_12basic_stringIcNS_11char_traitsIcEENS1_IcEEEENS1_IS7_EEEEEELi1ELb1EE5__getB7v160006Ev, symObjAddr: 0x5E00, symBinAddr: 0x10000F530, symSize: 0x10 }
  - { offsetInCU: 0x2D3D1, offset: 0x452DA, size: 0x8, addend: 0x0, symName: __ZNSt3__117__compressed_pairIPNS_6vectorINS_12basic_stringIcNS_11char_traitsIcEENS_9allocatorIcEEEENS5_IS7_EEEENS5_IS9_EEE5firstB7v160006Ev, symObjAddr: 0x5E10, symBinAddr: 0x10000F540, symSize: 0x20 }
  - { offsetInCU: 0x2D3F6, offset: 0x452FF, size: 0x8, addend: 0x0, symName: __ZNSt3__122__compressed_pair_elemIPNS_6vectorINS_12basic_stringIcNS_11char_traitsIcEENS_9allocatorIcEEEENS5_IS7_EEEELi0ELb0EE5__getB7v160006Ev, symObjAddr: 0x5E30, symBinAddr: 0x10000F560, symSize: 0x10 }
  - { offsetInCU: 0x2D41B, offset: 0x45324, size: 0x8, addend: 0x0, symName: __ZNKSt3__16vectorINS0_INS_12basic_stringIcNS_11char_traitsIcEENS_9allocatorIcEEEENS4_IS6_EEEENS4_IS8_EEE31__annotate_contiguous_containerB7v160006EPKvSC_SC_SC_, symObjAddr: 0x5E40, symBinAddr: 0x10000F570, symSize: 0x20 }
  - { offsetInCU: 0x2D470, offset: 0x45379, size: 0x8, addend: 0x0, symName: __ZNKSt3__16vectorINS0_INS_12basic_stringIcNS_11char_traitsIcEENS_9allocatorIcEEEENS4_IS6_EEEENS4_IS8_EEE4dataB7v160006Ev, symObjAddr: 0x5E60, symBinAddr: 0x10000F590, symSize: 0x20 }
  - { offsetInCU: 0x2D495, offset: 0x4539E, size: 0x8, addend: 0x0, symName: __ZNKSt3__16vectorINS0_INS_12basic_stringIcNS_11char_traitsIcEENS_9allocatorIcEEEENS4_IS6_EEEENS4_IS8_EEE8capacityB7v160006Ev, symObjAddr: 0x5E80, symBinAddr: 0x10000F5B0, symSize: 0x40 }
  - { offsetInCU: 0x2D4BA, offset: 0x453C3, size: 0x8, addend: 0x0, symName: __ZNKSt3__16vectorINS0_INS_12basic_stringIcNS_11char_traitsIcEENS_9allocatorIcEEEENS4_IS6_EEEENS4_IS8_EEE9__end_capB7v160006Ev, symObjAddr: 0x5ED0, symBinAddr: 0x10000F600, symSize: 0x20 }
  - { offsetInCU: 0x2D4DF, offset: 0x453E8, size: 0x8, addend: 0x0, symName: __ZNKSt3__117__compressed_pairIPNS_6vectorINS_12basic_stringIcNS_11char_traitsIcEENS_9allocatorIcEEEENS5_IS7_EEEENS5_IS9_EEE5firstB7v160006Ev, symObjAddr: 0x5EF0, symBinAddr: 0x10000F620, symSize: 0x20 }
  - { offsetInCU: 0x2D504, offset: 0x4540D, size: 0x8, addend: 0x0, symName: __ZNKSt3__122__compressed_pair_elemIPNS_6vectorINS_12basic_stringIcNS_11char_traitsIcEENS_9allocatorIcEEEENS5_IS7_EEEELi0ELb0EE5__getB7v160006Ev, symObjAddr: 0x5F10, symBinAddr: 0x10000F640, symSize: 0x10 }
  - { offsetInCU: 0x2D542, offset: 0x4544B, size: 0x8, addend: 0x0, symName: __ZNSt3__16vectorINS0_INS_12basic_stringIcNS_11char_traitsIcEENS_9allocatorIcEEEENS4_IS6_EEEENS4_IS8_EEE21_ConstructTransactionC1B7v160006ERSA_m, symObjAddr: 0x5F20, symBinAddr: 0x10000F650, symSize: 0x30 }
  - { offsetInCU: 0x2D589, offset: 0x45492, size: 0x8, addend: 0x0, symName: __ZNSt3__16vectorINS0_INS_12basic_stringIcNS_11char_traitsIcEENS_9allocatorIcEEEENS4_IS6_EEEENS4_IS8_EEE21_ConstructTransactionD1B7v160006Ev, symObjAddr: 0x6050, symBinAddr: 0x10000F780, symSize: 0x20 }
  - { offsetInCU: 0x2D5B2, offset: 0x454BB, size: 0x8, addend: 0x0, symName: __ZNSt3__16vectorINS0_INS_12basic_stringIcNS_11char_traitsIcEENS_9allocatorIcEEEENS4_IS6_EEEENS4_IS8_EEE21_ConstructTransactionC2B7v160006ERSA_m, symObjAddr: 0x6070, symBinAddr: 0x10000F7A0, symSize: 0x40 }
  - { offsetInCU: 0x2D5F9, offset: 0x45502, size: 0x8, addend: 0x0, symName: __ZNSt3__129_AllocatorDestroyRangeReverseINS_9allocatorINS_6vectorINS_12basic_stringIcNS_11char_traitsIcEENS1_IcEEEENS1_IS7_EEEEEEPS9_EC1B7v160006ERSA_RSB_SE_, symObjAddr: 0x6110, symBinAddr: 0x10000F840, symSize: 0x40 }
  - { offsetInCU: 0x2D64F, offset: 0x45558, size: 0x8, addend: 0x0, symName: __ZNSt3__116allocator_traitsINS_9allocatorINS_6vectorINS_12basic_stringIcNS_11char_traitsIcEENS1_IcEEEENS1_IS7_EEEEEEE9constructB7v160006IS9_JRKS9_EvvEEvRSA_PT_DpOT0_, symObjAddr: 0x6150, symBinAddr: 0x10000F880, symSize: 0x30 }
  - { offsetInCU: 0x2D6A4, offset: 0x455AD, size: 0x8, addend: 0x0, symName: __ZNSt3__128__exception_guard_exceptionsINS_29_AllocatorDestroyRangeReverseINS_9allocatorINS_6vectorINS_12basic_stringIcNS_11char_traitsIcEENS2_IcEEEENS2_IS8_EEEEEEPSA_EEE10__completeB7v160006Ev, symObjAddr: 0x6180, symBinAddr: 0x10000F8B0, symSize: 0x20 }
  - { offsetInCU: 0x2D6C9, offset: 0x455D2, size: 0x8, addend: 0x0, symName: __ZNSt3__128__exception_guard_exceptionsINS_29_AllocatorDestroyRangeReverseINS_9allocatorINS_6vectorINS_12basic_stringIcNS_11char_traitsIcEENS2_IcEEEENS2_IS8_EEEEEEPSA_EEED1B7v160006Ev, symObjAddr: 0x61A0, symBinAddr: 0x10000F8D0, symSize: 0x20 }
  - { offsetInCU: 0x2D6F2, offset: 0x455FB, size: 0x8, addend: 0x0, symName: __ZNSt3__128__exception_guard_exceptionsINS_29_AllocatorDestroyRangeReverseINS_9allocatorINS_6vectorINS_12basic_stringIcNS_11char_traitsIcEENS2_IcEEEENS2_IS8_EEEEEEPSA_EEEC1B7v160006ESD_, symObjAddr: 0x61C0, symBinAddr: 0x10000F8F0, symSize: 0x40 }
  - { offsetInCU: 0x2D729, offset: 0x45632, size: 0x8, addend: 0x0, symName: __ZNSt3__128__exception_guard_exceptionsINS_29_AllocatorDestroyRangeReverseINS_9allocatorINS_6vectorINS_12basic_stringIcNS_11char_traitsIcEENS2_IcEEEENS2_IS8_EEEEEEPSA_EEEC2B7v160006ESD_, symObjAddr: 0x6200, symBinAddr: 0x10000F930, symSize: 0x30 }
  - { offsetInCU: 0x2D760, offset: 0x45669, size: 0x8, addend: 0x0, symName: __ZNSt3__129_AllocatorDestroyRangeReverseINS_9allocatorINS_6vectorINS_12basic_stringIcNS_11char_traitsIcEENS1_IcEEEENS1_IS7_EEEEEEPS9_EC2B7v160006ERSA_RSB_SE_, symObjAddr: 0x6230, symBinAddr: 0x10000F960, symSize: 0x40 }
  - { offsetInCU: 0x2D7B6, offset: 0x456BF, size: 0x8, addend: 0x0, symName: __ZNSt3__128__exception_guard_exceptionsINS_29_AllocatorDestroyRangeReverseINS_9allocatorINS_6vectorINS_12basic_stringIcNS_11char_traitsIcEENS2_IcEEEENS2_IS8_EEEEEEPSA_EEED2B7v160006Ev, symObjAddr: 0x62B0, symBinAddr: 0x10000F9E0, symSize: 0x40 }
  - { offsetInCU: 0x2D7DF, offset: 0x456E8, size: 0x8, addend: 0x0, symName: __ZNKSt3__129_AllocatorDestroyRangeReverseINS_9allocatorINS_6vectorINS_12basic_stringIcNS_11char_traitsIcEENS1_IcEEEENS1_IS7_EEEEEEPS9_EclB7v160006Ev, symObjAddr: 0x62F0, symBinAddr: 0x10000FA20, symSize: 0x60 }
  - { offsetInCU: 0x2D804, offset: 0x4570D, size: 0x8, addend: 0x0, symName: __ZNSt3__116reverse_iteratorIPNS_6vectorINS_12basic_stringIcNS_11char_traitsIcEENS_9allocatorIcEEEENS5_IS7_EEEEEC1B7v160006ESA_, symObjAddr: 0x63C0, symBinAddr: 0x10000FAF0, symSize: 0x30 }
  - { offsetInCU: 0x2D83B, offset: 0x45744, size: 0x8, addend: 0x0, symName: __ZNSt3__116allocator_traitsINS_9allocatorINS_6vectorINS_12basic_stringIcNS_11char_traitsIcEENS1_IcEEEENS1_IS7_EEEEEEE7destroyB7v160006IS9_vvEEvRSA_PT_, symObjAddr: 0x6430, symBinAddr: 0x10000FB60, symSize: 0x20 }
  - { offsetInCU: 0x2D876, offset: 0x4577F, size: 0x8, addend: 0x0, symName: __ZNSt3__116reverse_iteratorIPNS_6vectorINS_12basic_stringIcNS_11char_traitsIcEENS_9allocatorIcEEEENS5_IS7_EEEEEppB7v160006Ev, symObjAddr: 0x6470, symBinAddr: 0x10000FBA0, symSize: 0x20 }
  - { offsetInCU: 0x2D89B, offset: 0x457A4, size: 0x8, addend: 0x0, symName: __ZNKSt3__116reverse_iteratorIPNS_6vectorINS_12basic_stringIcNS_11char_traitsIcEENS_9allocatorIcEEEENS5_IS7_EEEEE4baseB7v160006Ev, symObjAddr: 0x6490, symBinAddr: 0x10000FBC0, symSize: 0x20 }
  - { offsetInCU: 0x2D8C5, offset: 0x457CE, size: 0x8, addend: 0x0, symName: __ZNSt3__119__to_address_helperINS_16reverse_iteratorIPNS_6vectorINS_12basic_stringIcNS_11char_traitsIcEENS_9allocatorIcEEEENS6_IS8_EEEEEEvE6__callB7v160006ERKSC_, symObjAddr: 0x64F0, symBinAddr: 0x10000FC20, symSize: 0x40 }
  - { offsetInCU: 0x2D8E8, offset: 0x457F1, size: 0x8, addend: 0x0, symName: __ZNKSt3__116reverse_iteratorIPNS_6vectorINS_12basic_stringIcNS_11char_traitsIcEENS_9allocatorIcEEEENS5_IS7_EEEEEptB7v160006Ev, symObjAddr: 0x6530, symBinAddr: 0x10000FC60, symSize: 0x30 }
  - { offsetInCU: 0x2D90D, offset: 0x45816, size: 0x8, addend: 0x0, symName: __ZNSt3__116reverse_iteratorIPNS_6vectorINS_12basic_stringIcNS_11char_traitsIcEENS_9allocatorIcEEEENS5_IS7_EEEEEC2B7v160006ESA_, symObjAddr: 0x6620, symBinAddr: 0x10000FD50, symSize: 0x30 }
  - { offsetInCU: 0x2D944, offset: 0x4584D, size: 0x8, addend: 0x0, symName: __ZNSt3__16vectorINS0_INS_12basic_stringIcNS_11char_traitsIcEENS_9allocatorIcEEEENS4_IS6_EEEENS4_IS8_EEE21_ConstructTransactionD2B7v160006Ev, symObjAddr: 0x6650, symBinAddr: 0x10000FD80, symSize: 0x20 }
  - { offsetInCU: 0x2D96D, offset: 0x45876, size: 0x8, addend: 0x0, symName: __ZNSt3__128__exception_guard_exceptionsINS_6vectorINS1_INS_12basic_stringIcNS_11char_traitsIcEENS_9allocatorIcEEEENS5_IS7_EEEENS5_IS9_EEE16__destroy_vectorEED2B7v160006Ev, symObjAddr: 0x6670, symBinAddr: 0x10000FDA0, symSize: 0x40 }
  - { offsetInCU: 0x2D996, offset: 0x4589F, size: 0x8, addend: 0x0, symName: __ZNSt3__16vectorINS0_INS_12basic_stringIcNS_11char_traitsIcEENS_9allocatorIcEEEENS4_IS6_EEEENS4_IS8_EEE16__destroy_vectorclB7v160006Ev, symObjAddr: 0x66B0, symBinAddr: 0x10000FDE0, symSize: 0x90 }
  - { offsetInCU: 0x2D9BB, offset: 0x458C4, size: 0x8, addend: 0x0, symName: __ZNKSt3__16vectorINS0_INS_12basic_stringIcNS_11char_traitsIcEENS_9allocatorIcEEEENS4_IS6_EEEENS4_IS8_EEE17__annotate_deleteB7v160006Ev, symObjAddr: 0x6740, symBinAddr: 0x10000FE70, symSize: 0xB0 }
  - { offsetInCU: 0x2D9E0, offset: 0x458E9, size: 0x8, addend: 0x0, symName: __ZNSt3__16vectorINS0_INS_12basic_stringIcNS_11char_traitsIcEENS_9allocatorIcEEEENS4_IS6_EEEENS4_IS8_EEE7__clearB7v160006Ev, symObjAddr: 0x6800, symBinAddr: 0x10000FF30, symSize: 0x20 }
  - { offsetInCU: 0x2DA05, offset: 0x4590E, size: 0x8, addend: 0x0, symName: __ZNSt3__116allocator_traitsINS_9allocatorINS_6vectorINS_12basic_stringIcNS_11char_traitsIcEENS1_IcEEEENS1_IS7_EEEEEEE10deallocateB7v160006ERSA_PS9_m, symObjAddr: 0x6820, symBinAddr: 0x10000FF50, symSize: 0x30 }
  - { offsetInCU: 0x2DA47, offset: 0x45950, size: 0x8, addend: 0x0, symName: __ZNKSt3__16vectorINS0_INS_12basic_stringIcNS_11char_traitsIcEENS_9allocatorIcEEEENS4_IS6_EEEENS4_IS8_EEE4sizeB7v160006Ev, symObjAddr: 0x6850, symBinAddr: 0x10000FF80, symSize: 0x30 }
  - { offsetInCU: 0x2DA6C, offset: 0x45975, size: 0x8, addend: 0x0, symName: __ZNSt3__16vectorINS0_INS_12basic_stringIcNS_11char_traitsIcEENS_9allocatorIcEEEENS4_IS6_EEEENS4_IS8_EEE22__base_destruct_at_endB7v160006EPS8_, symObjAddr: 0x6880, symBinAddr: 0x10000FFB0, symSize: 0x80 }
  - { offsetInCU: 0x2DAAF, offset: 0x459B8, size: 0x8, addend: 0x0, symName: __ZNSt3__19allocatorINS_6vectorINS_12basic_stringIcNS_11char_traitsIcEENS0_IcEEEENS0_IS6_EEEEE10deallocateB7v160006EPS8_m, symObjAddr: 0x6900, symBinAddr: 0x100010030, symSize: 0x50 }
  - { offsetInCU: 0x2DAF0, offset: 0x459F9, size: 0x8, addend: 0x0, symName: __ZNSt3__16vectorINS_12basic_stringIcNS_11char_traitsIcEENS_9allocatorIcEEEENS4_IS6_EEED2B7v160006Ev, symObjAddr: 0x6950, symBinAddr: 0x100010080, symSize: 0x40 }
  - { offsetInCU: 0x2DB19, offset: 0x45A22, size: 0x8, addend: 0x0, symName: __ZNSt3__16vectorINS0_INS_12basic_stringIcNS_11char_traitsIcEENS_9allocatorIcEEEENS4_IS6_EEEENS4_IS8_EEED2B7v160006Ev, symObjAddr: 0x6990, symBinAddr: 0x1000100C0, symSize: 0x40 }
  - { offsetInCU: 0x2DB42, offset: 0x45A4B, size: 0x8, addend: 0x0, symName: __ZNSt3__16vectorINS_12basic_stringIcNS_11char_traitsIcEENS_9allocatorIcEEEENS4_IS6_EEEC2ERKS8_, symObjAddr: 0x69D0, symBinAddr: 0x100010100, symSize: 0x110 }
  - { offsetInCU: 0x2DBA2, offset: 0x45AAB, size: 0x8, addend: 0x0, symName: __ZNSt3__116allocator_traitsINS_9allocatorINS_12basic_stringIcNS_11char_traitsIcEENS1_IcEEEEEEE37select_on_container_copy_constructionB7v160006IS7_vvEES7_RKS7_, symObjAddr: 0x6AE0, symBinAddr: 0x100010210, symSize: 0x10 }
  - { offsetInCU: 0x2DBD6, offset: 0x45ADF, size: 0x8, addend: 0x0, symName: __ZNSt3__117__compressed_pairIPNS_12basic_stringIcNS_11char_traitsIcEENS_9allocatorIcEEEENS4_IS6_EEEC1B7v160006IDnS8_EEOT_OT0_, symObjAddr: 0x6AF0, symBinAddr: 0x100010220, symSize: 0x30 }
  - { offsetInCU: 0x2DC2D, offset: 0x45B36, size: 0x8, addend: 0x0, symName: __ZNSt3__16vectorINS_12basic_stringIcNS_11char_traitsIcEENS_9allocatorIcEEEENS4_IS6_EEE18__construct_at_endIPS6_Li0EEEvT_SB_m, symObjAddr: 0x6B20, symBinAddr: 0x100010250, symSize: 0x90 }
  - { offsetInCU: 0x2DC9E, offset: 0x45BA7, size: 0x8, addend: 0x0, symName: __ZNSt3__117__compressed_pairIPNS_12basic_stringIcNS_11char_traitsIcEENS_9allocatorIcEEEENS4_IS6_EEEC2B7v160006IDnS8_EEOT_OT0_, symObjAddr: 0x6BB0, symBinAddr: 0x1000102E0, symSize: 0x40 }
  - { offsetInCU: 0x2DCF5, offset: 0x45BFE, size: 0x8, addend: 0x0, symName: __ZNSt3__122__compressed_pair_elemINS_9allocatorINS_12basic_stringIcNS_11char_traitsIcEENS1_IcEEEEEELi1ELb1EEC2B7v160006IS7_vEEOT_, symObjAddr: 0x6BF0, symBinAddr: 0x100010320, symSize: 0x10 }
  - { offsetInCU: 0x2DD36, offset: 0x45C3F, size: 0x8, addend: 0x0, symName: __ZNSt3__116allocator_traitsINS_9allocatorINS_12basic_stringIcNS_11char_traitsIcEENS1_IcEEEEEEE9constructB7v160006IS6_JRS6_EvvEEvRS7_PT_DpOT0_, symObjAddr: 0x6D00, symBinAddr: 0x100010430, symSize: 0x30 }
  - { offsetInCU: 0x2DD8B, offset: 0x45C94, size: 0x8, addend: 0x0, symName: __ZNSt3__16vectorINS_12basic_stringIcNS_11char_traitsIcEENS_9allocatorIcEEEENS4_IS6_EEE11__make_iterB7v160006EPS6_, symObjAddr: 0x6D70, symBinAddr: 0x1000104A0, symSize: 0x30 }
  - { offsetInCU: 0x2DDBF, offset: 0x45CC8, size: 0x8, addend: 0x0, symName: __ZNSt3__111__wrap_iterIPNS_12basic_stringIcNS_11char_traitsIcEENS_9allocatorIcEEEEEC1B7v160006EPKvS7_, symObjAddr: 0x6DA0, symBinAddr: 0x1000104D0, symSize: 0x30 }
  - { offsetInCU: 0x2DE04, offset: 0x45D0D, size: 0x8, addend: 0x0, symName: __ZNSt3__111__wrap_iterIPNS_12basic_stringIcNS_11char_traitsIcEENS_9allocatorIcEEEEEC2B7v160006EPKvS7_, symObjAddr: 0x6DD0, symBinAddr: 0x100010500, symSize: 0x20 }
  - { offsetInCU: 0x2DE49, offset: 0x45D52, size: 0x8, addend: 0x0, symName: __ZNKSt3__111__wrap_iterIPNS_12basic_stringIcNS_11char_traitsIcEENS_9allocatorIcEEEEE4baseB7v160006Ev, symObjAddr: 0x6E30, symBinAddr: 0x100010560, symSize: 0x20 }
  - { offsetInCU: 0x2DE6E, offset: 0x45D77, size: 0x8, addend: 0x0, symName: __ZNSt3__112basic_stringIcNS_11char_traitsIcEENS_9allocatorIcEEEC2B7v160006Ev, symObjAddr: 0x6E50, symBinAddr: 0x100010580, symSize: 0x50 }
  - { offsetInCU: 0x2DE97, offset: 0x45DA0, size: 0x8, addend: 0x0, symName: __ZNSt3__16vectorI4PathNS_9allocatorIS1_EEE22__construct_one_at_endB7v160006IJRNS_12basic_stringIcNS_11char_traitsIcEENS2_IcEEEESB_EEEvDpOT_, symObjAddr: 0x6F40, symBinAddr: 0x1000105D0, symSize: 0xA0 }
  - { offsetInCU: 0x2DEF9, offset: 0x45E02, size: 0x8, addend: 0x0, symName: __ZNSt3__16vectorI4PathNS_9allocatorIS1_EEE24__emplace_back_slow_pathIJRNS_12basic_stringIcNS_11char_traitsIcEENS2_IcEEEESB_EEEvDpOT_, symObjAddr: 0x6FE0, symBinAddr: 0x100010670, symSize: 0xE0 }
  - { offsetInCU: 0x2DF6C, offset: 0x45E75, size: 0x8, addend: 0x0, symName: __ZNSt3__16vectorI4PathNS_9allocatorIS1_EEE4backB7v160006Ev, symObjAddr: 0x70C0, symBinAddr: 0x100010750, symSize: 0x20 }
  - { offsetInCU: 0x2DFAA, offset: 0x45EB3, size: 0x8, addend: 0x0, symName: __ZNSt3__116allocator_traitsINS_9allocatorI4PathEEE9constructB7v160006IS2_JRNS_12basic_stringIcNS_11char_traitsIcEENS1_IcEEEESB_EvvEEvRS3_PT_DpOT0_, symObjAddr: 0x7140, symBinAddr: 0x100010770, symSize: 0x30 }
  - { offsetInCU: 0x2E022, offset: 0x45F2B, size: 0x8, addend: 0x0, symName: __ZNSt3__16vectorI4PathNS_9allocatorIS1_EEE6assignIPKS1_Li0EEEvT_S8_, symObjAddr: 0x8A60, symBinAddr: 0x100010850, symSize: 0x160 }
  - { offsetInCU: 0x2E0BF, offset: 0x45FC8, size: 0x8, addend: 0x0, symName: __ZNKSt16initializer_listI4PathE5beginB7v160006Ev, symObjAddr: 0x8BC0, symBinAddr: 0x1000109B0, symSize: 0x20 }
  - { offsetInCU: 0x2E0E4, offset: 0x45FED, size: 0x8, addend: 0x0, symName: __ZNKSt16initializer_listI4PathE3endB7v160006Ev, symObjAddr: 0x8BE0, symBinAddr: 0x1000109D0, symSize: 0x20 }
  - { offsetInCU: 0x2E109, offset: 0x46012, size: 0x8, addend: 0x0, symName: __ZNSt3__16vectorI4PathNS_9allocatorIS1_EEE18__construct_at_endIPKS1_Li0EEEvT_S8_m, symObjAddr: 0x8CC0, symBinAddr: 0x100010AB0, symSize: 0x90 }
  - { offsetInCU: 0x2E19D, offset: 0x460A6, size: 0x8, addend: 0x0, symName: __ZNKSt3__111__copy_loopINS_17_ClassicAlgPolicyEEclB7v160006IPK4PathS6_PS4_EENS_4pairIT_T1_EES9_T0_SA_, symObjAddr: 0x90A0, symBinAddr: 0x100010D00, symSize: 0x80 }
  - { offsetInCU: 0x2E220, offset: 0x46129, size: 0x8, addend: 0x0, symName: __ZNSt3__119__unwrap_range_implIPK4PathS3_E8__unwrapB7v160006ES3_S3_, symObjAddr: 0x91E0, symBinAddr: 0x100010DE0, symSize: 0x50 }
  - { offsetInCU: 0x2E256, offset: 0x4615F, size: 0x8, addend: 0x0, symName: __ZNSt3__14pairIPK4PathS3_EC1B7v160006IS3_S3_LPv0EEEOT_OT0_, symObjAddr: 0x9250, symBinAddr: 0x100010E50, symSize: 0x30 }
  - { offsetInCU: 0x2E2B3, offset: 0x461BC, size: 0x8, addend: 0x0, symName: __ZNSt3__118__unwrap_iter_implIPK4PathLb1EE8__unwrapB7v160006ES3_, symObjAddr: 0x9280, symBinAddr: 0x100010E80, symSize: 0x20 }
  - { offsetInCU: 0x2E2D6, offset: 0x461DF, size: 0x8, addend: 0x0, symName: __ZNSt3__14pairIPK4PathS3_EC2B7v160006IS3_S3_LPv0EEEOT_OT0_, symObjAddr: 0x92B0, symBinAddr: 0x100010EB0, symSize: 0x30 }
  - { offsetInCU: 0x2E33D, offset: 0x46246, size: 0x8, addend: 0x0, symName: __ZNSt3__14pairIPK4PathPS1_EC1B7v160006IS3_S4_LPv0EEEOT_OT0_, symObjAddr: 0x9350, symBinAddr: 0x100010EE0, symSize: 0x30 }
  - { offsetInCU: 0x2E39A, offset: 0x462A3, size: 0x8, addend: 0x0, symName: __ZNSt3__14pairIPK4PathPS1_EC2B7v160006IS3_S4_LPv0EEEOT_OT0_, symObjAddr: 0x9380, symBinAddr: 0x100010F10, symSize: 0x30 }
  - { offsetInCU: 0x2E3F7, offset: 0x46300, size: 0x8, addend: 0x0, symName: __ZNSt3__119__unwrap_range_implIPK4PathS3_E8__rewrapB7v160006ES3_S3_, symObjAddr: 0x93B0, symBinAddr: 0x100010F40, symSize: 0x30 }
  - { offsetInCU: 0x2E428, offset: 0x46331, size: 0x8, addend: 0x0, symName: __ZNSt3__118__unwrap_iter_implIPK4PathLb1EE8__rewrapB7v160006ES3_S3_, symObjAddr: 0x9420, symBinAddr: 0x100010FB0, symSize: 0x60 }
  - { offsetInCU: 0x2E459, offset: 0x46362, size: 0x8, addend: 0x0, symName: __ZNSt3__119basic_istringstreamIcNS_11char_traitsIcEENS_9allocatorIcEEED2Ev, symObjAddr: 0x9B70, symBinAddr: 0x100011110, symSize: 0x60 }
  - { offsetInCU: 0x2E491, offset: 0x4639A, size: 0x8, addend: 0x0, symName: __ZTv0_n24_NSt3__119basic_istringstreamIcNS_11char_traitsIcEENS_9allocatorIcEEED1Ev, symObjAddr: 0x9BD0, symBinAddr: 0x100011170, symSize: 0x20 }
  - { offsetInCU: 0x2E4AD, offset: 0x463B6, size: 0x8, addend: 0x0, symName: __ZNSt3__115basic_stringbufIcNS_11char_traitsIcEENS_9allocatorIcEEED1Ev, symObjAddr: 0x9BF0, symBinAddr: 0x100011190, symSize: 0x20 }
  - { offsetInCU: 0x2E4D9, offset: 0x463E2, size: 0x8, addend: 0x0, symName: __ZNSt3__115basic_stringbufIcNS_11char_traitsIcEENS_9allocatorIcEEED2Ev, symObjAddr: 0x9C10, symBinAddr: 0x1000111B0, symSize: 0x40 }
  - { offsetInCU: 0x2E505, offset: 0x4640E, size: 0x8, addend: 0x0, symName: __ZN4HostD2Ev, symObjAddr: 0xA320, symBinAddr: 0x1000111F0, symSize: 0x30 }
  - { offsetInCU: 0x2E530, offset: 0x46439, size: 0x8, addend: 0x0, symName: __ZNSt3__15tupleIJRiEEC1B7v160006INS_4_AndELi0EEES1_, symObjAddr: 0xA8F0, symBinAddr: 0x100011220, symSize: 0x30 }
  - { offsetInCU: 0x2E578, offset: 0x46481, size: 0x8, addend: 0x0, symName: __ZNSt3__15tupleIJRiEEC2B7v160006INS_4_AndELi0EEES1_, symObjAddr: 0xA920, symBinAddr: 0x100011250, symSize: 0x30 }
  - { offsetInCU: 0x2E5C0, offset: 0x464C9, size: 0x8, addend: 0x0, symName: __ZNSt3__112__tuple_implINS_15__tuple_indicesIJLm0EEEEJRiEEC1B7v160006IJLm0EEJS3_EJEJEJS3_EEENS1_IJXspT_EEEENS_13__tuple_typesIJDpT0_EEENS1_IJXspT1_EEEENS7_IJDpT2_EEEDpOT3_, symObjAddr: 0xA950, symBinAddr: 0x100011280, symSize: 0x30 }
  - { offsetInCU: 0x2E654, offset: 0x4655D, size: 0x8, addend: 0x0, symName: __ZNSt3__112__tuple_implINS_15__tuple_indicesIJLm0EEEEJRiEEC2B7v160006IJLm0EEJS3_EJEJEJS3_EEENS1_IJXspT_EEEENS_13__tuple_typesIJDpT0_EEENS1_IJXspT1_EEEENS7_IJDpT2_EEEDpOT3_, symObjAddr: 0xA980, symBinAddr: 0x1000112B0, symSize: 0x30 }
  - { offsetInCU: 0x2E6E8, offset: 0x465F1, size: 0x8, addend: 0x0, symName: __ZNSt3__112__tuple_leafILm0ERiLb0EEC2B7v160006IS1_vEEOT_, symObjAddr: 0xA9B0, symBinAddr: 0x1000112E0, symSize: 0x20 }
  - { offsetInCU: 0x2E72A, offset: 0x46633, size: 0x8, addend: 0x0, symName: __ZN6SwitchD2Ev, symObjAddr: 0xAA10, symBinAddr: 0x100011300, symSize: 0x30 }
  - { offsetInCU: 0x2E755, offset: 0x4665E, size: 0x8, addend: 0x0, symName: __ZNSt3__16chrono8durationIxNS_5ratioILl1ELl1EEEEC2B7v160006IiEERKT_PNS_9enable_ifIXaasr14is_convertibleIS8_xEE5valueooL_ZNS_17integral_constantIbLb0EE5valueEEntsr23treat_as_floating_pointIS6_EE5valueEvE4typeE, symObjAddr: 0xAA40, symBinAddr: 0x100011330, symSize: 0x20 }
  - { offsetInCU: 0x2E7AB, offset: 0x466B4, size: 0x8, addend: 0x0, symName: __ZNKSt3__16__lessIiiEclB7v160006ERKiS3_, symObjAddr: 0xAAB0, symBinAddr: 0x1000113A0, symSize: 0x30 }
  - { offsetInCU: 0x2E7EC, offset: 0x466F5, size: 0x8, addend: 0x0, symName: __ZNSt3__112basic_stringIcNS_11char_traitsIcEENS_9allocatorIcEEE13__get_pointerB7v160006Ev, symObjAddr: 0xAAE0, symBinAddr: 0x1000113D0, symSize: 0x50 }
  - { offsetInCU: 0x2E811, offset: 0x4671A, size: 0x8, addend: 0x0, symName: __ZNSt3__112basic_stringIcNS_11char_traitsIcEENS_9allocatorIcEEE18__get_long_pointerB7v160006Ev, symObjAddr: 0xAB30, symBinAddr: 0x100011420, symSize: 0x20 }
  - { offsetInCU: 0x2E836, offset: 0x4673F, size: 0x8, addend: 0x0, symName: __ZNSt3__112basic_stringIcNS_11char_traitsIcEENS_9allocatorIcEEE19__get_short_pointerB7v160006Ev, symObjAddr: 0xAB50, symBinAddr: 0x100011440, symSize: 0x30 }
  - { offsetInCU: 0x2E85B, offset: 0x46764, size: 0x8, addend: 0x0, symName: __ZNSt3__114pointer_traitsIPcE10pointer_toB7v160006ERc, symObjAddr: 0xAB80, symBinAddr: 0x100011470, symSize: 0x10 }
  - { offsetInCU: 0x2E87E, offset: 0x46787, size: 0x8, addend: 0x0, symName: __ZNSt3__119basic_ostringstreamIcNS_11char_traitsIcEENS_9allocatorIcEEED2Ev, symObjAddr: 0xABD0, symBinAddr: 0x100011480, symSize: 0x60 }
  - { offsetInCU: 0x2E8B6, offset: 0x467BF, size: 0x8, addend: 0x0, symName: __ZTv0_n24_NSt3__119basic_ostringstreamIcNS_11char_traitsIcEENS_9allocatorIcEEED1Ev, symObjAddr: 0xAC30, symBinAddr: 0x1000114E0, symSize: 0x20 }
  - { offsetInCU: 0x2E8CD, offset: 0x467D6, size: 0x8, addend: 0x0, symName: __ZNSt3__16vectorIiNS_9allocatorIiEEE6assignIPKiLi0EEEvT_S7_, symObjAddr: 0xAC50, symBinAddr: 0x100011500, symSize: 0x160 }
  - { offsetInCU: 0x2E96A, offset: 0x46873, size: 0x8, addend: 0x0, symName: __ZNKSt16initializer_listIiE5beginB7v160006Ev, symObjAddr: 0xADB0, symBinAddr: 0x100011660, symSize: 0x20 }
  - { offsetInCU: 0x2E98F, offset: 0x46898, size: 0x8, addend: 0x0, symName: __ZNKSt16initializer_listIiE3endB7v160006Ev, symObjAddr: 0xADD0, symBinAddr: 0x100011680, symSize: 0x20 }
  - { offsetInCU: 0x2E9B4, offset: 0x468BD, size: 0x8, addend: 0x0, symName: __ZNKSt3__16vectorIiNS_9allocatorIiEEE8capacityB7v160006Ev, symObjAddr: 0xAE20, symBinAddr: 0x1000116D0, symSize: 0x30 }
  - { offsetInCU: 0x2E9D9, offset: 0x468E2, size: 0x8, addend: 0x0, symName: __ZNSt3__16vectorIiNS_9allocatorIiEEE18__construct_at_endIPKiLi0EEEvT_S7_m, symObjAddr: 0xAEE0, symBinAddr: 0x100011790, symSize: 0x90 }
  - { offsetInCU: 0x2EA4A, offset: 0x46953, size: 0x8, addend: 0x0, symName: __ZNSt3__16vectorIiNS_9allocatorIiEEE17__destruct_at_endB7v160006EPi, symObjAddr: 0xAF70, symBinAddr: 0x100011820, symSize: 0x60 }
  - { offsetInCU: 0x2EA8D, offset: 0x46996, size: 0x8, addend: 0x0, symName: __ZNSt3__16vectorIiNS_9allocatorIiEEE13__vdeallocateEv, symObjAddr: 0xAFD0, symBinAddr: 0x100011880, symSize: 0x80 }
  - { offsetInCU: 0x2EAB3, offset: 0x469BC, size: 0x8, addend: 0x0, symName: __ZNSt3__16vectorIiNS_9allocatorIiEEE11__vallocateB7v160006Em, symObjAddr: 0xB050, symBinAddr: 0x100011900, symSize: 0xA0 }
  - { offsetInCU: 0x2EAF6, offset: 0x469FF, size: 0x8, addend: 0x0, symName: __ZNKSt3__16vectorIiNS_9allocatorIiEEE11__recommendB7v160006Em, symObjAddr: 0xB0F0, symBinAddr: 0x1000119A0, symSize: 0xA0 }
  - { offsetInCU: 0x2EB49, offset: 0x46A52, size: 0x8, addend: 0x0, symName: __ZNKSt3__16vectorIiNS_9allocatorIiEEE9__end_capB7v160006Ev, symObjAddr: 0xB1C0, symBinAddr: 0x100011A70, symSize: 0x20 }
  - { offsetInCU: 0x2EB6E, offset: 0x46A77, size: 0x8, addend: 0x0, symName: __ZNKSt3__117__compressed_pairIPiNS_9allocatorIiEEE5firstB7v160006Ev, symObjAddr: 0xB1E0, symBinAddr: 0x100011A90, symSize: 0x20 }
  - { offsetInCU: 0x2EB93, offset: 0x46A9C, size: 0x8, addend: 0x0, symName: __ZNKSt3__122__compressed_pair_elemIPiLi0ELb0EE5__getB7v160006Ev, symObjAddr: 0xB200, symBinAddr: 0x100011AB0, symSize: 0x10 }
  - { offsetInCU: 0x2EBDB, offset: 0x46AE4, size: 0x8, addend: 0x0, symName: __ZNKSt3__114__copy_trivialclB7v160006IKiiLi0EEENS_4pairIPT_PT0_EES5_S5_S7_, symObjAddr: 0xB3A0, symBinAddr: 0x100011C50, symSize: 0x40 }
  - { offsetInCU: 0x2EC5B, offset: 0x46B64, size: 0x8, addend: 0x0, symName: __ZNSt3__119__unwrap_range_implIPKiS2_E8__unwrapB7v160006ES2_S2_, symObjAddr: 0xB4A0, symBinAddr: 0x100011D50, symSize: 0x50 }
  - { offsetInCU: 0x2EC91, offset: 0x46B9A, size: 0x8, addend: 0x0, symName: __ZNSt3__14pairIPKiS2_EC1B7v160006IS2_S2_LPv0EEEOT_OT0_, symObjAddr: 0xB510, symBinAddr: 0x100011DC0, symSize: 0x30 }
  - { offsetInCU: 0x2ECEE, offset: 0x46BF7, size: 0x8, addend: 0x0, symName: __ZNSt3__118__unwrap_iter_implIPKiLb1EE8__unwrapB7v160006ES2_, symObjAddr: 0xB540, symBinAddr: 0x100011DF0, symSize: 0x20 }
  - { offsetInCU: 0x2ED11, offset: 0x46C1A, size: 0x8, addend: 0x0, symName: __ZNSt3__14pairIPKiS2_EC2B7v160006IS2_S2_LPv0EEEOT_OT0_, symObjAddr: 0xB570, symBinAddr: 0x100011E20, symSize: 0x30 }
  - { offsetInCU: 0x2ED78, offset: 0x46C81, size: 0x8, addend: 0x0, symName: __ZNSt3__14pairIPKiPiEC1B7v160006IRS2_S3_LPv0EEEOT_OT0_, symObjAddr: 0xB640, symBinAddr: 0x100011EF0, symSize: 0x30 }
  - { offsetInCU: 0x2EDD5, offset: 0x46CDE, size: 0x8, addend: 0x0, symName: __ZNSt3__14pairIPKiPiEC2B7v160006IRS2_S3_LPv0EEEOT_OT0_, symObjAddr: 0xB670, symBinAddr: 0x100011F20, symSize: 0x30 }
  - { offsetInCU: 0x2EE32, offset: 0x46D3B, size: 0x8, addend: 0x0, symName: __ZNSt3__118__unwrap_iter_implIPiLb1EE8__unwrapB7v160006ES1_, symObjAddr: 0xB6A0, symBinAddr: 0x100011F50, symSize: 0x20 }
  - { offsetInCU: 0x2EE55, offset: 0x46D5E, size: 0x8, addend: 0x0, symName: __ZNSt3__14pairIPKiPiEC1B7v160006IS2_S3_LPv0EEEOT_OT0_, symObjAddr: 0xB6D0, symBinAddr: 0x100011F80, symSize: 0x30 }
  - { offsetInCU: 0x2EEB2, offset: 0x46DBB, size: 0x8, addend: 0x0, symName: __ZNSt3__14pairIPKiPiEC2B7v160006IS2_S3_LPv0EEEOT_OT0_, symObjAddr: 0xB700, symBinAddr: 0x100011FB0, symSize: 0x30 }
  - { offsetInCU: 0x2EF0F, offset: 0x46E18, size: 0x8, addend: 0x0, symName: __ZNSt3__119__unwrap_range_implIPKiS2_E8__rewrapB7v160006ES2_S2_, symObjAddr: 0xB730, symBinAddr: 0x100011FE0, symSize: 0x30 }
  - { offsetInCU: 0x2EF40, offset: 0x46E49, size: 0x8, addend: 0x0, symName: __ZNSt3__118__unwrap_iter_implIPKiLb1EE8__rewrapB7v160006ES2_S2_, symObjAddr: 0xB7A0, symBinAddr: 0x100012050, symSize: 0x50 }
  - { offsetInCU: 0x2EF71, offset: 0x46E7A, size: 0x8, addend: 0x0, symName: __ZNSt3__118__unwrap_iter_implIPiLb1EE8__rewrapB7v160006ES1_S1_, symObjAddr: 0xB7F0, symBinAddr: 0x1000120A0, symSize: 0x50 }
  - { offsetInCU: 0x2EFBB, offset: 0x46EC4, size: 0x8, addend: 0x0, symName: __ZNSt3__16vectorIiNS_9allocatorIiEEE21_ConstructTransactionC1B7v160006ERS3_m, symObjAddr: 0xB840, symBinAddr: 0x1000120F0, symSize: 0x30 }
  - { offsetInCU: 0x2F002, offset: 0x46F0B, size: 0x8, addend: 0x0, symName: __ZNSt3__16vectorIiNS_9allocatorIiEEE7__allocB7v160006Ev, symObjAddr: 0xB8A0, symBinAddr: 0x100012150, symSize: 0x20 }
  - { offsetInCU: 0x2F027, offset: 0x46F30, size: 0x8, addend: 0x0, symName: __ZNSt3__16vectorIiNS_9allocatorIiEEE21_ConstructTransactionD1B7v160006Ev, symObjAddr: 0xB8C0, symBinAddr: 0x100012170, symSize: 0x20 }
  - { offsetInCU: 0x2F050, offset: 0x46F59, size: 0x8, addend: 0x0, symName: __ZNSt3__16vectorIiNS_9allocatorIiEEE21_ConstructTransactionC2B7v160006ERS3_m, symObjAddr: 0xB8E0, symBinAddr: 0x100012190, symSize: 0x40 }
  - { offsetInCU: 0x2F097, offset: 0x46FA0, size: 0x8, addend: 0x0, symName: __ZNSt3__117__compressed_pairIPiNS_9allocatorIiEEE6secondB7v160006Ev, symObjAddr: 0xB920, symBinAddr: 0x1000121D0, symSize: 0x20 }
  - { offsetInCU: 0x2F0BC, offset: 0x46FC5, size: 0x8, addend: 0x0, symName: __ZNSt3__122__compressed_pair_elemINS_9allocatorIiEELi1ELb1EE5__getB7v160006Ev, symObjAddr: 0xB940, symBinAddr: 0x1000121F0, symSize: 0x10 }
  - { offsetInCU: 0x2F0E1, offset: 0x46FEA, size: 0x8, addend: 0x0, symName: __ZNSt3__16vectorIiNS_9allocatorIiEEE21_ConstructTransactionD2B7v160006Ev, symObjAddr: 0xB950, symBinAddr: 0x100012200, symSize: 0x20 }
  - { offsetInCU: 0x2F10A, offset: 0x47013, size: 0x8, addend: 0x0, symName: __ZNSt3__16vectorIiNS_9allocatorIiEEE27__invalidate_iterators_pastB7v160006EPi, symObjAddr: 0xB970, symBinAddr: 0x100012220, symSize: 0x10 }
  - { offsetInCU: 0x2F13F, offset: 0x47048, size: 0x8, addend: 0x0, symName: __ZNSt3__16vectorIiNS_9allocatorIiEEE22__base_destruct_at_endB7v160006EPi, symObjAddr: 0xB980, symBinAddr: 0x100012230, symSize: 0x80 }
  - { offsetInCU: 0x2F182, offset: 0x4708B, size: 0x8, addend: 0x0, symName: __ZNKSt3__16vectorIiNS_9allocatorIiEEE17__annotate_shrinkB7v160006Em, symObjAddr: 0xBA00, symBinAddr: 0x1000122B0, symSize: 0xA0 }
  - { offsetInCU: 0x2F1B6, offset: 0x470BF, size: 0x8, addend: 0x0, symName: __ZNSt3__116allocator_traitsINS_9allocatorIiEEE7destroyB7v160006IivvEEvRS2_PT_, symObjAddr: 0xBAA0, symBinAddr: 0x100012350, symSize: 0x20 }
  - { offsetInCU: 0x2F1F1, offset: 0x470FA, size: 0x8, addend: 0x0, symName: __ZNKSt3__16vectorIiNS_9allocatorIiEEE31__annotate_contiguous_containerB7v160006EPKvS5_S5_S5_, symObjAddr: 0xBAF0, symBinAddr: 0x1000123A0, symSize: 0x20 }
  - { offsetInCU: 0x2F246, offset: 0x4714F, size: 0x8, addend: 0x0, symName: __ZNKSt3__16vectorIiNS_9allocatorIiEEE4dataB7v160006Ev, symObjAddr: 0xBB10, symBinAddr: 0x1000123C0, symSize: 0x20 }
  - { offsetInCU: 0x2F26B, offset: 0x47174, size: 0x8, addend: 0x0, symName: __ZNSt3__16vectorIiNS_9allocatorIiEEE5clearB7v160006Ev, symObjAddr: 0xBB30, symBinAddr: 0x1000123E0, symSize: 0x50 }
  - { offsetInCU: 0x2F29F, offset: 0x471A8, size: 0x8, addend: 0x0, symName: __ZNSt3__116allocator_traitsINS_9allocatorIiEEE10deallocateB7v160006ERS2_Pim, symObjAddr: 0xBB80, symBinAddr: 0x100012430, symSize: 0x30 }
  - { offsetInCU: 0x2F2E1, offset: 0x471EA, size: 0x8, addend: 0x0, symName: __ZNSt3__16vectorIiNS_9allocatorIiEEE9__end_capB7v160006Ev, symObjAddr: 0xBBB0, symBinAddr: 0x100012460, symSize: 0x20 }
  - { offsetInCU: 0x2F306, offset: 0x4720F, size: 0x8, addend: 0x0, symName: __ZNSt3__16vectorIiNS_9allocatorIiEEE7__clearB7v160006Ev, symObjAddr: 0xBBD0, symBinAddr: 0x100012480, symSize: 0x20 }
  - { offsetInCU: 0x2F32B, offset: 0x47234, size: 0x8, addend: 0x0, symName: __ZNSt3__19allocatorIiE10deallocateB7v160006EPim, symObjAddr: 0xBBF0, symBinAddr: 0x1000124A0, symSize: 0x40 }
  - { offsetInCU: 0x2F36C, offset: 0x47275, size: 0x8, addend: 0x0, symName: __ZNSt3__117__compressed_pairIPiNS_9allocatorIiEEE5firstB7v160006Ev, symObjAddr: 0xBC30, symBinAddr: 0x1000124E0, symSize: 0x20 }
  - { offsetInCU: 0x2F391, offset: 0x4729A, size: 0x8, addend: 0x0, symName: __ZNSt3__122__compressed_pair_elemIPiLi0ELb0EE5__getB7v160006Ev, symObjAddr: 0xBC50, symBinAddr: 0x100012500, symSize: 0x10 }
  - { offsetInCU: 0x2F3B6, offset: 0x472BF, size: 0x8, addend: 0x0, symName: __ZNKSt3__16vectorIiNS_9allocatorIiEEE8max_sizeEv, symObjAddr: 0xBC60, symBinAddr: 0x100012510, symSize: 0x60 }
  - { offsetInCU: 0x2F3DC, offset: 0x472E5, size: 0x8, addend: 0x0, symName: __ZNKSt3__16vectorIiNS_9allocatorIiEEE20__throw_length_errorB7v160006Ev, symObjAddr: 0xBCC0, symBinAddr: 0x100012570, symSize: 0x20 }
  - { offsetInCU: 0x2F401, offset: 0x4730A, size: 0x8, addend: 0x0, symName: __ZNKSt3__16vectorIiNS_9allocatorIiEEE14__annotate_newB7v160006Em, symObjAddr: 0xBD20, symBinAddr: 0x1000125D0, symSize: 0xB0 }
  - { offsetInCU: 0x2F43F, offset: 0x47348, size: 0x8, addend: 0x0, symName: __ZNSt3__116allocator_traitsINS_9allocatorIiEEE8max_sizeB7v160006IS2_vvEEmRKS2_, symObjAddr: 0xBDD0, symBinAddr: 0x100012680, symSize: 0x20 }
  - { offsetInCU: 0x2F46B, offset: 0x47374, size: 0x8, addend: 0x0, symName: __ZNKSt3__16vectorIiNS_9allocatorIiEEE7__allocB7v160006Ev, symObjAddr: 0xBDF0, symBinAddr: 0x1000126A0, symSize: 0x20 }
  - { offsetInCU: 0x2F490, offset: 0x47399, size: 0x8, addend: 0x0, symName: __ZNKSt3__117__compressed_pairIPiNS_9allocatorIiEEE6secondB7v160006Ev, symObjAddr: 0xBE10, symBinAddr: 0x1000126C0, symSize: 0x20 }
  - { offsetInCU: 0x2F4B5, offset: 0x473BE, size: 0x8, addend: 0x0, symName: __ZNKSt3__122__compressed_pair_elemINS_9allocatorIiEELi1ELb1EE5__getB7v160006Ev, symObjAddr: 0xBE30, symBinAddr: 0x1000126E0, symSize: 0x10 }
  - { offsetInCU: 0x2F4DA, offset: 0x473E3, size: 0x8, addend: 0x0, symName: __ZNSt3__19allocatorIiE8allocateB7v160006Em, symObjAddr: 0xBE40, symBinAddr: 0x1000126F0, symSize: 0x50 }
  - { offsetInCU: 0x2F50D, offset: 0x47416, size: 0x8, addend: 0x0, symName: __ZNSt3__16vectorIiNS_9allocatorIiEEEC2B7v160006Ev, symObjAddr: 0xBE90, symBinAddr: 0x100012740, symSize: 0x60 }
  - { offsetInCU: 0x2F536, offset: 0x4743F, size: 0x8, addend: 0x0, symName: __ZNSt3__117__compressed_pairIPiNS_9allocatorIiEEEC1B7v160006IDnNS_18__default_init_tagEEEOT_OT0_, symObjAddr: 0xBEF0, symBinAddr: 0x1000127A0, symSize: 0x30 }
  - { offsetInCU: 0x2F58D, offset: 0x47496, size: 0x8, addend: 0x0, symName: __ZNSt3__117__compressed_pairIPiNS_9allocatorIiEEEC2B7v160006IDnNS_18__default_init_tagEEEOT_OT0_, symObjAddr: 0xBF30, symBinAddr: 0x1000127E0, symSize: 0x40 }
  - { offsetInCU: 0x2F5E4, offset: 0x474ED, size: 0x8, addend: 0x0, symName: __ZNSt3__122__compressed_pair_elemIPiLi0ELb0EEC2B7v160006IDnvEEOT_, symObjAddr: 0xBF70, symBinAddr: 0x100012820, symSize: 0x20 }
  - { offsetInCU: 0x2F625, offset: 0x4752E, size: 0x8, addend: 0x0, symName: __ZNSt3__122__compressed_pair_elemINS_9allocatorIiEELi1ELb1EEC2B7v160006ENS_18__default_init_tagE, symObjAddr: 0xBF90, symBinAddr: 0x100012840, symSize: 0x20 }
  - { offsetInCU: 0x2F658, offset: 0x47561, size: 0x8, addend: 0x0, symName: __ZNSt3__19allocatorIiEC2B7v160006Ev, symObjAddr: 0xBFB0, symBinAddr: 0x100012860, symSize: 0x20 }
  - { offsetInCU: 0x2F681, offset: 0x4758A, size: 0x8, addend: 0x0, symName: __ZNSt3__116__non_trivial_ifILb1ENS_9allocatorIiEEEC2B7v160006Ev, symObjAddr: 0xBFD0, symBinAddr: 0x100012880, symSize: 0x10 }
  - { offsetInCU: 0x2F6AA, offset: 0x475B3, size: 0x8, addend: 0x0, symName: __ZNSt3__16vectorIiNS_9allocatorIiEEE11__make_iterB7v160006EPi, symObjAddr: 0xBFE0, symBinAddr: 0x100012890, symSize: 0x30 }
  - { offsetInCU: 0x2F6DE, offset: 0x475E7, size: 0x8, addend: 0x0, symName: __ZNSt3__111__wrap_iterIPiEC1B7v160006EPKvS1_, symObjAddr: 0xC010, symBinAddr: 0x1000128C0, symSize: 0x30 }
  - { offsetInCU: 0x2F723, offset: 0x4762C, size: 0x8, addend: 0x0, symName: __ZNSt3__111__wrap_iterIPiEC2B7v160006EPKvS1_, symObjAddr: 0xC040, symBinAddr: 0x1000128F0, symSize: 0x20 }
  - { offsetInCU: 0x2F768, offset: 0x47671, size: 0x8, addend: 0x0, symName: __ZNKSt3__111__wrap_iterIPiE4baseB7v160006Ev, symObjAddr: 0xC0A0, symBinAddr: 0x100012950, symSize: 0x20 }
  - { offsetInCU: 0x2F78D, offset: 0x47696, size: 0x8, addend: 0x0, symName: __ZNSt3__16vectorINS_6threadENS_9allocatorIS1_EEE9__end_capB7v160006Ev, symObjAddr: 0xC0C0, symBinAddr: 0x100012970, symSize: 0x20 }
  - { offsetInCU: 0x2F7B2, offset: 0x476BB, size: 0x8, addend: 0x0, symName: '__ZNSt3__16vectorINS_6threadENS_9allocatorIS1_EEE22__construct_one_at_endB7v160006IJZ4mainE3$_1EEEvDpOT_', symObjAddr: 0xC0E0, symBinAddr: 0x100012990, symSize: 0x90 }
  - { offsetInCU: 0x2F800, offset: 0x47709, size: 0x8, addend: 0x0, symName: '__ZNSt3__16vectorINS_6threadENS_9allocatorIS1_EEE24__emplace_back_slow_pathIJZ4mainE3$_1EEEvDpOT_', symObjAddr: 0xC170, symBinAddr: 0x100012A20, symSize: 0xD0 }
  - { offsetInCU: 0x2F85E, offset: 0x47767, size: 0x8, addend: 0x0, symName: __ZNSt3__16vectorINS_6threadENS_9allocatorIS1_EEE4backB7v160006Ev, symObjAddr: 0xC240, symBinAddr: 0x100012AF0, symSize: 0x20 }
  - { offsetInCU: 0x2F883, offset: 0x4778C, size: 0x8, addend: 0x0, symName: __ZNSt3__117__compressed_pairIPNS_6threadENS_9allocatorIS1_EEE5firstB7v160006Ev, symObjAddr: 0xC260, symBinAddr: 0x100012B10, symSize: 0x20 }
  - { offsetInCU: 0x2F8A8, offset: 0x477B1, size: 0x8, addend: 0x0, symName: __ZNSt3__122__compressed_pair_elemIPNS_6threadELi0ELb0EE5__getB7v160006Ev, symObjAddr: 0xC280, symBinAddr: 0x100012B30, symSize: 0x10 }
  - { offsetInCU: 0x2F8E6, offset: 0x477EF, size: 0x8, addend: 0x0, symName: __ZNSt3__16vectorINS_6threadENS_9allocatorIS1_EEE21_ConstructTransactionC1B7v160006ERS4_m, symObjAddr: 0xC290, symBinAddr: 0x100012B40, symSize: 0x30 }
  - { offsetInCU: 0x2F92D, offset: 0x47836, size: 0x8, addend: 0x0, symName: '__ZNSt3__116allocator_traitsINS_9allocatorINS_6threadEEEE9constructB7v160006IS2_JZ4mainE3$_1EvvEEvRS3_PT_DpOT0_', symObjAddr: 0xC2C0, symBinAddr: 0x100012B70, symSize: 0x30 }
  - { offsetInCU: 0x2F982, offset: 0x4788B, size: 0x8, addend: 0x0, symName: __ZNSt3__16vectorINS_6threadENS_9allocatorIS1_EEE21_ConstructTransactionD1B7v160006Ev, symObjAddr: 0xC2F0, symBinAddr: 0x100012BA0, symSize: 0x20 }
  - { offsetInCU: 0x2F9AB, offset: 0x478B4, size: 0x8, addend: 0x0, symName: __ZNSt3__16vectorINS_6threadENS_9allocatorIS1_EEE21_ConstructTransactionC2B7v160006ERS4_m, symObjAddr: 0xC310, symBinAddr: 0x100012BC0, symSize: 0x40 }
  - { offsetInCU: 0x2F9F2, offset: 0x478FB, size: 0x8, addend: 0x0, symName: '__ZNSt3__16threadC1IZ4mainE3$_1JEvEEOT_DpOT0_', symObjAddr: 0xC390, symBinAddr: 0x100012C40, symSize: 0x30 }
  - { offsetInCU: 0x2FA39, offset: 0x47942, size: 0x8, addend: 0x0, symName: '__ZNSt3__16threadC2IZ4mainE3$_1JEvEEOT_DpOT0_', symObjAddr: 0xC3C0, symBinAddr: 0x100012C70, symSize: 0x140 }
  - { offsetInCU: 0x2FAB4, offset: 0x479BD, size: 0x8, addend: 0x0, symName: __ZNSt3__110unique_ptrINS_15__thread_structENS_14default_deleteIS1_EEEC1B7v160006ILb1EvEEPS1_, symObjAddr: 0xC500, symBinAddr: 0x100012DB0, symSize: 0x30 }
  - { offsetInCU: 0x2FAF6, offset: 0x479FF, size: 0x8, addend: 0x0, symName: '__ZNSt3__15tupleIJNS_10unique_ptrINS_15__thread_structENS_14default_deleteIS2_EEEEZ4mainE3$_1EEC1B7v160006IJS5_S6_ELi0EEEDpOT_', symObjAddr: 0xC530, symBinAddr: 0x100012DE0, symSize: 0x30 }
  - { offsetInCU: 0x2FBE4, offset: 0x47AED, size: 0x8, addend: 0x0, symName: '__ZNSt3__110unique_ptrINS_5tupleIJNS0_INS_15__thread_structENS_14default_deleteIS2_EEEEZ4mainE3$_1EEENS3_IS7_EEEC1B7v160006ILb1EvEEPS7_', symObjAddr: 0xC560, symBinAddr: 0x100012E10, symSize: 0x30 }
  - { offsetInCU: 0x2FC26, offset: 0x47B2F, size: 0x8, addend: 0x0, symName: '__ZNKSt3__110unique_ptrINS_5tupleIJNS0_INS_15__thread_structENS_14default_deleteIS2_EEEEZ4mainE3$_1EEENS3_IS7_EEE3getB7v160006Ev', symObjAddr: 0xC660, symBinAddr: 0x100012F10, symSize: 0x20 }
  - { offsetInCU: 0x2FC4B, offset: 0x47B54, size: 0x8, addend: 0x0, symName: '__ZNSt3__110unique_ptrINS_5tupleIJNS0_INS_15__thread_structENS_14default_deleteIS2_EEEEZ4mainE3$_1EEENS3_IS7_EEE7releaseB7v160006Ev', symObjAddr: 0xC680, symBinAddr: 0x100012F30, symSize: 0x40 }
  - { offsetInCU: 0x2FC7F, offset: 0x47B88, size: 0x8, addend: 0x0, symName: '__ZNSt3__110unique_ptrINS_5tupleIJNS0_INS_15__thread_structENS_14default_deleteIS2_EEEEZ4mainE3$_1EEENS3_IS7_EEED1B7v160006Ev', symObjAddr: 0xC6C0, symBinAddr: 0x100012F70, symSize: 0x20 }
  - { offsetInCU: 0x2FCA8, offset: 0x47BB1, size: 0x8, addend: 0x0, symName: __ZNSt3__110unique_ptrINS_15__thread_structENS_14default_deleteIS1_EEED1B7v160006Ev, symObjAddr: 0xC6E0, symBinAddr: 0x100012F90, symSize: 0x20 }
  - { offsetInCU: 0x2FCD1, offset: 0x47BDA, size: 0x8, addend: 0x0, symName: __ZNSt3__110unique_ptrINS_15__thread_structENS_14default_deleteIS1_EEEC2B7v160006ILb1EvEEPS1_, symObjAddr: 0xC700, symBinAddr: 0x100012FB0, symSize: 0x40 }
  - { offsetInCU: 0x2FD18, offset: 0x47C21, size: 0x8, addend: 0x0, symName: __ZNSt3__117__compressed_pairIPNS_15__thread_structENS_14default_deleteIS1_EEEC1B7v160006IRS2_NS_16__value_init_tagEEEOT_OT0_, symObjAddr: 0xC740, symBinAddr: 0x100012FF0, symSize: 0x30 }
  - { offsetInCU: 0x2FD6F, offset: 0x47C78, size: 0x8, addend: 0x0, symName: __ZNSt3__117__compressed_pairIPNS_15__thread_structENS_14default_deleteIS1_EEEC2B7v160006IRS2_NS_16__value_init_tagEEEOT_OT0_, symObjAddr: 0xC770, symBinAddr: 0x100013020, symSize: 0x40 }
  - { offsetInCU: 0x2FDC6, offset: 0x47CCF, size: 0x8, addend: 0x0, symName: __ZNSt3__122__compressed_pair_elemIPNS_15__thread_structELi0ELb0EEC2B7v160006IRS2_vEEOT_, symObjAddr: 0xC7B0, symBinAddr: 0x100013060, symSize: 0x20 }
  - { offsetInCU: 0x2FE07, offset: 0x47D10, size: 0x8, addend: 0x0, symName: __ZNSt3__122__compressed_pair_elemINS_14default_deleteINS_15__thread_structEEELi1ELb1EEC2B7v160006ENS_16__value_init_tagE, symObjAddr: 0xC7D0, symBinAddr: 0x100013080, symSize: 0x10 }
  - { offsetInCU: 0x2FE3A, offset: 0x47D43, size: 0x8, addend: 0x0, symName: '__ZNSt3__15tupleIJNS_10unique_ptrINS_15__thread_structENS_14default_deleteIS2_EEEEZ4mainE3$_1EEC2B7v160006IJS5_S6_ELi0EEEDpOT_', symObjAddr: 0xC7E0, symBinAddr: 0x100013090, symSize: 0x30 }
  - { offsetInCU: 0x2FE97, offset: 0x47DA0, size: 0x8, addend: 0x0, symName: '__ZNSt3__112__tuple_implINS_15__tuple_indicesIJLm0ELm1EEEEJNS_10unique_ptrINS_15__thread_structENS_14default_deleteIS4_EEEEZ4mainE3$_1EEC1B7v160006IJLm0ELm1EEJS7_S8_EJEJEJS7_S8_EEENS1_IJXspT_EEEENS_13__tuple_typesIJDpT0_EEENS1_IJXspT1_EEEENSC_IJDpT2_EEEDpOT3_', symObjAddr: 0xC810, symBinAddr: 0x1000130C0, symSize: 0x30 }
  - { offsetInCU: 0x2FF4A, offset: 0x47E53, size: 0x8, addend: 0x0, symName: '__ZNSt3__112__tuple_implINS_15__tuple_indicesIJLm0ELm1EEEEJNS_10unique_ptrINS_15__thread_structENS_14default_deleteIS4_EEEEZ4mainE3$_1EEC2B7v160006IJLm0ELm1EEJS7_S8_EJEJEJS7_S8_EEENS1_IJXspT_EEEENS_13__tuple_typesIJDpT0_EEENS1_IJXspT1_EEEENSC_IJDpT2_EEEDpOT3_', symObjAddr: 0xC840, symBinAddr: 0x1000130F0, symSize: 0x40 }
  - { offsetInCU: 0x2FFFD, offset: 0x47F06, size: 0x8, addend: 0x0, symName: __ZNSt3__112__tuple_leafILm0ENS_10unique_ptrINS_15__thread_structENS_14default_deleteIS2_EEEELb0EEC2B7v160006IS5_vEEOT_, symObjAddr: 0xC880, symBinAddr: 0x100013130, symSize: 0x30 }
  - { offsetInCU: 0x3003F, offset: 0x47F48, size: 0x8, addend: 0x0, symName: '__ZNSt3__112__tuple_leafILm1EZ4mainE3$_1Lb0EEC2B7v160006IS1_vEEOT_', symObjAddr: 0xC8B0, symBinAddr: 0x100013160, symSize: 0x30 }
  - { offsetInCU: 0x30081, offset: 0x47F8A, size: 0x8, addend: 0x0, symName: __ZNSt3__110unique_ptrINS_15__thread_structENS_14default_deleteIS1_EEEC1B7v160006EOS4_, symObjAddr: 0xC8E0, symBinAddr: 0x100013190, symSize: 0x30 }
  - { offsetInCU: 0x300B8, offset: 0x47FC1, size: 0x8, addend: 0x0, symName: __ZNSt3__110unique_ptrINS_15__thread_structENS_14default_deleteIS1_EEEC2B7v160006EOS4_, symObjAddr: 0xC910, symBinAddr: 0x1000131C0, symSize: 0x60 }
  - { offsetInCU: 0x300EF, offset: 0x47FF8, size: 0x8, addend: 0x0, symName: __ZNSt3__110unique_ptrINS_15__thread_structENS_14default_deleteIS1_EEE7releaseB7v160006Ev, symObjAddr: 0xC970, symBinAddr: 0x100013220, symSize: 0x40 }
  - { offsetInCU: 0x30123, offset: 0x4802C, size: 0x8, addend: 0x0, symName: __ZNSt3__110unique_ptrINS_15__thread_structENS_14default_deleteIS1_EEE11get_deleterB7v160006Ev, symObjAddr: 0xC9B0, symBinAddr: 0x100013260, symSize: 0x20 }
  - { offsetInCU: 0x30152, offset: 0x4805B, size: 0x8, addend: 0x0, symName: __ZNSt3__117__compressed_pairIPNS_15__thread_structENS_14default_deleteIS1_EEEC1B7v160006IS2_S4_EEOT_OT0_, symObjAddr: 0xC9D0, symBinAddr: 0x100013280, symSize: 0x30 }
  - { offsetInCU: 0x301A9, offset: 0x480B2, size: 0x8, addend: 0x0, symName: __ZNSt3__117__compressed_pairIPNS_15__thread_structENS_14default_deleteIS1_EEE5firstB7v160006Ev, symObjAddr: 0xCA00, symBinAddr: 0x1000132B0, symSize: 0x20 }
  - { offsetInCU: 0x301CE, offset: 0x480D7, size: 0x8, addend: 0x0, symName: __ZNSt3__122__compressed_pair_elemIPNS_15__thread_structELi0ELb0EE5__getB7v160006Ev, symObjAddr: 0xCA20, symBinAddr: 0x1000132D0, symSize: 0x10 }
  - { offsetInCU: 0x301F3, offset: 0x480FC, size: 0x8, addend: 0x0, symName: __ZNSt3__117__compressed_pairIPNS_15__thread_structENS_14default_deleteIS1_EEE6secondB7v160006Ev, symObjAddr: 0xCA30, symBinAddr: 0x1000132E0, symSize: 0x20 }
  - { offsetInCU: 0x30218, offset: 0x48121, size: 0x8, addend: 0x0, symName: __ZNSt3__122__compressed_pair_elemINS_14default_deleteINS_15__thread_structEEELi1ELb1EE5__getB7v160006Ev, symObjAddr: 0xCA50, symBinAddr: 0x100013300, symSize: 0x10 }
  - { offsetInCU: 0x3023D, offset: 0x48146, size: 0x8, addend: 0x0, symName: __ZNSt3__117__compressed_pairIPNS_15__thread_structENS_14default_deleteIS1_EEEC2B7v160006IS2_S4_EEOT_OT0_, symObjAddr: 0xCA60, symBinAddr: 0x100013310, symSize: 0x40 }
  - { offsetInCU: 0x30294, offset: 0x4819D, size: 0x8, addend: 0x0, symName: __ZNSt3__122__compressed_pair_elemIPNS_15__thread_structELi0ELb0EEC2B7v160006IS2_vEEOT_, symObjAddr: 0xCAA0, symBinAddr: 0x100013350, symSize: 0x20 }
  - { offsetInCU: 0x302D5, offset: 0x481DE, size: 0x8, addend: 0x0, symName: __ZNSt3__122__compressed_pair_elemINS_14default_deleteINS_15__thread_structEEELi1ELb1EEC2B7v160006IS3_vEEOT_, symObjAddr: 0xCAC0, symBinAddr: 0x100013370, symSize: 0x10 }
  - { offsetInCU: 0x30316, offset: 0x4821F, size: 0x8, addend: 0x0, symName: '__ZZ4mainEN3$_1C1EOS_', symObjAddr: 0xCAD0, symBinAddr: 0x100013380, symSize: 0x30 }
  - { offsetInCU: 0x3034B, offset: 0x48254, size: 0x8, addend: 0x0, symName: '__ZZ4mainEN3$_1C2EOS_', symObjAddr: 0xCB00, symBinAddr: 0x1000133B0, symSize: 0x40 }
  - { offsetInCU: 0x30380, offset: 0x48289, size: 0x8, addend: 0x0, symName: '__ZNSt3__110unique_ptrINS_5tupleIJNS0_INS_15__thread_structENS_14default_deleteIS2_EEEEZ4mainE3$_1EEENS3_IS7_EEEC2B7v160006ILb1EvEEPS7_', symObjAddr: 0xCB40, symBinAddr: 0x1000133F0, symSize: 0x40 }
  - { offsetInCU: 0x303C2, offset: 0x482CB, size: 0x8, addend: 0x0, symName: '__ZNSt3__117__compressed_pairIPNS_5tupleIJNS_10unique_ptrINS_15__thread_structENS_14default_deleteIS3_EEEEZ4mainE3$_1EEENS4_IS8_EEEC1B7v160006IRS9_NS_16__value_init_tagEEEOT_OT0_', symObjAddr: 0xCB80, symBinAddr: 0x100013430, symSize: 0x30 }
  - { offsetInCU: 0x30419, offset: 0x48322, size: 0x8, addend: 0x0, symName: '__ZNSt3__117__compressed_pairIPNS_5tupleIJNS_10unique_ptrINS_15__thread_structENS_14default_deleteIS3_EEEEZ4mainE3$_1EEENS4_IS8_EEEC2B7v160006IRS9_NS_16__value_init_tagEEEOT_OT0_', symObjAddr: 0xCBB0, symBinAddr: 0x100013460, symSize: 0x40 }
  - { offsetInCU: 0x30470, offset: 0x48379, size: 0x8, addend: 0x0, symName: '__ZNSt3__122__compressed_pair_elemIPNS_5tupleIJNS_10unique_ptrINS_15__thread_structENS_14default_deleteIS3_EEEEZ4mainE3$_1EEELi0ELb0EEC2B7v160006IRS9_vEEOT_', symObjAddr: 0xCBF0, symBinAddr: 0x1000134A0, symSize: 0x20 }
  - { offsetInCU: 0x304B1, offset: 0x483BA, size: 0x8, addend: 0x0, symName: '__ZNSt3__122__compressed_pair_elemINS_14default_deleteINS_5tupleIJNS_10unique_ptrINS_15__thread_structENS1_IS4_EEEEZ4mainE3$_1EEEEELi1ELb1EEC2B7v160006ENS_16__value_init_tagE', symObjAddr: 0xCC10, symBinAddr: 0x1000134C0, symSize: 0x10 }
  - { offsetInCU: 0x30513, offset: 0x4841C, size: 0x8, addend: 0x0, symName: __ZNSt3__121__thread_specific_ptrINS_15__thread_structEE11set_pointerEPS1_, symObjAddr: 0xCC20, symBinAddr: 0x1000134D0, symSize: 0x30 }
  - { offsetInCU: 0x30547, offset: 0x48450, size: 0x8, addend: 0x0, symName: __ZNSt3__112__tuple_leafILm0ENS_10unique_ptrINS_15__thread_structENS_14default_deleteIS2_EEEELb0EE3getB7v160006Ev, symObjAddr: 0xCCD0, symBinAddr: 0x100013580, symSize: 0x10 }
  - { offsetInCU: 0x30571, offset: 0x4847A, size: 0x8, addend: 0x0, symName: '__ZZ4mainENK3$_1clEv', symObjAddr: 0xCD20, symBinAddr: 0x1000135D0, symSize: 0xD0 }
  - { offsetInCU: 0x3059A, offset: 0x484A3, size: 0x8, addend: 0x0, symName: __ZNSt3__113unordered_mapIi6PacketNS_4hashIiEENS_8equal_toIiEENS_9allocatorINS_4pairIKiS1_EEEEEixEOi, symObjAddr: 0xCDF0, symBinAddr: 0x1000136A0, symSize: 0x70 }
  - { offsetInCU: 0x305CF, offset: 0x484D8, size: 0x8, addend: 0x0, symName: __ZNSt3__112__hash_tableINS_17__hash_value_typeIi6PacketEENS_22__unordered_map_hasherIiS3_NS_4hashIiEENS_8equal_toIiEELb1EEENS_21__unordered_map_equalIiS3_S8_S6_Lb1EEENS_9allocatorIS3_EEE25__emplace_unique_key_argsIiJRKNS_21piecewise_construct_tENS_5tupleIJOiEEENSJ_IJEEEEEENS_4pairINS_15__hash_iteratorIPNS_11__hash_nodeIS3_PvEEEEbEERKT_DpOT0_, symObjAddr: 0xCE60, symBinAddr: 0x100013710, symSize: 0x650 }
  - { offsetInCU: 0x306D6, offset: 0x485DF, size: 0x8, addend: 0x0, symName: __ZNKSt3__115__hash_iteratorIPNS_11__hash_nodeINS_17__hash_value_typeIi6PacketEEPvEEEptB7v160006Ev, symObjAddr: 0xD4E0, symBinAddr: 0x100013D90, symSize: 0x30 }
  - { offsetInCU: 0x306FB, offset: 0x48604, size: 0x8, addend: 0x0, symName: __ZNSt3__112__hash_tableINS_17__hash_value_typeIi6PacketEENS_22__unordered_map_hasherIiS3_NS_4hashIiEENS_8equal_toIiEELb1EEENS_21__unordered_map_equalIiS3_S8_S6_Lb1EEENS_9allocatorIS3_EEE21__construct_node_hashIRKNS_21piecewise_construct_tEJNS_5tupleIJOiEEENSJ_IJEEEEEENS_10unique_ptrINS_11__hash_nodeIS3_PvEENS_22__hash_node_destructorINSC_ISQ_EEEEEEmOT_DpOT0_, symObjAddr: 0xD6C0, symBinAddr: 0x100013DC0, symSize: 0x150 }
  - { offsetInCU: 0x3079A, offset: 0x486A3, size: 0x8, addend: 0x0, symName: __ZNSt3__116allocator_traitsINS_9allocatorINS_11__hash_nodeINS_17__hash_value_typeIi6PacketEEPvEEEEE9constructB7v160006INS_4pairIKiS4_EEJRKNS_21piecewise_construct_tENS_5tupleIJOiEEENSH_IJEEEEvvEEvRS8_PT_DpOT0_, symObjAddr: 0xDC70, symBinAddr: 0x100013F10, symSize: 0x40 }
  - { offsetInCU: 0x30821, offset: 0x4872A, size: 0x8, addend: 0x0, symName: __ZNSt3__14pairIKi6PacketEC1B7v160006IJOiEJEEENS_21piecewise_construct_tENS_5tupleIJDpT_EEENS7_IJDpT0_EEE, symObjAddr: 0xDED0, symBinAddr: 0x100013FA0, symSize: 0x30 }
  - { offsetInCU: 0x30887, offset: 0x48790, size: 0x8, addend: 0x0, symName: __ZNSt3__14pairIKi6PacketEC1B7v160006IJOiEJEJLm0EEJEEENS_21piecewise_construct_tERNS_5tupleIJDpT_EEERNS7_IJDpT0_EEENS_15__tuple_indicesIJXspT1_EEEENSG_IJXspT2_EEEE, symObjAddr: 0xDF00, symBinAddr: 0x100013FD0, symSize: 0x30 }
  - { offsetInCU: 0x30916, offset: 0x4881F, size: 0x8, addend: 0x0, symName: __ZNSt3__14pairIKi6PacketEC2B7v160006IJOiEJEJLm0EEJEEENS_21piecewise_construct_tERNS_5tupleIJDpT_EEERNS7_IJDpT0_EEENS_15__tuple_indicesIJXspT1_EEEENSG_IJXspT2_EEEE, symObjAddr: 0xDF30, symBinAddr: 0x100014000, symSize: 0x40 }
  - { offsetInCU: 0x309A5, offset: 0x488AE, size: 0x8, addend: 0x0, symName: __ZNSt3__112__tuple_leafILm0EOiLb0EE3getB7v160006Ev, symObjAddr: 0xDF90, symBinAddr: 0x100014060, symSize: 0x20 }
  - { offsetInCU: 0x309D4, offset: 0x488DD, size: 0x8, addend: 0x0, symName: __ZNSt3__15tupleIJOiEEC1B7v160006IJiELi0EEEDpOT_, symObjAddr: 0xE850, symBinAddr: 0x100014080, symSize: 0x30 }
  - { offsetInCU: 0x30A1D, offset: 0x48926, size: 0x8, addend: 0x0, symName: __ZNSt3__15tupleIJOiEEC2B7v160006IJiELi0EEEDpOT_, symObjAddr: 0xE880, symBinAddr: 0x1000140B0, symSize: 0x30 }
  - { offsetInCU: 0x30A66, offset: 0x4896F, size: 0x8, addend: 0x0, symName: __ZNSt3__112__tuple_implINS_15__tuple_indicesIJLm0EEEEJOiEEC1B7v160006IJLm0EEJS3_EJEJEJiEEENS1_IJXspT_EEEENS_13__tuple_typesIJDpT0_EEENS1_IJXspT1_EEEENS7_IJDpT2_EEEDpOT3_, symObjAddr: 0xE8B0, symBinAddr: 0x1000140E0, symSize: 0x30 }
  - { offsetInCU: 0x30AFA, offset: 0x48A03, size: 0x8, addend: 0x0, symName: __ZNSt3__112__tuple_implINS_15__tuple_indicesIJLm0EEEEJOiEEC2B7v160006IJLm0EEJS3_EJEJEJiEEENS1_IJXspT_EEEENS_13__tuple_typesIJDpT0_EEENS1_IJXspT1_EEEENS7_IJDpT2_EEEDpOT3_, symObjAddr: 0xE8E0, symBinAddr: 0x100014110, symSize: 0x30 }
  - { offsetInCU: 0x30B8E, offset: 0x48A97, size: 0x8, addend: 0x0, symName: __ZNSt3__112__tuple_leafILm0EOiLb0EEC2B7v160006IivEEOT_, symObjAddr: 0xE910, symBinAddr: 0x100014140, symSize: 0x20 }
  - { offsetInCU: 0x30BD0, offset: 0x48AD9, size: 0x8, addend: 0x0, symName: __ZNSt3__114pointer_traitsIPNS_17__hash_value_typeIi6PacketEEE10pointer_toB7v160006ERS3_, symObjAddr: 0xE930, symBinAddr: 0x100014160, symSize: 0x10 }
  - { offsetInCU: 0x30BF3, offset: 0x48AFC, size: 0x8, addend: 0x0, symName: '__ZNSt3__112__tuple_leafILm1EZ4mainE3$_1Lb0EE3getB7v160006Ev', symObjAddr: 0xE940, symBinAddr: 0x100014170, symSize: 0x10 }
  - { offsetInCU: 0x30C18, offset: 0x48B21, size: 0x8, addend: 0x0, symName: '__ZNKSt3__117__compressed_pairIPNS_5tupleIJNS_10unique_ptrINS_15__thread_structENS_14default_deleteIS3_EEEEZ4mainE3$_1EEENS4_IS8_EEE5firstB7v160006Ev', symObjAddr: 0xE950, symBinAddr: 0x100014180, symSize: 0x20 }
  - { offsetInCU: 0x30C3D, offset: 0x48B46, size: 0x8, addend: 0x0, symName: '__ZNKSt3__122__compressed_pair_elemIPNS_5tupleIJNS_10unique_ptrINS_15__thread_structENS_14default_deleteIS3_EEEEZ4mainE3$_1EEELi0ELb0EE5__getB7v160006Ev', symObjAddr: 0xE970, symBinAddr: 0x1000141A0, symSize: 0x10 }
  - { offsetInCU: 0x30C62, offset: 0x48B6B, size: 0x8, addend: 0x0, symName: '__ZNSt3__117__compressed_pairIPNS_5tupleIJNS_10unique_ptrINS_15__thread_structENS_14default_deleteIS3_EEEEZ4mainE3$_1EEENS4_IS8_EEE5firstB7v160006Ev', symObjAddr: 0xE980, symBinAddr: 0x1000141B0, symSize: 0x20 }
  - { offsetInCU: 0x30C87, offset: 0x48B90, size: 0x8, addend: 0x0, symName: '__ZNSt3__122__compressed_pair_elemIPNS_5tupleIJNS_10unique_ptrINS_15__thread_structENS_14default_deleteIS3_EEEEZ4mainE3$_1EEELi0ELb0EE5__getB7v160006Ev', symObjAddr: 0xE9A0, symBinAddr: 0x1000141D0, symSize: 0x10 }
  - { offsetInCU: 0x30CAC, offset: 0x48BB5, size: 0x8, addend: 0x0, symName: '__ZNSt3__110unique_ptrINS_5tupleIJNS0_INS_15__thread_structENS_14default_deleteIS2_EEEEZ4mainE3$_1EEENS3_IS7_EEED2B7v160006Ev', symObjAddr: 0xE9B0, symBinAddr: 0x1000141E0, symSize: 0x20 }
  - { offsetInCU: 0x30CD5, offset: 0x48BDE, size: 0x8, addend: 0x0, symName: '__ZNSt3__110unique_ptrINS_5tupleIJNS0_INS_15__thread_structENS_14default_deleteIS2_EEEEZ4mainE3$_1EEENS3_IS7_EEE5resetB7v160006EPS7_', symObjAddr: 0xE9D0, symBinAddr: 0x100014200, symSize: 0x70 }
  - { offsetInCU: 0x30D18, offset: 0x48C21, size: 0x8, addend: 0x0, symName: '__ZNSt3__117__compressed_pairIPNS_5tupleIJNS_10unique_ptrINS_15__thread_structENS_14default_deleteIS3_EEEEZ4mainE3$_1EEENS4_IS8_EEE6secondB7v160006Ev', symObjAddr: 0xEA40, symBinAddr: 0x100014270, symSize: 0x20 }
  - { offsetInCU: 0x30D3D, offset: 0x48C46, size: 0x8, addend: 0x0, symName: '__ZNKSt3__114default_deleteINS_5tupleIJNS_10unique_ptrINS_15__thread_structENS0_IS3_EEEEZ4mainE3$_1EEEEclB7v160006EPS7_', symObjAddr: 0xEA60, symBinAddr: 0x100014290, symSize: 0x40 }
  - { offsetInCU: 0x30D70, offset: 0x48C79, size: 0x8, addend: 0x0, symName: '__ZNSt3__122__compressed_pair_elemINS_14default_deleteINS_5tupleIJNS_10unique_ptrINS_15__thread_structENS1_IS4_EEEEZ4mainE3$_1EEEEELi1ELb1EE5__getB7v160006Ev', symObjAddr: 0xEAA0, symBinAddr: 0x1000142D0, symSize: 0x10 }
  - { offsetInCU: 0x30D95, offset: 0x48C9E, size: 0x8, addend: 0x0, symName: '__ZNSt3__15tupleIJNS_10unique_ptrINS_15__thread_structENS_14default_deleteIS2_EEEEZ4mainE3$_1EED1Ev', symObjAddr: 0xEAB0, symBinAddr: 0x1000142E0, symSize: 0x20 }
  - { offsetInCU: 0x30DC1, offset: 0x48CCA, size: 0x8, addend: 0x0, symName: '__ZNSt3__15tupleIJNS_10unique_ptrINS_15__thread_structENS_14default_deleteIS2_EEEEZ4mainE3$_1EED2Ev', symObjAddr: 0xEAD0, symBinAddr: 0x100014300, symSize: 0x20 }
  - { offsetInCU: 0x30DED, offset: 0x48CF6, size: 0x8, addend: 0x0, symName: '__ZNSt3__112__tuple_implINS_15__tuple_indicesIJLm0ELm1EEEEJNS_10unique_ptrINS_15__thread_structENS_14default_deleteIS4_EEEEZ4mainE3$_1EED1Ev', symObjAddr: 0xEAF0, symBinAddr: 0x100014320, symSize: 0x20 }
  - { offsetInCU: 0x30E19, offset: 0x48D22, size: 0x8, addend: 0x0, symName: '__ZNSt3__112__tuple_implINS_15__tuple_indicesIJLm0ELm1EEEEJNS_10unique_ptrINS_15__thread_structENS_14default_deleteIS4_EEEEZ4mainE3$_1EED2Ev', symObjAddr: 0xEB10, symBinAddr: 0x100014340, symSize: 0x30 }
  - { offsetInCU: 0x30E45, offset: 0x48D4E, size: 0x8, addend: 0x0, symName: '__ZNSt3__112__tuple_leafILm1EZ4mainE3$_1Lb0EED2Ev', symObjAddr: 0xEB40, symBinAddr: 0x100014370, symSize: 0x20 }
  - { offsetInCU: 0x30E71, offset: 0x48D7A, size: 0x8, addend: 0x0, symName: __ZNSt3__112__tuple_leafILm0ENS_10unique_ptrINS_15__thread_structENS_14default_deleteIS2_EEEELb0EED2Ev, symObjAddr: 0xEB60, symBinAddr: 0x100014390, symSize: 0x20 }
  - { offsetInCU: 0x30E9D, offset: 0x48DA6, size: 0x8, addend: 0x0, symName: __ZNSt3__110unique_ptrINS_15__thread_structENS_14default_deleteIS1_EEED2B7v160006Ev, symObjAddr: 0xEB80, symBinAddr: 0x1000143B0, symSize: 0x20 }
  - { offsetInCU: 0x30EC6, offset: 0x48DCF, size: 0x8, addend: 0x0, symName: __ZNSt3__110unique_ptrINS_15__thread_structENS_14default_deleteIS1_EEE5resetB7v160006EPS1_, symObjAddr: 0xEBA0, symBinAddr: 0x1000143D0, symSize: 0x70 }
  - { offsetInCU: 0x30F09, offset: 0x48E12, size: 0x8, addend: 0x0, symName: __ZNKSt3__114default_deleteINS_15__thread_structEEclB7v160006EPS1_, symObjAddr: 0xEC10, symBinAddr: 0x100014440, symSize: 0x40 }
  - { offsetInCU: 0x30F3C, offset: 0x48E45, size: 0x8, addend: 0x0, symName: __ZNSt3__16vectorINS_6threadENS_9allocatorIS1_EEE21_ConstructTransactionD2B7v160006Ev, symObjAddr: 0xEC50, symBinAddr: 0x100014480, symSize: 0x20 }
  - { offsetInCU: 0x30F65, offset: 0x48E6E, size: 0x8, addend: 0x0, symName: __ZNKSt3__16vectorINS_6threadENS_9allocatorIS1_EEE11__recommendB7v160006Em, symObjAddr: 0xEC70, symBinAddr: 0x1000144A0, symSize: 0xA0 }
  - { offsetInCU: 0x30FB8, offset: 0x48EC1, size: 0x8, addend: 0x0, symName: __ZNSt3__114__split_bufferINS_6threadERNS_9allocatorIS1_EEEC1EmmS4_, symObjAddr: 0xED10, symBinAddr: 0x100014540, symSize: 0x40 }
  - { offsetInCU: 0x3100D, offset: 0x48F16, size: 0x8, addend: 0x0, symName: __ZNSt3__114__split_bufferINS_6threadERNS_9allocatorIS1_EEED1Ev, symObjAddr: 0xEE80, symBinAddr: 0x1000146B0, symSize: 0x20 }
  - { offsetInCU: 0x31038, offset: 0x48F41, size: 0x8, addend: 0x0, symName: __ZNKSt3__16vectorINS_6threadENS_9allocatorIS1_EEE8max_sizeEv, symObjAddr: 0xEEA0, symBinAddr: 0x1000146D0, symSize: 0x60 }
  - { offsetInCU: 0x3105E, offset: 0x48F67, size: 0x8, addend: 0x0, symName: __ZNKSt3__16vectorINS_6threadENS_9allocatorIS1_EEE20__throw_length_errorB7v160006Ev, symObjAddr: 0xEF00, symBinAddr: 0x100014730, symSize: 0x20 }
  - { offsetInCU: 0x3108D, offset: 0x48F96, size: 0x8, addend: 0x0, symName: __ZNSt3__116allocator_traitsINS_9allocatorINS_6threadEEEE8max_sizeB7v160006IS3_vvEEmRKS3_, symObjAddr: 0xEF20, symBinAddr: 0x100014750, symSize: 0x20 }
  - { offsetInCU: 0x310B9, offset: 0x48FC2, size: 0x8, addend: 0x0, symName: __ZNKSt3__16vectorINS_6threadENS_9allocatorIS1_EEE7__allocB7v160006Ev, symObjAddr: 0xEF40, symBinAddr: 0x100014770, symSize: 0x20 }
  - { offsetInCU: 0x310DE, offset: 0x48FE7, size: 0x8, addend: 0x0, symName: __ZNKSt3__117__compressed_pairIPNS_6threadENS_9allocatorIS1_EEE6secondB7v160006Ev, symObjAddr: 0xEF60, symBinAddr: 0x100014790, symSize: 0x20 }
  - { offsetInCU: 0x31103, offset: 0x4900C, size: 0x8, addend: 0x0, symName: __ZNKSt3__122__compressed_pair_elemINS_9allocatorINS_6threadEEELi1ELb1EE5__getB7v160006Ev, symObjAddr: 0xEF80, symBinAddr: 0x1000147B0, symSize: 0x10 }
  - { offsetInCU: 0x31128, offset: 0x49031, size: 0x8, addend: 0x0, symName: __ZNSt3__114__split_bufferINS_6threadERNS_9allocatorIS1_EEEC2EmmS4_, symObjAddr: 0xEF90, symBinAddr: 0x1000147C0, symSize: 0xD0 }
  - { offsetInCU: 0x3119A, offset: 0x490A3, size: 0x8, addend: 0x0, symName: __ZNSt3__117__compressed_pairIPNS_6threadERNS_9allocatorIS1_EEEC1B7v160006IDnS5_EEOT_OT0_, symObjAddr: 0xF060, symBinAddr: 0x100014890, symSize: 0x30 }
  - { offsetInCU: 0x311F1, offset: 0x490FA, size: 0x8, addend: 0x0, symName: __ZNSt3__114__split_bufferINS_6threadERNS_9allocatorIS1_EEE7__allocB7v160006Ev, symObjAddr: 0xF0D0, symBinAddr: 0x100014900, symSize: 0x20 }
  - { offsetInCU: 0x31216, offset: 0x4911F, size: 0x8, addend: 0x0, symName: __ZNSt3__114__split_bufferINS_6threadERNS_9allocatorIS1_EEE9__end_capB7v160006Ev, symObjAddr: 0xF0F0, symBinAddr: 0x100014920, symSize: 0x20 }
  - { offsetInCU: 0x3123B, offset: 0x49144, size: 0x8, addend: 0x0, symName: __ZNSt3__117__compressed_pairIPNS_6threadERNS_9allocatorIS1_EEEC2B7v160006IDnS5_EEOT_OT0_, symObjAddr: 0xF110, symBinAddr: 0x100014940, symSize: 0x40 }
  - { offsetInCU: 0x31292, offset: 0x4919B, size: 0x8, addend: 0x0, symName: __ZNSt3__122__compressed_pair_elemIPNS_6threadELi0ELb0EEC2B7v160006IDnvEEOT_, symObjAddr: 0xF150, symBinAddr: 0x100014980, symSize: 0x20 }
  - { offsetInCU: 0x312D3, offset: 0x491DC, size: 0x8, addend: 0x0, symName: __ZNSt3__122__compressed_pair_elemIRNS_9allocatorINS_6threadEEELi1ELb0EEC2B7v160006IS4_vEEOT_, symObjAddr: 0xF170, symBinAddr: 0x1000149A0, symSize: 0x20 }
  - { offsetInCU: 0x31314, offset: 0x4921D, size: 0x8, addend: 0x0, symName: __ZNSt3__19allocatorINS_6threadEE8allocateB7v160006Em, symObjAddr: 0xF190, symBinAddr: 0x1000149C0, symSize: 0x50 }
  - { offsetInCU: 0x31347, offset: 0x49250, size: 0x8, addend: 0x0, symName: __ZNSt3__117__compressed_pairIPNS_6threadERNS_9allocatorIS1_EEE6secondB7v160006Ev, symObjAddr: 0xF1E0, symBinAddr: 0x100014A10, symSize: 0x20 }
  - { offsetInCU: 0x3136C, offset: 0x49275, size: 0x8, addend: 0x0, symName: __ZNSt3__122__compressed_pair_elemIRNS_9allocatorINS_6threadEEELi1ELb0EE5__getB7v160006Ev, symObjAddr: 0xF200, symBinAddr: 0x100014A30, symSize: 0x20 }
  - { offsetInCU: 0x31391, offset: 0x4929A, size: 0x8, addend: 0x0, symName: __ZNSt3__117__compressed_pairIPNS_6threadERNS_9allocatorIS1_EEE5firstB7v160006Ev, symObjAddr: 0xF220, symBinAddr: 0x100014A50, symSize: 0x20 }
  - { offsetInCU: 0x313B6, offset: 0x492BF, size: 0x8, addend: 0x0, symName: __ZNSt3__116reverse_iteratorIPNS_6threadEEC1B7v160006ES2_, symObjAddr: 0xF3C0, symBinAddr: 0x100014BF0, symSize: 0x30 }
  - { offsetInCU: 0x313ED, offset: 0x492F6, size: 0x8, addend: 0x0, symName: __ZNKSt3__116reverse_iteratorIPNS_6threadEE4baseB7v160006Ev, symObjAddr: 0xF3F0, symBinAddr: 0x100014C20, symSize: 0x20 }
  - { offsetInCU: 0x31412, offset: 0x4931B, size: 0x8, addend: 0x0, symName: __ZNKSt3__16vectorINS_6threadENS_9allocatorIS1_EEE14__annotate_newB7v160006Em, symObjAddr: 0xF450, symBinAddr: 0x100014C80, symSize: 0xB0 }
  - { offsetInCU: 0x31446, offset: 0x4934F, size: 0x8, addend: 0x0, symName: __ZNSt3__129_AllocatorDestroyRangeReverseINS_9allocatorINS_6threadEEENS_16reverse_iteratorIPS2_EEEC1B7v160006ERS3_RS6_S9_, symObjAddr: 0xF570, symBinAddr: 0x100014DA0, symSize: 0x40 }
  - { offsetInCU: 0x3149C, offset: 0x493A5, size: 0x8, addend: 0x0, symName: __ZNSt3__116allocator_traitsINS_9allocatorINS_6threadEEEE9constructB7v160006IS2_JS2_EvvEEvRS3_PT_DpOT0_, symObjAddr: 0xF5F0, symBinAddr: 0x100014E20, symSize: 0x30 }
  - { offsetInCU: 0x314F1, offset: 0x493FA, size: 0x8, addend: 0x0, symName: __ZNKSt3__116reverse_iteratorIPNS_6threadEEdeB7v160006Ev, symObjAddr: 0xF640, symBinAddr: 0x100014E70, symSize: 0x30 }
  - { offsetInCU: 0x31524, offset: 0x4942D, size: 0x8, addend: 0x0, symName: __ZNSt3__116reverse_iteratorIPNS_6threadEEppB7v160006Ev, symObjAddr: 0xF670, symBinAddr: 0x100014EA0, symSize: 0x20 }
  - { offsetInCU: 0x31549, offset: 0x49452, size: 0x8, addend: 0x0, symName: __ZNSt3__128__exception_guard_exceptionsINS_29_AllocatorDestroyRangeReverseINS_9allocatorINS_6threadEEENS_16reverse_iteratorIPS3_EEEEE10__completeB7v160006Ev, symObjAddr: 0xF690, symBinAddr: 0x100014EC0, symSize: 0x20 }
  - { offsetInCU: 0x3156E, offset: 0x49477, size: 0x8, addend: 0x0, symName: __ZNSt3__128__exception_guard_exceptionsINS_29_AllocatorDestroyRangeReverseINS_9allocatorINS_6threadEEENS_16reverse_iteratorIPS3_EEEEED1B7v160006Ev, symObjAddr: 0xF6B0, symBinAddr: 0x100014EE0, symSize: 0x20 }
  - { offsetInCU: 0x31597, offset: 0x494A0, size: 0x8, addend: 0x0, symName: __ZNSt3__128__exception_guard_exceptionsINS_29_AllocatorDestroyRangeReverseINS_9allocatorINS_6threadEEENS_16reverse_iteratorIPS3_EEEEEC1B7v160006ES8_, symObjAddr: 0xF6D0, symBinAddr: 0x100014F00, symSize: 0x40 }
  - { offsetInCU: 0x315CE, offset: 0x494D7, size: 0x8, addend: 0x0, symName: __ZNSt3__128__exception_guard_exceptionsINS_29_AllocatorDestroyRangeReverseINS_9allocatorINS_6threadEEENS_16reverse_iteratorIPS3_EEEEEC2B7v160006ES8_, symObjAddr: 0xF710, symBinAddr: 0x100014F40, symSize: 0x30 }
  - { offsetInCU: 0x31605, offset: 0x4950E, size: 0x8, addend: 0x0, symName: __ZNSt3__129_AllocatorDestroyRangeReverseINS_9allocatorINS_6threadEEENS_16reverse_iteratorIPS2_EEEC2B7v160006ERS3_RS6_S9_, symObjAddr: 0xF740, symBinAddr: 0x100014F70, symSize: 0x40 }
  - { offsetInCU: 0x3165B, offset: 0x49564, size: 0x8, addend: 0x0, symName: __ZNSt3__16threadC1B7v160006EOS0_, symObjAddr: 0xF7C0, symBinAddr: 0x100014FF0, symSize: 0x30 }
  - { offsetInCU: 0x31692, offset: 0x4959B, size: 0x8, addend: 0x0, symName: __ZNSt3__16threadC2B7v160006EOS0_, symObjAddr: 0xF7F0, symBinAddr: 0x100015020, symSize: 0x30 }
  - { offsetInCU: 0x316CE, offset: 0x495D7, size: 0x8, addend: 0x0, symName: __ZNSt3__119__to_address_helperINS_16reverse_iteratorIPNS_6threadEEEvE6__callB7v160006ERKS4_, symObjAddr: 0xF820, symBinAddr: 0x100015050, symSize: 0x40 }
  - { offsetInCU: 0x316F1, offset: 0x495FA, size: 0x8, addend: 0x0, symName: __ZNKSt3__116reverse_iteratorIPNS_6threadEEptB7v160006Ev, symObjAddr: 0xF860, symBinAddr: 0x100015090, symSize: 0x30 }
  - { offsetInCU: 0x31716, offset: 0x4961F, size: 0x8, addend: 0x0, symName: __ZNSt3__128__exception_guard_exceptionsINS_29_AllocatorDestroyRangeReverseINS_9allocatorINS_6threadEEENS_16reverse_iteratorIPS3_EEEEED2B7v160006Ev, symObjAddr: 0xF950, symBinAddr: 0x100015180, symSize: 0x40 }
  - { offsetInCU: 0x3173F, offset: 0x49648, size: 0x8, addend: 0x0, symName: __ZNKSt3__129_AllocatorDestroyRangeReverseINS_9allocatorINS_6threadEEENS_16reverse_iteratorIPS2_EEEclB7v160006Ev, symObjAddr: 0xF990, symBinAddr: 0x1000151C0, symSize: 0xF0 }
  - { offsetInCU: 0x31765, offset: 0x4966E, size: 0x8, addend: 0x0, symName: __ZNSt3__116reverse_iteratorINS0_IPNS_6threadEEEEC1B7v160006ES3_, symObjAddr: 0xFAF0, symBinAddr: 0x100015320, symSize: 0x30 }
  - { offsetInCU: 0x3179C, offset: 0x496A5, size: 0x8, addend: 0x0, symName: __ZNSt3__116reverse_iteratorINS0_IPNS_6threadEEEEppB7v160006Ev, symObjAddr: 0xFB90, symBinAddr: 0x1000153C0, symSize: 0x30 }
  - { offsetInCU: 0x317C1, offset: 0x496CA, size: 0x8, addend: 0x0, symName: __ZNKSt3__116reverse_iteratorINS0_IPNS_6threadEEEE4baseB7v160006Ev, symObjAddr: 0xFBC0, symBinAddr: 0x1000153F0, symSize: 0x20 }
  - { offsetInCU: 0x317EB, offset: 0x496F4, size: 0x8, addend: 0x0, symName: __ZNSt3__119__to_address_helperINS_16reverse_iteratorINS1_IPNS_6threadEEEEEvE6__callB7v160006ERKS5_, symObjAddr: 0xFBE0, symBinAddr: 0x100015410, symSize: 0x40 }
  - { offsetInCU: 0x3180E, offset: 0x49717, size: 0x8, addend: 0x0, symName: __ZNKSt3__116reverse_iteratorINS0_IPNS_6threadEEEEptB7v160006Ev, symObjAddr: 0xFC20, symBinAddr: 0x100015450, symSize: 0x50 }
  - { offsetInCU: 0x31833, offset: 0x4973C, size: 0x8, addend: 0x0, symName: __ZNSt3__116reverse_iteratorIPNS_6threadEEpLB7v160006El, symObjAddr: 0xFD50, symBinAddr: 0x100015580, symSize: 0x30 }
  - { offsetInCU: 0x31866, offset: 0x4976F, size: 0x8, addend: 0x0, symName: __ZNSt3__116reverse_iteratorIPNS_6threadEEmmB7v160006Ev, symObjAddr: 0xFD80, symBinAddr: 0x1000155B0, symSize: 0x20 }
  - { offsetInCU: 0x3188B, offset: 0x49794, size: 0x8, addend: 0x0, symName: __ZNSt3__116reverse_iteratorINS0_IPNS_6threadEEEEC2B7v160006ES3_, symObjAddr: 0xFDA0, symBinAddr: 0x1000155D0, symSize: 0x40 }
  - { offsetInCU: 0x318C2, offset: 0x497CB, size: 0x8, addend: 0x0, symName: __ZNSt3__116reverse_iteratorIPNS_6threadEEC2B7v160006ES2_, symObjAddr: 0xFDE0, symBinAddr: 0x100015610, symSize: 0x30 }
  - { offsetInCU: 0x318F9, offset: 0x49802, size: 0x8, addend: 0x0, symName: __ZNSt3__114__split_bufferINS_6threadERNS_9allocatorIS1_EEED2Ev, symObjAddr: 0xFE10, symBinAddr: 0x100015640, symSize: 0x70 }
  - { offsetInCU: 0x31924, offset: 0x4982D, size: 0x8, addend: 0x0, symName: __ZNSt3__114__split_bufferINS_6threadERNS_9allocatorIS1_EEE5clearB7v160006Ev, symObjAddr: 0xFE80, symBinAddr: 0x1000156B0, symSize: 0x20 }
  - { offsetInCU: 0x31949, offset: 0x49852, size: 0x8, addend: 0x0, symName: __ZNKSt3__114__split_bufferINS_6threadERNS_9allocatorIS1_EEE8capacityB7v160006Ev, symObjAddr: 0xFEA0, symBinAddr: 0x1000156D0, symSize: 0x30 }
  - { offsetInCU: 0x3196E, offset: 0x49877, size: 0x8, addend: 0x0, symName: __ZNSt3__114__split_bufferINS_6threadERNS_9allocatorIS1_EEE17__destruct_at_endB7v160006EPS1_, symObjAddr: 0xFED0, symBinAddr: 0x100015700, symSize: 0x30 }
  - { offsetInCU: 0x319A1, offset: 0x498AA, size: 0x8, addend: 0x0, symName: __ZNSt3__114__split_bufferINS_6threadERNS_9allocatorIS1_EEE17__destruct_at_endB7v160006EPS1_NS_17integral_constantIbLb0EEE, symObjAddr: 0xFF00, symBinAddr: 0x100015730, symSize: 0x80 }
  - { offsetInCU: 0x319DF, offset: 0x498E8, size: 0x8, addend: 0x0, symName: __ZNKSt3__114__split_bufferINS_6threadERNS_9allocatorIS1_EEE9__end_capB7v160006Ev, symObjAddr: 0xFF80, symBinAddr: 0x1000157B0, symSize: 0x20 }
  - { offsetInCU: 0x31A04, offset: 0x4990D, size: 0x8, addend: 0x0, symName: __ZNKSt3__117__compressed_pairIPNS_6threadERNS_9allocatorIS1_EEE5firstB7v160006Ev, symObjAddr: 0xFFA0, symBinAddr: 0x1000157D0, symSize: 0x20 }
  - { offsetInCU: 0x31A29, offset: 0x49932, size: 0x8, addend: 0x0, symName: '__ZZ4mainEN3$_1D2Ev', symObjAddr: 0xFFC0, symBinAddr: 0x1000157F0, symSize: 0x20 }
  - { offsetInCU: 0x31A55, offset: 0x4995E, size: 0x8, addend: 0x0, symName: __ZNSt3__16vectorINS_6threadENS_9allocatorIS1_EEE11__make_iterB7v160006EPS1_, symObjAddr: 0x10030, symBinAddr: 0x100015860, symSize: 0x30 }
  - { offsetInCU: 0x31A89, offset: 0x49992, size: 0x8, addend: 0x0, symName: __ZNSt3__111__wrap_iterIPNS_6threadEEC1B7v160006EPKvS2_, symObjAddr: 0x10060, symBinAddr: 0x100015890, symSize: 0x30 }
  - { offsetInCU: 0x31ACE, offset: 0x499D7, size: 0x8, addend: 0x0, symName: __ZNSt3__111__wrap_iterIPNS_6threadEEC2B7v160006EPKvS2_, symObjAddr: 0x10090, symBinAddr: 0x1000158C0, symSize: 0x20 }
  - { offsetInCU: 0x31B13, offset: 0x49A1C, size: 0x8, addend: 0x0, symName: __ZNKSt3__111__wrap_iterIPNS_6threadEE4baseB7v160006Ev, symObjAddr: 0x100F0, symBinAddr: 0x100015920, symSize: 0x20 }
  - { offsetInCU: 0x31B38, offset: 0x49A41, size: 0x8, addend: 0x0, symName: __ZNKSt3__16chrono8durationIxNS_5ratioILl1ELl1000000000EEEE5countB7v160006Ev, symObjAddr: 0x10160, symBinAddr: 0x100015990, symSize: 0x20 }
  - { offsetInCU: 0x31B67, offset: 0x49A70, size: 0x8, addend: 0x0, symName: __ZNSt3__16chrono8durationIxNS_5ratioILl1ELl1000EEEEC1B7v160006IxEERKT_PNS_9enable_ifIXaasr14is_convertibleIS8_xEE5valueooL_ZNS_17integral_constantIbLb0EE5valueEEntsr23treat_as_floating_pointIS6_EE5valueEvE4typeE, symObjAddr: 0x10180, symBinAddr: 0x1000159B0, symSize: 0x30 }
  - { offsetInCU: 0x31BB3, offset: 0x49ABC, size: 0x8, addend: 0x0, symName: __ZNSt3__16chrono8durationIxNS_5ratioILl1ELl1000EEEEC2B7v160006IxEERKT_PNS_9enable_ifIXaasr14is_convertibleIS8_xEE5valueooL_ZNS_17integral_constantIbLb0EE5valueEEntsr23treat_as_floating_pointIS6_EE5valueEvE4typeE, symObjAddr: 0x101B0, symBinAddr: 0x1000159E0, symSize: 0x20 }
  - { offsetInCU: 0x31C1D, offset: 0x49B26, size: 0x8, addend: 0x0, symName: __ZNKSt3__16chrono10time_pointINS0_12steady_clockENS0_8durationIxNS_5ratioILl1ELl1000000000EEEEEE16time_since_epochB7v160006Ev, symObjAddr: 0x10240, symBinAddr: 0x100015A70, symSize: 0x20 }
  - { offsetInCU: 0x31C42, offset: 0x49B4B, size: 0x8, addend: 0x0, symName: __ZNSt3__16chrono8durationIxNS_5ratioILl1ELl1000000000EEEEC1B7v160006IxEERKT_PNS_9enable_ifIXaasr14is_convertibleIS8_xEE5valueooL_ZNS_17integral_constantIbLb0EE5valueEEntsr23treat_as_floating_pointIS6_EE5valueEvE4typeE, symObjAddr: 0x10260, symBinAddr: 0x100015A90, symSize: 0x30 }
  - { offsetInCU: 0x31C8E, offset: 0x49B97, size: 0x8, addend: 0x0, symName: __ZNSt3__16chrono8durationIxNS_5ratioILl1ELl1000000000EEEEC2B7v160006IxEERKT_PNS_9enable_ifIXaasr14is_convertibleIS8_xEE5valueooL_ZNS_17integral_constantIbLb0EE5valueEEntsr23treat_as_floating_pointIS6_EE5valueEvE4typeE, symObjAddr: 0x10290, symBinAddr: 0x100015AC0, symSize: 0x20 }
  - { offsetInCU: 0x31CDA, offset: 0x49BE3, size: 0x8, addend: 0x0, symName: __ZNSt3__16vectorIiNS_9allocatorIiEEED2B7v160006Ev, symObjAddr: 0x102B0, symBinAddr: 0x100015AE0, symSize: 0x40 }
  - { offsetInCU: 0x31D03, offset: 0x49C0C, size: 0x8, addend: 0x0, symName: __ZNSt3__16vectorIiNS_9allocatorIiEEE16__destroy_vectorC1ERS3_, symObjAddr: 0x102F0, symBinAddr: 0x100015B20, symSize: 0x30 }
  - { offsetInCU: 0x31D3B, offset: 0x49C44, size: 0x8, addend: 0x0, symName: __ZNSt3__16vectorIiNS_9allocatorIiEEE16__destroy_vectorclB7v160006Ev, symObjAddr: 0x10320, symBinAddr: 0x100015B50, symSize: 0x90 }
  - { offsetInCU: 0x31D60, offset: 0x49C69, size: 0x8, addend: 0x0, symName: __ZNSt3__16vectorIiNS_9allocatorIiEEE16__destroy_vectorC2ERS3_, symObjAddr: 0x103B0, symBinAddr: 0x100015BE0, symSize: 0x20 }
  - { offsetInCU: 0x31D98, offset: 0x49CA1, size: 0x8, addend: 0x0, symName: __ZNKSt3__16vectorIiNS_9allocatorIiEEE17__annotate_deleteB7v160006Ev, symObjAddr: 0x103D0, symBinAddr: 0x100015C00, symSize: 0xB0 }
  - { offsetInCU: 0x31DBD, offset: 0x49CC6, size: 0x8, addend: 0x0, symName: __ZNSt3__113unordered_mapINS_12basic_stringIcNS_11char_traitsIcEENS_9allocatorIcEEEENS_6vectorI4PathNS4_IS8_EEEENS_4hashIS6_EENS_8equal_toIS6_EENS4_INS_4pairIKS6_SA_EEEEEC2B7v160006Ev, symObjAddr: 0x10490, symBinAddr: 0x100015CC0, symSize: 0x40 }
  - { offsetInCU: 0x31DE6, offset: 0x49CEF, size: 0x8, addend: 0x0, symName: __ZNSt3__112__hash_tableINS_17__hash_value_typeINS_12basic_stringIcNS_11char_traitsIcEENS_9allocatorIcEEEENS_6vectorI4PathNS5_IS9_EEEEEENS_22__unordered_map_hasherIS7_SC_NS_4hashIS7_EENS_8equal_toIS7_EELb1EEENS_21__unordered_map_equalIS7_SC_SH_SF_Lb1EEENS5_ISC_EEEC1Ev, symObjAddr: 0x104D0, symBinAddr: 0x100015D00, symSize: 0x20 }
  - { offsetInCU: 0x31E11, offset: 0x49D1A, size: 0x8, addend: 0x0, symName: __ZNSt3__112__hash_tableINS_17__hash_value_typeINS_12basic_stringIcNS_11char_traitsIcEENS_9allocatorIcEEEENS_6vectorI4PathNS5_IS9_EEEEEENS_22__unordered_map_hasherIS7_SC_NS_4hashIS7_EENS_8equal_toIS7_EELb1EEENS_21__unordered_map_equalIS7_SC_SH_SF_Lb1EEENS5_ISC_EEEC2Ev, symObjAddr: 0x10500, symBinAddr: 0x100015D30, symSize: 0x80 }
  - { offsetInCU: 0x31E3C, offset: 0x49D45, size: 0x8, addend: 0x0, symName: __ZNSt3__110unique_ptrIA_PNS_16__hash_node_baseIPNS_11__hash_nodeINS_17__hash_value_typeINS_12basic_stringIcNS_11char_traitsIcEENS_9allocatorIcEEEENS_6vectorI4PathNS7_ISB_EEEEEEPvEEEENS_25__bucket_list_deallocatorINS7_ISJ_EEEEEC1B7v160006ILb1EvEEv, symObjAddr: 0x10580, symBinAddr: 0x100015DB0, symSize: 0x20 }
  - { offsetInCU: 0x31E70, offset: 0x49D79, size: 0x8, addend: 0x0, symName: __ZNSt3__117__compressed_pairINS_16__hash_node_baseIPNS_11__hash_nodeINS_17__hash_value_typeINS_12basic_stringIcNS_11char_traitsIcEENS_9allocatorIcEEEENS_6vectorI4PathNS7_ISB_EEEEEEPvEEEENS7_ISG_EEEC1B7v160006ILb1EvEEv, symObjAddr: 0x105A0, symBinAddr: 0x100015DD0, symSize: 0x20 }
  - { offsetInCU: 0x31EA4, offset: 0x49DAD, size: 0x8, addend: 0x0, symName: __ZNSt3__117__compressed_pairImNS_22__unordered_map_hasherINS_12basic_stringIcNS_11char_traitsIcEENS_9allocatorIcEEEENS_17__hash_value_typeIS7_NS_6vectorI4PathNS5_ISA_EEEEEENS_4hashIS7_EENS_8equal_toIS7_EELb1EEEEC1B7v160006IiNS_18__default_init_tagEEEOT_OT0_, symObjAddr: 0x105C0, symBinAddr: 0x100015DF0, symSize: 0x30 }
  - { offsetInCU: 0x31F00, offset: 0x49E09, size: 0x8, addend: 0x0, symName: __ZNSt3__117__compressed_pairIfNS_21__unordered_map_equalINS_12basic_stringIcNS_11char_traitsIcEENS_9allocatorIcEEEENS_17__hash_value_typeIS7_NS_6vectorI4PathNS5_ISA_EEEEEENS_8equal_toIS7_EENS_4hashIS7_EELb1EEEEC1B7v160006IfNS_18__default_init_tagEEEOT_OT0_, symObjAddr: 0x105F0, symBinAddr: 0x100015E20, symSize: 0x30 }
  - { offsetInCU: 0x31F57, offset: 0x49E60, size: 0x8, addend: 0x0, symName: __ZNSt3__110unique_ptrIA_PNS_16__hash_node_baseIPNS_11__hash_nodeINS_17__hash_value_typeINS_12basic_stringIcNS_11char_traitsIcEENS_9allocatorIcEEEENS_6vectorI4PathNS7_ISB_EEEEEEPvEEEENS_25__bucket_list_deallocatorINS7_ISJ_EEEEEC2B7v160006ILb1EvEEv, symObjAddr: 0x10620, symBinAddr: 0x100015E50, symSize: 0x30 }
  - { offsetInCU: 0x31F8B, offset: 0x49E94, size: 0x8, addend: 0x0, symName: __ZNSt3__117__compressed_pairIPPNS_16__hash_node_baseIPNS_11__hash_nodeINS_17__hash_value_typeINS_12basic_stringIcNS_11char_traitsIcEENS_9allocatorIcEEEENS_6vectorI4PathNS7_ISB_EEEEEEPvEEEENS_25__bucket_list_deallocatorINS7_ISJ_EEEEEC1B7v160006INS_16__value_init_tagESQ_EEOT_OT0_, symObjAddr: 0x10650, symBinAddr: 0x100015E80, symSize: 0x30 }
  - { offsetInCU: 0x31FE2, offset: 0x49EEB, size: 0x8, addend: 0x0, symName: __ZNSt3__117__compressed_pairIPPNS_16__hash_node_baseIPNS_11__hash_nodeINS_17__hash_value_typeINS_12basic_stringIcNS_11char_traitsIcEENS_9allocatorIcEEEENS_6vectorI4PathNS7_ISB_EEEEEEPvEEEENS_25__bucket_list_deallocatorINS7_ISJ_EEEEEC2B7v160006INS_16__value_init_tagESQ_EEOT_OT0_, symObjAddr: 0x10680, symBinAddr: 0x100015EB0, symSize: 0x40 }
  - { offsetInCU: 0x32039, offset: 0x49F42, size: 0x8, addend: 0x0, symName: __ZNSt3__122__compressed_pair_elemIPPNS_16__hash_node_baseIPNS_11__hash_nodeINS_17__hash_value_typeINS_12basic_stringIcNS_11char_traitsIcEENS_9allocatorIcEEEENS_6vectorI4PathNS7_ISB_EEEEEEPvEEEELi0ELb0EEC2B7v160006ENS_16__value_init_tagE, symObjAddr: 0x106C0, symBinAddr: 0x100015EF0, symSize: 0x20 }
  - { offsetInCU: 0x3206C, offset: 0x49F75, size: 0x8, addend: 0x0, symName: __ZNSt3__122__compressed_pair_elemINS_25__bucket_list_deallocatorINS_9allocatorIPNS_16__hash_node_baseIPNS_11__hash_nodeINS_17__hash_value_typeINS_12basic_stringIcNS_11char_traitsIcEENS2_IcEEEENS_6vectorI4PathNS2_ISC_EEEEEEPvEEEEEEEELi1ELb0EEC2B7v160006ENS_16__value_init_tagE, symObjAddr: 0x106E0, symBinAddr: 0x100015F10, symSize: 0x20 }
  - { offsetInCU: 0x3209F, offset: 0x49FA8, size: 0x8, addend: 0x0, symName: __ZNSt3__125__bucket_list_deallocatorINS_9allocatorIPNS_16__hash_node_baseIPNS_11__hash_nodeINS_17__hash_value_typeINS_12basic_stringIcNS_11char_traitsIcEENS1_IcEEEENS_6vectorI4PathNS1_ISB_EEEEEEPvEEEEEEEC1B7v160006Ev, symObjAddr: 0x10700, symBinAddr: 0x100015F30, symSize: 0x20 }
  - { offsetInCU: 0x320C8, offset: 0x49FD1, size: 0x8, addend: 0x0, symName: __ZNSt3__125__bucket_list_deallocatorINS_9allocatorIPNS_16__hash_node_baseIPNS_11__hash_nodeINS_17__hash_value_typeINS_12basic_stringIcNS_11char_traitsIcEENS1_IcEEEENS_6vectorI4PathNS1_ISB_EEEEEEPvEEEEEEEC2B7v160006Ev, symObjAddr: 0x10720, symBinAddr: 0x100015F50, symSize: 0x40 }
  - { offsetInCU: 0x320F1, offset: 0x49FFA, size: 0x8, addend: 0x0, symName: __ZNSt3__117__compressed_pairImNS_9allocatorIPNS_16__hash_node_baseIPNS_11__hash_nodeINS_17__hash_value_typeINS_12basic_stringIcNS_11char_traitsIcEENS1_IcEEEENS_6vectorI4PathNS1_ISB_EEEEEEPvEEEEEEEC1B7v160006IiNS_18__default_init_tagEEEOT_OT0_, symObjAddr: 0x10760, symBinAddr: 0x100015F90, symSize: 0x30 }
  - { offsetInCU: 0x32148, offset: 0x4A051, size: 0x8, addend: 0x0, symName: __ZNSt3__117__compressed_pairImNS_9allocatorIPNS_16__hash_node_baseIPNS_11__hash_nodeINS_17__hash_value_typeINS_12basic_stringIcNS_11char_traitsIcEENS1_IcEEEENS_6vectorI4PathNS1_ISB_EEEEEEPvEEEEEEEC2B7v160006IiNS_18__default_init_tagEEEOT_OT0_, symObjAddr: 0x10790, symBinAddr: 0x100015FC0, symSize: 0x40 }
  - { offsetInCU: 0x3219F, offset: 0x4A0A8, size: 0x8, addend: 0x0, symName: __ZNSt3__122__compressed_pair_elemINS_9allocatorIPNS_16__hash_node_baseIPNS_11__hash_nodeINS_17__hash_value_typeINS_12basic_stringIcNS_11char_traitsIcEENS1_IcEEEENS_6vectorI4PathNS1_ISB_EEEEEEPvEEEEEELi1ELb1EEC2B7v160006ENS_18__default_init_tagE, symObjAddr: 0x107F0, symBinAddr: 0x100016000, symSize: 0x20 }
  - { offsetInCU: 0x321D2, offset: 0x4A0DB, size: 0x8, addend: 0x0, symName: __ZNSt3__19allocatorIPNS_16__hash_node_baseIPNS_11__hash_nodeINS_17__hash_value_typeINS_12basic_stringIcNS_11char_traitsIcEENS0_IcEEEENS_6vectorI4PathNS0_ISA_EEEEEEPvEEEEEC2B7v160006Ev, symObjAddr: 0x10810, symBinAddr: 0x100016020, symSize: 0x20 }
  - { offsetInCU: 0x321FB, offset: 0x4A104, size: 0x8, addend: 0x0, symName: __ZNSt3__116__non_trivial_ifILb1ENS_9allocatorIPNS_16__hash_node_baseIPNS_11__hash_nodeINS_17__hash_value_typeINS_12basic_stringIcNS_11char_traitsIcEENS1_IcEEEENS_6vectorI4PathNS1_ISB_EEEEEEPvEEEEEEEC2B7v160006Ev, symObjAddr: 0x10830, symBinAddr: 0x100016040, symSize: 0x10 }
  - { offsetInCU: 0x32224, offset: 0x4A12D, size: 0x8, addend: 0x0, symName: __ZNSt3__117__compressed_pairINS_16__hash_node_baseIPNS_11__hash_nodeINS_17__hash_value_typeINS_12basic_stringIcNS_11char_traitsIcEENS_9allocatorIcEEEENS_6vectorI4PathNS7_ISB_EEEEEEPvEEEENS7_ISG_EEEC2B7v160006ILb1EvEEv, symObjAddr: 0x10840, symBinAddr: 0x100016050, symSize: 0x30 }
  - { offsetInCU: 0x32258, offset: 0x4A161, size: 0x8, addend: 0x0, symName: __ZNSt3__122__compressed_pair_elemINS_16__hash_node_baseIPNS_11__hash_nodeINS_17__hash_value_typeINS_12basic_stringIcNS_11char_traitsIcEENS_9allocatorIcEEEENS_6vectorI4PathNS7_ISB_EEEEEEPvEEEELi0ELb0EEC2B7v160006ENS_16__value_init_tagE, symObjAddr: 0x10870, symBinAddr: 0x100016080, symSize: 0x20 }
  - { offsetInCU: 0x3228B, offset: 0x4A194, size: 0x8, addend: 0x0, symName: __ZNSt3__122__compressed_pair_elemINS_9allocatorINS_11__hash_nodeINS_17__hash_value_typeINS_12basic_stringIcNS_11char_traitsIcEENS1_IcEEEENS_6vectorI4PathNS1_ISA_EEEEEEPvEEEELi1ELb1EEC2B7v160006ENS_16__value_init_tagE, symObjAddr: 0x10890, symBinAddr: 0x1000160A0, symSize: 0x20 }
  - { offsetInCU: 0x322BE, offset: 0x4A1C7, size: 0x8, addend: 0x0, symName: __ZNSt3__116__hash_node_baseIPNS_11__hash_nodeINS_17__hash_value_typeINS_12basic_stringIcNS_11char_traitsIcEENS_9allocatorIcEEEENS_6vectorI4PathNS6_ISA_EEEEEEPvEEEC1B7v160006Ev, symObjAddr: 0x108B0, symBinAddr: 0x1000160C0, symSize: 0x20 }
  - { offsetInCU: 0x322E7, offset: 0x4A1F0, size: 0x8, addend: 0x0, symName: __ZNSt3__116__hash_node_baseIPNS_11__hash_nodeINS_17__hash_value_typeINS_12basic_stringIcNS_11char_traitsIcEENS_9allocatorIcEEEENS_6vectorI4PathNS6_ISA_EEEEEEPvEEEC2B7v160006Ev, symObjAddr: 0x108D0, symBinAddr: 0x1000160E0, symSize: 0x20 }
  - { offsetInCU: 0x32310, offset: 0x4A219, size: 0x8, addend: 0x0, symName: __ZNSt3__19allocatorINS_11__hash_nodeINS_17__hash_value_typeINS_12basic_stringIcNS_11char_traitsIcEENS0_IcEEEENS_6vectorI4PathNS0_IS9_EEEEEEPvEEEC2B7v160006Ev, symObjAddr: 0x108F0, symBinAddr: 0x100016100, symSize: 0x20 }
  - { offsetInCU: 0x32339, offset: 0x4A242, size: 0x8, addend: 0x0, symName: __ZNSt3__116__non_trivial_ifILb1ENS_9allocatorINS_11__hash_nodeINS_17__hash_value_typeINS_12basic_stringIcNS_11char_traitsIcEENS1_IcEEEENS_6vectorI4PathNS1_ISA_EEEEEEPvEEEEEC2B7v160006Ev, symObjAddr: 0x10910, symBinAddr: 0x100016120, symSize: 0x10 }
  - { offsetInCU: 0x32362, offset: 0x4A26B, size: 0x8, addend: 0x0, symName: __ZNSt3__117__compressed_pairImNS_22__unordered_map_hasherINS_12basic_stringIcNS_11char_traitsIcEENS_9allocatorIcEEEENS_17__hash_value_typeIS7_NS_6vectorI4PathNS5_ISA_EEEEEENS_4hashIS7_EENS_8equal_toIS7_EELb1EEEEC2B7v160006IiNS_18__default_init_tagEEEOT_OT0_, symObjAddr: 0x10920, symBinAddr: 0x100016130, symSize: 0x40 }
  - { offsetInCU: 0x323B9, offset: 0x4A2C2, size: 0x8, addend: 0x0, symName: __ZNSt3__122__compressed_pair_elemINS_22__unordered_map_hasherINS_12basic_stringIcNS_11char_traitsIcEENS_9allocatorIcEEEENS_17__hash_value_typeIS7_NS_6vectorI4PathNS5_ISA_EEEEEENS_4hashIS7_EENS_8equal_toIS7_EELb1EEELi1ELb1EEC2B7v160006ENS_18__default_init_tagE, symObjAddr: 0x10960, symBinAddr: 0x100016170, symSize: 0x20 }
  - { offsetInCU: 0x323EC, offset: 0x4A2F5, size: 0x8, addend: 0x0, symName: __ZNSt3__122__unordered_map_hasherINS_12basic_stringIcNS_11char_traitsIcEENS_9allocatorIcEEEENS_17__hash_value_typeIS6_NS_6vectorI4PathNS4_IS9_EEEEEENS_4hashIS6_EENS_8equal_toIS6_EELb1EEC2B7v160006Ev, symObjAddr: 0x10980, symBinAddr: 0x100016190, symSize: 0x10 }
  - { offsetInCU: 0x32415, offset: 0x4A31E, size: 0x8, addend: 0x0, symName: __ZNSt3__117__compressed_pairIfNS_21__unordered_map_equalINS_12basic_stringIcNS_11char_traitsIcEENS_9allocatorIcEEEENS_17__hash_value_typeIS7_NS_6vectorI4PathNS5_ISA_EEEEEENS_8equal_toIS7_EENS_4hashIS7_EELb1EEEEC2B7v160006IfNS_18__default_init_tagEEEOT_OT0_, symObjAddr: 0x10990, symBinAddr: 0x1000161A0, symSize: 0x40 }
  - { offsetInCU: 0x3246C, offset: 0x4A375, size: 0x8, addend: 0x0, symName: __ZNSt3__122__compressed_pair_elemINS_21__unordered_map_equalINS_12basic_stringIcNS_11char_traitsIcEENS_9allocatorIcEEEENS_17__hash_value_typeIS7_NS_6vectorI4PathNS5_ISA_EEEEEENS_8equal_toIS7_EENS_4hashIS7_EELb1EEELi1ELb1EEC2B7v160006ENS_18__default_init_tagE, symObjAddr: 0x109F0, symBinAddr: 0x1000161E0, symSize: 0x20 }
  - { offsetInCU: 0x3249F, offset: 0x4A3A8, size: 0x8, addend: 0x0, symName: __ZNSt3__121__unordered_map_equalINS_12basic_stringIcNS_11char_traitsIcEENS_9allocatorIcEEEENS_17__hash_value_typeIS6_NS_6vectorI4PathNS4_IS9_EEEEEENS_8equal_toIS6_EENS_4hashIS6_EELb1EEC2B7v160006Ev, symObjAddr: 0x10A10, symBinAddr: 0x100016200, symSize: 0x10 }
  - { offsetInCU: 0x324C8, offset: 0x4A3D1, size: 0x8, addend: 0x0, symName: __ZNSt3__113unordered_mapINS_12basic_stringIcNS_11char_traitsIcEENS_9allocatorIcEEEENS_6vectorI4PathNS4_IS8_EEEENS_4hashIS6_EENS_8equal_toIS6_EENS4_INS_4pairIKS6_SA_EEEEED2B7v160006Ev, symObjAddr: 0x10A20, symBinAddr: 0x100016210, symSize: 0x20 }
  - { offsetInCU: 0x324F1, offset: 0x4A3FA, size: 0x8, addend: 0x0, symName: __ZNSt3__112__hash_tableINS_17__hash_value_typeINS_12basic_stringIcNS_11char_traitsIcEENS_9allocatorIcEEEENS_6vectorI4PathNS5_IS9_EEEEEENS_22__unordered_map_hasherIS7_SC_NS_4hashIS7_EENS_8equal_toIS7_EELb1EEENS_21__unordered_map_equalIS7_SC_SH_SF_Lb1EEENS5_ISC_EEED1Ev, symObjAddr: 0x10A40, symBinAddr: 0x100016230, symSize: 0x20 }
  - { offsetInCU: 0x3251C, offset: 0x4A425, size: 0x8, addend: 0x0, symName: __ZNSt3__112__hash_tableINS_17__hash_value_typeINS_12basic_stringIcNS_11char_traitsIcEENS_9allocatorIcEEEENS_6vectorI4PathNS5_IS9_EEEEEENS_22__unordered_map_hasherIS7_SC_NS_4hashIS7_EENS_8equal_toIS7_EELb1EEENS_21__unordered_map_equalIS7_SC_SH_SF_Lb1EEENS5_ISC_EEED2Ev, symObjAddr: 0x10A60, symBinAddr: 0x100016250, symSize: 0x50 }
  - { offsetInCU: 0x32547, offset: 0x4A450, size: 0x8, addend: 0x0, symName: __ZNSt3__112__hash_tableINS_17__hash_value_typeINS_12basic_stringIcNS_11char_traitsIcEENS_9allocatorIcEEEENS_6vectorI4PathNS5_IS9_EEEEEENS_22__unordered_map_hasherIS7_SC_NS_4hashIS7_EENS_8equal_toIS7_EELb1EEENS_21__unordered_map_equalIS7_SC_SH_SF_Lb1EEENS5_ISC_EEE17__deallocate_nodeEPNS_16__hash_node_baseIPNS_11__hash_nodeISC_PvEEEE, symObjAddr: 0x10AB0, symBinAddr: 0x1000162A0, symSize: 0xA0 }
  - { offsetInCU: 0x325B0, offset: 0x4A4B9, size: 0x8, addend: 0x0, symName: __ZNSt3__117__compressed_pairINS_16__hash_node_baseIPNS_11__hash_nodeINS_17__hash_value_typeINS_12basic_stringIcNS_11char_traitsIcEENS_9allocatorIcEEEENS_6vectorI4PathNS7_ISB_EEEEEEPvEEEENS7_ISG_EEE5firstB7v160006Ev, symObjAddr: 0x10B50, symBinAddr: 0x100016340, symSize: 0x20 }
  - { offsetInCU: 0x325D5, offset: 0x4A4DE, size: 0x8, addend: 0x0, symName: __ZNSt3__110unique_ptrIA_PNS_16__hash_node_baseIPNS_11__hash_nodeINS_17__hash_value_typeINS_12basic_stringIcNS_11char_traitsIcEENS_9allocatorIcEEEENS_6vectorI4PathNS7_ISB_EEEEEEPvEEEENS_25__bucket_list_deallocatorINS7_ISJ_EEEEED1B7v160006Ev, symObjAddr: 0x10B80, symBinAddr: 0x100016370, symSize: 0x20 }
  - { offsetInCU: 0x325FE, offset: 0x4A507, size: 0x8, addend: 0x0, symName: __ZNSt3__112__hash_tableINS_17__hash_value_typeINS_12basic_stringIcNS_11char_traitsIcEENS_9allocatorIcEEEENS_6vectorI4PathNS5_IS9_EEEEEENS_22__unordered_map_hasherIS7_SC_NS_4hashIS7_EENS_8equal_toIS7_EELb1EEENS_21__unordered_map_equalIS7_SC_SH_SF_Lb1EEENS5_ISC_EEE12__node_allocB7v160006Ev, symObjAddr: 0x10BA0, symBinAddr: 0x100016390, symSize: 0x20 }
  - { offsetInCU: 0x32623, offset: 0x4A52C, size: 0x8, addend: 0x0, symName: __ZNSt3__116__hash_node_baseIPNS_11__hash_nodeINS_17__hash_value_typeINS_12basic_stringIcNS_11char_traitsIcEENS_9allocatorIcEEEENS_6vectorI4PathNS6_ISA_EEEEEEPvEEE8__upcastB7v160006Ev, symObjAddr: 0x10BC0, symBinAddr: 0x1000163B0, symSize: 0x20 }
  - { offsetInCU: 0x32648, offset: 0x4A551, size: 0x8, addend: 0x0, symName: __ZNSt3__116allocator_traitsINS_9allocatorINS_11__hash_nodeINS_17__hash_value_typeINS_12basic_stringIcNS_11char_traitsIcEENS1_IcEEEENS_6vectorI4PathNS1_ISA_EEEEEEPvEEEEE7destroyB7v160006INS_4pairIKS8_SC_EEvvEEvRSG_PT_, symObjAddr: 0x10BE0, symBinAddr: 0x1000163D0, symSize: 0x20 }
  - { offsetInCU: 0x32683, offset: 0x4A58C, size: 0x8, addend: 0x0, symName: __ZNSt3__122__hash_key_value_typesINS_17__hash_value_typeINS_12basic_stringIcNS_11char_traitsIcEENS_9allocatorIcEEEENS_6vectorI4PathNS5_IS9_EEEEEEE9__get_ptrB7v160006ERSC_, symObjAddr: 0x10C00, symBinAddr: 0x1000163F0, symSize: 0x20 }
  - { offsetInCU: 0x326A6, offset: 0x4A5AF, size: 0x8, addend: 0x0, symName: __ZNSt3__116allocator_traitsINS_9allocatorINS_11__hash_nodeINS_17__hash_value_typeINS_12basic_stringIcNS_11char_traitsIcEENS1_IcEEEENS_6vectorI4PathNS1_ISA_EEEEEEPvEEEEE10deallocateB7v160006ERSG_PSF_m, symObjAddr: 0x10C20, symBinAddr: 0x100016410, symSize: 0x30 }
  - { offsetInCU: 0x326E8, offset: 0x4A5F1, size: 0x8, addend: 0x0, symName: __ZNSt3__117__compressed_pairINS_16__hash_node_baseIPNS_11__hash_nodeINS_17__hash_value_typeINS_12basic_stringIcNS_11char_traitsIcEENS_9allocatorIcEEEENS_6vectorI4PathNS7_ISB_EEEEEEPvEEEENS7_ISG_EEE6secondB7v160006Ev, symObjAddr: 0x10C50, symBinAddr: 0x100016440, symSize: 0x20 }
  - { offsetInCU: 0x3270D, offset: 0x4A616, size: 0x8, addend: 0x0, symName: __ZNSt3__122__compressed_pair_elemINS_9allocatorINS_11__hash_nodeINS_17__hash_value_typeINS_12basic_stringIcNS_11char_traitsIcEENS1_IcEEEENS_6vectorI4PathNS1_ISA_EEEEEEPvEEEELi1ELb1EE5__getB7v160006Ev, symObjAddr: 0x10C70, symBinAddr: 0x100016460, symSize: 0x10 }
  - { offsetInCU: 0x32732, offset: 0x4A63B, size: 0x8, addend: 0x0, symName: __ZNSt3__114pointer_traitsIPNS_16__hash_node_baseIPNS_11__hash_nodeINS_17__hash_value_typeINS_12basic_stringIcNS_11char_traitsIcEENS_9allocatorIcEEEENS_6vectorI4PathNS7_ISB_EEEEEEPvEEEEE10pointer_toB7v160006ERSI_, symObjAddr: 0x10C80, symBinAddr: 0x100016470, symSize: 0x10 }
  - { offsetInCU: 0x32755, offset: 0x4A65E, size: 0x8, addend: 0x0, symName: __ZNSt3__14pairIKNS_12basic_stringIcNS_11char_traitsIcEENS_9allocatorIcEEEENS_6vectorI4PathNS4_IS9_EEEEED1Ev, symObjAddr: 0x10CD0, symBinAddr: 0x1000164C0, symSize: 0x20 }
  - { offsetInCU: 0x32780, offset: 0x4A689, size: 0x8, addend: 0x0, symName: __ZNSt3__14pairIKNS_12basic_stringIcNS_11char_traitsIcEENS_9allocatorIcEEEENS_6vectorI4PathNS4_IS9_EEEEED2Ev, symObjAddr: 0x10CF0, symBinAddr: 0x1000164E0, symSize: 0x30 }
  - { offsetInCU: 0x327AB, offset: 0x4A6B4, size: 0x8, addend: 0x0, symName: __ZNSt3__117__hash_value_typeINS_12basic_stringIcNS_11char_traitsIcEENS_9allocatorIcEEEENS_6vectorI4PathNS4_IS8_EEEEE11__get_valueB7v160006Ev, symObjAddr: 0x10D20, symBinAddr: 0x100016510, symSize: 0x20 }
  - { offsetInCU: 0x327D0, offset: 0x4A6D9, size: 0x8, addend: 0x0, symName: __ZNSt3__19allocatorINS_11__hash_nodeINS_17__hash_value_typeINS_12basic_stringIcNS_11char_traitsIcEENS0_IcEEEENS_6vectorI4PathNS0_IS9_EEEEEEPvEEE10deallocateB7v160006EPSE_m, symObjAddr: 0x10D70, symBinAddr: 0x100016560, symSize: 0x40 }
  - { offsetInCU: 0x32811, offset: 0x4A71A, size: 0x8, addend: 0x0, symName: __ZNSt3__122__compressed_pair_elemINS_16__hash_node_baseIPNS_11__hash_nodeINS_17__hash_value_typeINS_12basic_stringIcNS_11char_traitsIcEENS_9allocatorIcEEEENS_6vectorI4PathNS7_ISB_EEEEEEPvEEEELi0ELb0EE5__getB7v160006Ev, symObjAddr: 0x10DB0, symBinAddr: 0x1000165A0, symSize: 0x10 }
  - { offsetInCU: 0x32836, offset: 0x4A73F, size: 0x8, addend: 0x0, symName: __ZNSt3__110unique_ptrIA_PNS_16__hash_node_baseIPNS_11__hash_nodeINS_17__hash_value_typeINS_12basic_stringIcNS_11char_traitsIcEENS_9allocatorIcEEEENS_6vectorI4PathNS7_ISB_EEEEEEPvEEEENS_25__bucket_list_deallocatorINS7_ISJ_EEEEED2B7v160006Ev, symObjAddr: 0x10DC0, symBinAddr: 0x1000165B0, symSize: 0x20 }
  - { offsetInCU: 0x3285F, offset: 0x4A768, size: 0x8, addend: 0x0, symName: __ZNSt3__110unique_ptrIA_PNS_16__hash_node_baseIPNS_11__hash_nodeINS_17__hash_value_typeINS_12basic_stringIcNS_11char_traitsIcEENS_9allocatorIcEEEENS_6vectorI4PathNS7_ISB_EEEEEEPvEEEENS_25__bucket_list_deallocatorINS7_ISJ_EEEEE5resetB7v160006EDn, symObjAddr: 0x10DE0, symBinAddr: 0x1000165D0, symSize: 0x60 }
  - { offsetInCU: 0x3289F, offset: 0x4A7A8, size: 0x8, addend: 0x0, symName: __ZNSt3__117__compressed_pairIPPNS_16__hash_node_baseIPNS_11__hash_nodeINS_17__hash_value_typeINS_12basic_stringIcNS_11char_traitsIcEENS_9allocatorIcEEEENS_6vectorI4PathNS7_ISB_EEEEEEPvEEEENS_25__bucket_list_deallocatorINS7_ISJ_EEEEE5firstB7v160006Ev, symObjAddr: 0x10E40, symBinAddr: 0x100016630, symSize: 0x20 }
  - { offsetInCU: 0x328C4, offset: 0x4A7CD, size: 0x8, addend: 0x0, symName: __ZNSt3__117__compressed_pairIPPNS_16__hash_node_baseIPNS_11__hash_nodeINS_17__hash_value_typeINS_12basic_stringIcNS_11char_traitsIcEENS_9allocatorIcEEEENS_6vectorI4PathNS7_ISB_EEEEEEPvEEEENS_25__bucket_list_deallocatorINS7_ISJ_EEEEE6secondB7v160006Ev, symObjAddr: 0x10E60, symBinAddr: 0x100016650, symSize: 0x20 }
  - { offsetInCU: 0x328E9, offset: 0x4A7F2, size: 0x8, addend: 0x0, symName: __ZNSt3__125__bucket_list_deallocatorINS_9allocatorIPNS_16__hash_node_baseIPNS_11__hash_nodeINS_17__hash_value_typeINS_12basic_stringIcNS_11char_traitsIcEENS1_IcEEEENS_6vectorI4PathNS1_ISB_EEEEEEPvEEEEEEEclB7v160006EPSJ_, symObjAddr: 0x10E80, symBinAddr: 0x100016670, symSize: 0x50 }
  - { offsetInCU: 0x3291D, offset: 0x4A826, size: 0x8, addend: 0x0, symName: __ZNSt3__122__compressed_pair_elemIPPNS_16__hash_node_baseIPNS_11__hash_nodeINS_17__hash_value_typeINS_12basic_stringIcNS_11char_traitsIcEENS_9allocatorIcEEEENS_6vectorI4PathNS7_ISB_EEEEEEPvEEEELi0ELb0EE5__getB7v160006Ev, symObjAddr: 0x10ED0, symBinAddr: 0x1000166C0, symSize: 0x10 }
  - { offsetInCU: 0x32942, offset: 0x4A84B, size: 0x8, addend: 0x0, symName: __ZNSt3__122__compressed_pair_elemINS_25__bucket_list_deallocatorINS_9allocatorIPNS_16__hash_node_baseIPNS_11__hash_nodeINS_17__hash_value_typeINS_12basic_stringIcNS_11char_traitsIcEENS2_IcEEEENS_6vectorI4PathNS2_ISC_EEEEEEPvEEEEEEEELi1ELb0EE5__getB7v160006Ev, symObjAddr: 0x10EE0, symBinAddr: 0x1000166D0, symSize: 0x10 }
  - { offsetInCU: 0x32967, offset: 0x4A870, size: 0x8, addend: 0x0, symName: __ZNSt3__116allocator_traitsINS_9allocatorIPNS_16__hash_node_baseIPNS_11__hash_nodeINS_17__hash_value_typeINS_12basic_stringIcNS_11char_traitsIcEENS1_IcEEEENS_6vectorI4PathNS1_ISB_EEEEEEPvEEEEEEE10deallocateB7v160006ERSK_PSJ_m, symObjAddr: 0x10EF0, symBinAddr: 0x1000166E0, symSize: 0x30 }
  - { offsetInCU: 0x329A9, offset: 0x4A8B2, size: 0x8, addend: 0x0, symName: __ZNSt3__125__bucket_list_deallocatorINS_9allocatorIPNS_16__hash_node_baseIPNS_11__hash_nodeINS_17__hash_value_typeINS_12basic_stringIcNS_11char_traitsIcEENS1_IcEEEENS_6vectorI4PathNS1_ISB_EEEEEEPvEEEEEEE7__allocB7v160006Ev, symObjAddr: 0x10F20, symBinAddr: 0x100016710, symSize: 0x20 }
  - { offsetInCU: 0x329CE, offset: 0x4A8D7, size: 0x8, addend: 0x0, symName: __ZNSt3__125__bucket_list_deallocatorINS_9allocatorIPNS_16__hash_node_baseIPNS_11__hash_nodeINS_17__hash_value_typeINS_12basic_stringIcNS_11char_traitsIcEENS1_IcEEEENS_6vectorI4PathNS1_ISB_EEEEEEPvEEEEEEE4sizeB7v160006Ev, symObjAddr: 0x10F40, symBinAddr: 0x100016730, symSize: 0x20 }
  - { offsetInCU: 0x329F3, offset: 0x4A8FC, size: 0x8, addend: 0x0, symName: __ZNSt3__19allocatorIPNS_16__hash_node_baseIPNS_11__hash_nodeINS_17__hash_value_typeINS_12basic_stringIcNS_11char_traitsIcEENS0_IcEEEENS_6vectorI4PathNS0_ISA_EEEEEEPvEEEEE10deallocateB7v160006EPSI_m, symObjAddr: 0x10F60, symBinAddr: 0x100016750, symSize: 0x40 }
  - { offsetInCU: 0x32A34, offset: 0x4A93D, size: 0x8, addend: 0x0, symName: __ZNSt3__117__compressed_pairImNS_9allocatorIPNS_16__hash_node_baseIPNS_11__hash_nodeINS_17__hash_value_typeINS_12basic_stringIcNS_11char_traitsIcEENS1_IcEEEENS_6vectorI4PathNS1_ISB_EEEEEEPvEEEEEEE6secondB7v160006Ev, symObjAddr: 0x10FA0, symBinAddr: 0x100016790, symSize: 0x20 }
  - { offsetInCU: 0x32A59, offset: 0x4A962, size: 0x8, addend: 0x0, symName: __ZNSt3__122__compressed_pair_elemINS_9allocatorIPNS_16__hash_node_baseIPNS_11__hash_nodeINS_17__hash_value_typeINS_12basic_stringIcNS_11char_traitsIcEENS1_IcEEEENS_6vectorI4PathNS1_ISB_EEEEEEPvEEEEEELi1ELb1EE5__getB7v160006Ev, symObjAddr: 0x10FC0, symBinAddr: 0x1000167B0, symSize: 0x10 }
  - { offsetInCU: 0x32A7E, offset: 0x4A987, size: 0x8, addend: 0x0, symName: __ZNSt3__117__compressed_pairImNS_9allocatorIPNS_16__hash_node_baseIPNS_11__hash_nodeINS_17__hash_value_typeINS_12basic_stringIcNS_11char_traitsIcEENS1_IcEEEENS_6vectorI4PathNS1_ISB_EEEEEEPvEEEEEEE5firstB7v160006Ev, symObjAddr: 0x10FD0, symBinAddr: 0x1000167C0, symSize: 0x20 }
  - { offsetInCU: 0x32AA3, offset: 0x4A9AC, size: 0x8, addend: 0x0, symName: __ZNSt3__113unordered_mapIi4HostNS_4hashIiEENS_8equal_toIiEENS_9allocatorINS_4pairIKiS1_EEEEEC2B7v160006Ev, symObjAddr: 0x10FF0, symBinAddr: 0x1000167E0, symSize: 0x40 }
  - { offsetInCU: 0x32ACC, offset: 0x4A9D5, size: 0x8, addend: 0x0, symName: __ZNSt3__112__hash_tableINS_17__hash_value_typeIi4HostEENS_22__unordered_map_hasherIiS3_NS_4hashIiEENS_8equal_toIiEELb1EEENS_21__unordered_map_equalIiS3_S8_S6_Lb1EEENS_9allocatorIS3_EEEC1Ev, symObjAddr: 0x11030, symBinAddr: 0x100016820, symSize: 0x20 }
  - { offsetInCU: 0x32AF7, offset: 0x4AA00, size: 0x8, addend: 0x0, symName: __ZNSt3__112__hash_tableINS_17__hash_value_typeIi4HostEENS_22__unordered_map_hasherIiS3_NS_4hashIiEENS_8equal_toIiEELb1EEENS_21__unordered_map_equalIiS3_S8_S6_Lb1EEENS_9allocatorIS3_EEEC2Ev, symObjAddr: 0x11060, symBinAddr: 0x100016850, symSize: 0x80 }
  - { offsetInCU: 0x32B22, offset: 0x4AA2B, size: 0x8, addend: 0x0, symName: __ZNSt3__110unique_ptrIA_PNS_16__hash_node_baseIPNS_11__hash_nodeINS_17__hash_value_typeIi4HostEEPvEEEENS_25__bucket_list_deallocatorINS_9allocatorISA_EEEEEC1B7v160006ILb1EvEEv, symObjAddr: 0x110E0, symBinAddr: 0x1000168D0, symSize: 0x20 }
  - { offsetInCU: 0x32B56, offset: 0x4AA5F, size: 0x8, addend: 0x0, symName: __ZNSt3__117__compressed_pairINS_16__hash_node_baseIPNS_11__hash_nodeINS_17__hash_value_typeIi4HostEEPvEEEENS_9allocatorIS7_EEEC1B7v160006ILb1EvEEv, symObjAddr: 0x11100, symBinAddr: 0x1000168F0, symSize: 0x20 }
  - { offsetInCU: 0x32B8A, offset: 0x4AA93, size: 0x8, addend: 0x0, symName: __ZNSt3__117__compressed_pairImNS_22__unordered_map_hasherIiNS_17__hash_value_typeIi4HostEENS_4hashIiEENS_8equal_toIiEELb1EEEEC1B7v160006IiNS_18__default_init_tagEEEOT_OT0_, symObjAddr: 0x11120, symBinAddr: 0x100016910, symSize: 0x30 }
  - { offsetInCU: 0x32BE1, offset: 0x4AAEA, size: 0x8, addend: 0x0, symName: __ZNSt3__117__compressed_pairIfNS_21__unordered_map_equalIiNS_17__hash_value_typeIi4HostEENS_8equal_toIiEENS_4hashIiEELb1EEEEC1B7v160006IfNS_18__default_init_tagEEEOT_OT0_, symObjAddr: 0x11150, symBinAddr: 0x100016940, symSize: 0x30 }
  - { offsetInCU: 0x32C38, offset: 0x4AB41, size: 0x8, addend: 0x0, symName: __ZNSt3__110unique_ptrIA_PNS_16__hash_node_baseIPNS_11__hash_nodeINS_17__hash_value_typeIi4HostEEPvEEEENS_25__bucket_list_deallocatorINS_9allocatorISA_EEEEEC2B7v160006ILb1EvEEv, symObjAddr: 0x11180, symBinAddr: 0x100016970, symSize: 0x30 }
  - { offsetInCU: 0x32C6C, offset: 0x4AB75, size: 0x8, addend: 0x0, symName: __ZNSt3__117__compressed_pairIPPNS_16__hash_node_baseIPNS_11__hash_nodeINS_17__hash_value_typeIi4HostEEPvEEEENS_25__bucket_list_deallocatorINS_9allocatorISA_EEEEEC1B7v160006INS_16__value_init_tagESI_EEOT_OT0_, symObjAddr: 0x111B0, symBinAddr: 0x1000169A0, symSize: 0x30 }
  - { offsetInCU: 0x32CC3, offset: 0x4ABCC, size: 0x8, addend: 0x0, symName: __ZNSt3__117__compressed_pairIPPNS_16__hash_node_baseIPNS_11__hash_nodeINS_17__hash_value_typeIi4HostEEPvEEEENS_25__bucket_list_deallocatorINS_9allocatorISA_EEEEEC2B7v160006INS_16__value_init_tagESI_EEOT_OT0_, symObjAddr: 0x111E0, symBinAddr: 0x1000169D0, symSize: 0x40 }
  - { offsetInCU: 0x32D1A, offset: 0x4AC23, size: 0x8, addend: 0x0, symName: __ZNSt3__122__compressed_pair_elemIPPNS_16__hash_node_baseIPNS_11__hash_nodeINS_17__hash_value_typeIi4HostEEPvEEEELi0ELb0EEC2B7v160006ENS_16__value_init_tagE, symObjAddr: 0x11220, symBinAddr: 0x100016A10, symSize: 0x20 }
  - { offsetInCU: 0x32D4D, offset: 0x4AC56, size: 0x8, addend: 0x0, symName: __ZNSt3__122__compressed_pair_elemINS_25__bucket_list_deallocatorINS_9allocatorIPNS_16__hash_node_baseIPNS_11__hash_nodeINS_17__hash_value_typeIi4HostEEPvEEEEEEEELi1ELb0EEC2B7v160006ENS_16__value_init_tagE, symObjAddr: 0x11240, symBinAddr: 0x100016A30, symSize: 0x20 }
  - { offsetInCU: 0x32D80, offset: 0x4AC89, size: 0x8, addend: 0x0, symName: __ZNSt3__125__bucket_list_deallocatorINS_9allocatorIPNS_16__hash_node_baseIPNS_11__hash_nodeINS_17__hash_value_typeIi4HostEEPvEEEEEEEC1B7v160006Ev, symObjAddr: 0x11260, symBinAddr: 0x100016A50, symSize: 0x20 }
  - { offsetInCU: 0x32DA9, offset: 0x4ACB2, size: 0x8, addend: 0x0, symName: __ZNSt3__125__bucket_list_deallocatorINS_9allocatorIPNS_16__hash_node_baseIPNS_11__hash_nodeINS_17__hash_value_typeIi4HostEEPvEEEEEEEC2B7v160006Ev, symObjAddr: 0x11280, symBinAddr: 0x100016A70, symSize: 0x40 }
  - { offsetInCU: 0x32DD2, offset: 0x4ACDB, size: 0x8, addend: 0x0, symName: __ZNSt3__117__compressed_pairImNS_9allocatorIPNS_16__hash_node_baseIPNS_11__hash_nodeINS_17__hash_value_typeIi4HostEEPvEEEEEEEC1B7v160006IiNS_18__default_init_tagEEEOT_OT0_, symObjAddr: 0x112C0, symBinAddr: 0x100016AB0, symSize: 0x30 }
  - { offsetInCU: 0x32E29, offset: 0x4AD32, size: 0x8, addend: 0x0, symName: __ZNSt3__117__compressed_pairImNS_9allocatorIPNS_16__hash_node_baseIPNS_11__hash_nodeINS_17__hash_value_typeIi4HostEEPvEEEEEEEC2B7v160006IiNS_18__default_init_tagEEEOT_OT0_, symObjAddr: 0x112F0, symBinAddr: 0x100016AE0, symSize: 0x40 }
  - { offsetInCU: 0x32E80, offset: 0x4AD89, size: 0x8, addend: 0x0, symName: __ZNSt3__122__compressed_pair_elemINS_9allocatorIPNS_16__hash_node_baseIPNS_11__hash_nodeINS_17__hash_value_typeIi4HostEEPvEEEEEELi1ELb1EEC2B7v160006ENS_18__default_init_tagE, symObjAddr: 0x11330, symBinAddr: 0x100016B20, symSize: 0x20 }
  - { offsetInCU: 0x32EB3, offset: 0x4ADBC, size: 0x8, addend: 0x0, symName: __ZNSt3__19allocatorIPNS_16__hash_node_baseIPNS_11__hash_nodeINS_17__hash_value_typeIi4HostEEPvEEEEEC2B7v160006Ev, symObjAddr: 0x11350, symBinAddr: 0x100016B40, symSize: 0x20 }
  - { offsetInCU: 0x32EDC, offset: 0x4ADE5, size: 0x8, addend: 0x0, symName: __ZNSt3__116__non_trivial_ifILb1ENS_9allocatorIPNS_16__hash_node_baseIPNS_11__hash_nodeINS_17__hash_value_typeIi4HostEEPvEEEEEEEC2B7v160006Ev, symObjAddr: 0x11370, symBinAddr: 0x100016B60, symSize: 0x10 }
  - { offsetInCU: 0x32F05, offset: 0x4AE0E, size: 0x8, addend: 0x0, symName: __ZNSt3__117__compressed_pairINS_16__hash_node_baseIPNS_11__hash_nodeINS_17__hash_value_typeIi4HostEEPvEEEENS_9allocatorIS7_EEEC2B7v160006ILb1EvEEv, symObjAddr: 0x11380, symBinAddr: 0x100016B70, symSize: 0x30 }
  - { offsetInCU: 0x32F39, offset: 0x4AE42, size: 0x8, addend: 0x0, symName: __ZNSt3__122__compressed_pair_elemINS_16__hash_node_baseIPNS_11__hash_nodeINS_17__hash_value_typeIi4HostEEPvEEEELi0ELb0EEC2B7v160006ENS_16__value_init_tagE, symObjAddr: 0x113B0, symBinAddr: 0x100016BA0, symSize: 0x20 }
  - { offsetInCU: 0x32F6C, offset: 0x4AE75, size: 0x8, addend: 0x0, symName: __ZNSt3__122__compressed_pair_elemINS_9allocatorINS_11__hash_nodeINS_17__hash_value_typeIi4HostEEPvEEEELi1ELb1EEC2B7v160006ENS_16__value_init_tagE, symObjAddr: 0x113D0, symBinAddr: 0x100016BC0, symSize: 0x20 }
  - { offsetInCU: 0x32F9F, offset: 0x4AEA8, size: 0x8, addend: 0x0, symName: __ZNSt3__116__hash_node_baseIPNS_11__hash_nodeINS_17__hash_value_typeIi4HostEEPvEEEC1B7v160006Ev, symObjAddr: 0x113F0, symBinAddr: 0x100016BE0, symSize: 0x20 }
  - { offsetInCU: 0x32FC8, offset: 0x4AED1, size: 0x8, addend: 0x0, symName: __ZNSt3__116__hash_node_baseIPNS_11__hash_nodeINS_17__hash_value_typeIi4HostEEPvEEEC2B7v160006Ev, symObjAddr: 0x11410, symBinAddr: 0x100016C00, symSize: 0x20 }
  - { offsetInCU: 0x32FF1, offset: 0x4AEFA, size: 0x8, addend: 0x0, symName: __ZNSt3__19allocatorINS_11__hash_nodeINS_17__hash_value_typeIi4HostEEPvEEEC2B7v160006Ev, symObjAddr: 0x11430, symBinAddr: 0x100016C20, symSize: 0x20 }
  - { offsetInCU: 0x3301A, offset: 0x4AF23, size: 0x8, addend: 0x0, symName: __ZNSt3__116__non_trivial_ifILb1ENS_9allocatorINS_11__hash_nodeINS_17__hash_value_typeIi4HostEEPvEEEEEC2B7v160006Ev, symObjAddr: 0x11450, symBinAddr: 0x100016C40, symSize: 0x10 }
  - { offsetInCU: 0x33043, offset: 0x4AF4C, size: 0x8, addend: 0x0, symName: __ZNSt3__117__compressed_pairImNS_22__unordered_map_hasherIiNS_17__hash_value_typeIi4HostEENS_4hashIiEENS_8equal_toIiEELb1EEEEC2B7v160006IiNS_18__default_init_tagEEEOT_OT0_, symObjAddr: 0x11460, symBinAddr: 0x100016C50, symSize: 0x40 }
  - { offsetInCU: 0x3309A, offset: 0x4AFA3, size: 0x8, addend: 0x0, symName: __ZNSt3__122__compressed_pair_elemINS_22__unordered_map_hasherIiNS_17__hash_value_typeIi4HostEENS_4hashIiEENS_8equal_toIiEELb1EEELi1ELb1EEC2B7v160006ENS_18__default_init_tagE, symObjAddr: 0x114A0, symBinAddr: 0x100016C90, symSize: 0x20 }
  - { offsetInCU: 0x330CD, offset: 0x4AFD6, size: 0x8, addend: 0x0, symName: __ZNSt3__122__unordered_map_hasherIiNS_17__hash_value_typeIi4HostEENS_4hashIiEENS_8equal_toIiEELb1EEC2B7v160006Ev, symObjAddr: 0x114C0, symBinAddr: 0x100016CB0, symSize: 0x10 }
  - { offsetInCU: 0x330F6, offset: 0x4AFFF, size: 0x8, addend: 0x0, symName: __ZNSt3__117__compressed_pairIfNS_21__unordered_map_equalIiNS_17__hash_value_typeIi4HostEENS_8equal_toIiEENS_4hashIiEELb1EEEEC2B7v160006IfNS_18__default_init_tagEEEOT_OT0_, symObjAddr: 0x114D0, symBinAddr: 0x100016CC0, symSize: 0x40 }
  - { offsetInCU: 0x3314D, offset: 0x4B056, size: 0x8, addend: 0x0, symName: __ZNSt3__122__compressed_pair_elemINS_21__unordered_map_equalIiNS_17__hash_value_typeIi4HostEENS_8equal_toIiEENS_4hashIiEELb1EEELi1ELb1EEC2B7v160006ENS_18__default_init_tagE, symObjAddr: 0x11510, symBinAddr: 0x100016D00, symSize: 0x20 }
  - { offsetInCU: 0x33180, offset: 0x4B089, size: 0x8, addend: 0x0, symName: __ZNSt3__121__unordered_map_equalIiNS_17__hash_value_typeIi4HostEENS_8equal_toIiEENS_4hashIiEELb1EEC2B7v160006Ev, symObjAddr: 0x11530, symBinAddr: 0x100016D20, symSize: 0x10 }
  - { offsetInCU: 0x331A9, offset: 0x4B0B2, size: 0x8, addend: 0x0, symName: __ZNSt3__113unordered_mapIi4HostNS_4hashIiEENS_8equal_toIiEENS_9allocatorINS_4pairIKiS1_EEEEED2B7v160006Ev, symObjAddr: 0x11540, symBinAddr: 0x100016D30, symSize: 0x20 }
  - { offsetInCU: 0x331D2, offset: 0x4B0DB, size: 0x8, addend: 0x0, symName: __ZNSt3__112__hash_tableINS_17__hash_value_typeIi4HostEENS_22__unordered_map_hasherIiS3_NS_4hashIiEENS_8equal_toIiEELb1EEENS_21__unordered_map_equalIiS3_S8_S6_Lb1EEENS_9allocatorIS3_EEED1Ev, symObjAddr: 0x11560, symBinAddr: 0x100016D50, symSize: 0x20 }
  - { offsetInCU: 0x331FD, offset: 0x4B106, size: 0x8, addend: 0x0, symName: __ZNSt3__112__hash_tableINS_17__hash_value_typeIi4HostEENS_22__unordered_map_hasherIiS3_NS_4hashIiEENS_8equal_toIiEELb1EEENS_21__unordered_map_equalIiS3_S8_S6_Lb1EEENS_9allocatorIS3_EEED2Ev, symObjAddr: 0x11580, symBinAddr: 0x100016D70, symSize: 0x50 }
  - { offsetInCU: 0x33228, offset: 0x4B131, size: 0x8, addend: 0x0, symName: __ZNSt3__112__hash_tableINS_17__hash_value_typeIi4HostEENS_22__unordered_map_hasherIiS3_NS_4hashIiEENS_8equal_toIiEELb1EEENS_21__unordered_map_equalIiS3_S8_S6_Lb1EEENS_9allocatorIS3_EEE17__deallocate_nodeEPNS_16__hash_node_baseIPNS_11__hash_nodeIS3_PvEEEE, symObjAddr: 0x115D0, symBinAddr: 0x100016DC0, symSize: 0xA0 }
  - { offsetInCU: 0x33291, offset: 0x4B19A, size: 0x8, addend: 0x0, symName: __ZNSt3__117__compressed_pairINS_16__hash_node_baseIPNS_11__hash_nodeINS_17__hash_value_typeIi4HostEEPvEEEENS_9allocatorIS7_EEE5firstB7v160006Ev, symObjAddr: 0x11670, symBinAddr: 0x100016E60, symSize: 0x20 }
  - { offsetInCU: 0x332B6, offset: 0x4B1BF, size: 0x8, addend: 0x0, symName: __ZNSt3__110unique_ptrIA_PNS_16__hash_node_baseIPNS_11__hash_nodeINS_17__hash_value_typeIi4HostEEPvEEEENS_25__bucket_list_deallocatorINS_9allocatorISA_EEEEED1B7v160006Ev, symObjAddr: 0x116A0, symBinAddr: 0x100016E90, symSize: 0x20 }
  - { offsetInCU: 0x332DF, offset: 0x4B1E8, size: 0x8, addend: 0x0, symName: __ZNSt3__112__hash_tableINS_17__hash_value_typeIi4HostEENS_22__unordered_map_hasherIiS3_NS_4hashIiEENS_8equal_toIiEELb1EEENS_21__unordered_map_equalIiS3_S8_S6_Lb1EEENS_9allocatorIS3_EEE12__node_allocB7v160006Ev, symObjAddr: 0x116C0, symBinAddr: 0x100016EB0, symSize: 0x20 }
  - { offsetInCU: 0x33304, offset: 0x4B20D, size: 0x8, addend: 0x0, symName: __ZNSt3__116__hash_node_baseIPNS_11__hash_nodeINS_17__hash_value_typeIi4HostEEPvEEE8__upcastB7v160006Ev, symObjAddr: 0x116E0, symBinAddr: 0x100016ED0, symSize: 0x20 }
  - { offsetInCU: 0x33329, offset: 0x4B232, size: 0x8, addend: 0x0, symName: __ZNSt3__116allocator_traitsINS_9allocatorINS_11__hash_nodeINS_17__hash_value_typeIi4HostEEPvEEEEE7destroyB7v160006INS_4pairIKiS4_EEvvEEvRS8_PT_, symObjAddr: 0x11700, symBinAddr: 0x100016EF0, symSize: 0x20 }
  - { offsetInCU: 0x33364, offset: 0x4B26D, size: 0x8, addend: 0x0, symName: __ZNSt3__122__hash_key_value_typesINS_17__hash_value_typeIi4HostEEE9__get_ptrB7v160006ERS3_, symObjAddr: 0x11720, symBinAddr: 0x100016F10, symSize: 0x20 }
  - { offsetInCU: 0x33387, offset: 0x4B290, size: 0x8, addend: 0x0, symName: __ZNSt3__116allocator_traitsINS_9allocatorINS_11__hash_nodeINS_17__hash_value_typeIi4HostEEPvEEEEE10deallocateB7v160006ERS8_PS7_m, symObjAddr: 0x11740, symBinAddr: 0x100016F30, symSize: 0x30 }
  - { offsetInCU: 0x333C9, offset: 0x4B2D2, size: 0x8, addend: 0x0, symName: __ZNSt3__117__compressed_pairINS_16__hash_node_baseIPNS_11__hash_nodeINS_17__hash_value_typeIi4HostEEPvEEEENS_9allocatorIS7_EEE6secondB7v160006Ev, symObjAddr: 0x11770, symBinAddr: 0x100016F60, symSize: 0x20 }
  - { offsetInCU: 0x333EE, offset: 0x4B2F7, size: 0x8, addend: 0x0, symName: __ZNSt3__122__compressed_pair_elemINS_9allocatorINS_11__hash_nodeINS_17__hash_value_typeIi4HostEEPvEEEELi1ELb1EE5__getB7v160006Ev, symObjAddr: 0x11790, symBinAddr: 0x100016F80, symSize: 0x10 }
  - { offsetInCU: 0x33413, offset: 0x4B31C, size: 0x8, addend: 0x0, symName: __ZNSt3__114pointer_traitsIPNS_16__hash_node_baseIPNS_11__hash_nodeINS_17__hash_value_typeIi4HostEEPvEEEEE10pointer_toB7v160006ERS9_, symObjAddr: 0x117A0, symBinAddr: 0x100016F90, symSize: 0x10 }
  - { offsetInCU: 0x33436, offset: 0x4B33F, size: 0x8, addend: 0x0, symName: __ZNSt3__14pairIKi4HostED1Ev, symObjAddr: 0x117F0, symBinAddr: 0x100016FE0, symSize: 0x20 }
  - { offsetInCU: 0x33461, offset: 0x4B36A, size: 0x8, addend: 0x0, symName: __ZNSt3__14pairIKi4HostED2Ev, symObjAddr: 0x11810, symBinAddr: 0x100017000, symSize: 0x20 }
  - { offsetInCU: 0x3348C, offset: 0x4B395, size: 0x8, addend: 0x0, symName: __ZNSt3__117__hash_value_typeIi4HostE11__get_valueB7v160006Ev, symObjAddr: 0x11830, symBinAddr: 0x100017020, symSize: 0x20 }
  - { offsetInCU: 0x334B1, offset: 0x4B3BA, size: 0x8, addend: 0x0, symName: __ZNSt3__19allocatorINS_11__hash_nodeINS_17__hash_value_typeIi4HostEEPvEEE10deallocateB7v160006EPS6_m, symObjAddr: 0x11880, symBinAddr: 0x100017070, symSize: 0x40 }
  - { offsetInCU: 0x334F2, offset: 0x4B3FB, size: 0x8, addend: 0x0, symName: __ZNSt3__122__compressed_pair_elemINS_16__hash_node_baseIPNS_11__hash_nodeINS_17__hash_value_typeIi4HostEEPvEEEELi0ELb0EE5__getB7v160006Ev, symObjAddr: 0x118C0, symBinAddr: 0x1000170B0, symSize: 0x10 }
  - { offsetInCU: 0x33517, offset: 0x4B420, size: 0x8, addend: 0x0, symName: __ZNSt3__110unique_ptrIA_PNS_16__hash_node_baseIPNS_11__hash_nodeINS_17__hash_value_typeIi4HostEEPvEEEENS_25__bucket_list_deallocatorINS_9allocatorISA_EEEEED2B7v160006Ev, symObjAddr: 0x118D0, symBinAddr: 0x1000170C0, symSize: 0x20 }
  - { offsetInCU: 0x33540, offset: 0x4B449, size: 0x8, addend: 0x0, symName: __ZNSt3__110unique_ptrIA_PNS_16__hash_node_baseIPNS_11__hash_nodeINS_17__hash_value_typeIi4HostEEPvEEEENS_25__bucket_list_deallocatorINS_9allocatorISA_EEEEE5resetB7v160006EDn, symObjAddr: 0x118F0, symBinAddr: 0x1000170E0, symSize: 0x60 }
  - { offsetInCU: 0x33580, offset: 0x4B489, size: 0x8, addend: 0x0, symName: __ZNSt3__117__compressed_pairIPPNS_16__hash_node_baseIPNS_11__hash_nodeINS_17__hash_value_typeIi4HostEEPvEEEENS_25__bucket_list_deallocatorINS_9allocatorISA_EEEEE5firstB7v160006Ev, symObjAddr: 0x11950, symBinAddr: 0x100017140, symSize: 0x20 }
  - { offsetInCU: 0x335A5, offset: 0x4B4AE, size: 0x8, addend: 0x0, symName: __ZNSt3__117__compressed_pairIPPNS_16__hash_node_baseIPNS_11__hash_nodeINS_17__hash_value_typeIi4HostEEPvEEEENS_25__bucket_list_deallocatorINS_9allocatorISA_EEEEE6secondB7v160006Ev, symObjAddr: 0x11970, symBinAddr: 0x100017160, symSize: 0x20 }
  - { offsetInCU: 0x335CA, offset: 0x4B4D3, size: 0x8, addend: 0x0, symName: __ZNSt3__125__bucket_list_deallocatorINS_9allocatorIPNS_16__hash_node_baseIPNS_11__hash_nodeINS_17__hash_value_typeIi4HostEEPvEEEEEEEclB7v160006EPSB_, symObjAddr: 0x11990, symBinAddr: 0x100017180, symSize: 0x50 }
  - { offsetInCU: 0x335FE, offset: 0x4B507, size: 0x8, addend: 0x0, symName: __ZNSt3__122__compressed_pair_elemIPPNS_16__hash_node_baseIPNS_11__hash_nodeINS_17__hash_value_typeIi4HostEEPvEEEELi0ELb0EE5__getB7v160006Ev, symObjAddr: 0x119E0, symBinAddr: 0x1000171D0, symSize: 0x10 }
  - { offsetInCU: 0x33623, offset: 0x4B52C, size: 0x8, addend: 0x0, symName: __ZNSt3__122__compressed_pair_elemINS_25__bucket_list_deallocatorINS_9allocatorIPNS_16__hash_node_baseIPNS_11__hash_nodeINS_17__hash_value_typeIi4HostEEPvEEEEEEEELi1ELb0EE5__getB7v160006Ev, symObjAddr: 0x119F0, symBinAddr: 0x1000171E0, symSize: 0x10 }
  - { offsetInCU: 0x33648, offset: 0x4B551, size: 0x8, addend: 0x0, symName: __ZNSt3__116allocator_traitsINS_9allocatorIPNS_16__hash_node_baseIPNS_11__hash_nodeINS_17__hash_value_typeIi4HostEEPvEEEEEEE10deallocateB7v160006ERSC_PSB_m, symObjAddr: 0x11A00, symBinAddr: 0x1000171F0, symSize: 0x30 }
  - { offsetInCU: 0x3368A, offset: 0x4B593, size: 0x8, addend: 0x0, symName: __ZNSt3__125__bucket_list_deallocatorINS_9allocatorIPNS_16__hash_node_baseIPNS_11__hash_nodeINS_17__hash_value_typeIi4HostEEPvEEEEEEE7__allocB7v160006Ev, symObjAddr: 0x11A30, symBinAddr: 0x100017220, symSize: 0x20 }
  - { offsetInCU: 0x336AF, offset: 0x4B5B8, size: 0x8, addend: 0x0, symName: __ZNSt3__125__bucket_list_deallocatorINS_9allocatorIPNS_16__hash_node_baseIPNS_11__hash_nodeINS_17__hash_value_typeIi4HostEEPvEEEEEEE4sizeB7v160006Ev, symObjAddr: 0x11A50, symBinAddr: 0x100017240, symSize: 0x20 }
  - { offsetInCU: 0x336D4, offset: 0x4B5DD, size: 0x8, addend: 0x0, symName: __ZNSt3__19allocatorIPNS_16__hash_node_baseIPNS_11__hash_nodeINS_17__hash_value_typeIi4HostEEPvEEEEE10deallocateB7v160006EPSA_m, symObjAddr: 0x11A70, symBinAddr: 0x100017260, symSize: 0x40 }
  - { offsetInCU: 0x33715, offset: 0x4B61E, size: 0x8, addend: 0x0, symName: __ZNSt3__117__compressed_pairImNS_9allocatorIPNS_16__hash_node_baseIPNS_11__hash_nodeINS_17__hash_value_typeIi4HostEEPvEEEEEEE6secondB7v160006Ev, symObjAddr: 0x11AB0, symBinAddr: 0x1000172A0, symSize: 0x20 }
  - { offsetInCU: 0x3373A, offset: 0x4B643, size: 0x8, addend: 0x0, symName: __ZNSt3__122__compressed_pair_elemINS_9allocatorIPNS_16__hash_node_baseIPNS_11__hash_nodeINS_17__hash_value_typeIi4HostEEPvEEEEEELi1ELb1EE5__getB7v160006Ev, symObjAddr: 0x11AD0, symBinAddr: 0x1000172C0, symSize: 0x10 }
  - { offsetInCU: 0x3375F, offset: 0x4B668, size: 0x8, addend: 0x0, symName: __ZNSt3__117__compressed_pairImNS_9allocatorIPNS_16__hash_node_baseIPNS_11__hash_nodeINS_17__hash_value_typeIi4HostEEPvEEEEEEE5firstB7v160006Ev, symObjAddr: 0x11AE0, symBinAddr: 0x1000172D0, symSize: 0x20 }
  - { offsetInCU: 0x33784, offset: 0x4B68D, size: 0x8, addend: 0x0, symName: __ZNSt3__113unordered_mapIi6SwitchNS_4hashIiEENS_8equal_toIiEENS_9allocatorINS_4pairIKiS1_EEEEEC2B7v160006Ev, symObjAddr: 0x11B00, symBinAddr: 0x1000172F0, symSize: 0x40 }
  - { offsetInCU: 0x337AD, offset: 0x4B6B6, size: 0x8, addend: 0x0, symName: __ZNSt3__112__hash_tableINS_17__hash_value_typeIi6SwitchEENS_22__unordered_map_hasherIiS3_NS_4hashIiEENS_8equal_toIiEELb1EEENS_21__unordered_map_equalIiS3_S8_S6_Lb1EEENS_9allocatorIS3_EEEC1Ev, symObjAddr: 0x11B40, symBinAddr: 0x100017330, symSize: 0x20 }
  - { offsetInCU: 0x337D8, offset: 0x4B6E1, size: 0x8, addend: 0x0, symName: __ZNSt3__112__hash_tableINS_17__hash_value_typeIi6SwitchEENS_22__unordered_map_hasherIiS3_NS_4hashIiEENS_8equal_toIiEELb1EEENS_21__unordered_map_equalIiS3_S8_S6_Lb1EEENS_9allocatorIS3_EEEC2Ev, symObjAddr: 0x11B70, symBinAddr: 0x100017360, symSize: 0x80 }
  - { offsetInCU: 0x33803, offset: 0x4B70C, size: 0x8, addend: 0x0, symName: __ZNSt3__110unique_ptrIA_PNS_16__hash_node_baseIPNS_11__hash_nodeINS_17__hash_value_typeIi6SwitchEEPvEEEENS_25__bucket_list_deallocatorINS_9allocatorISA_EEEEEC1B7v160006ILb1EvEEv, symObjAddr: 0x11BF0, symBinAddr: 0x1000173E0, symSize: 0x20 }
  - { offsetInCU: 0x33837, offset: 0x4B740, size: 0x8, addend: 0x0, symName: __ZNSt3__117__compressed_pairINS_16__hash_node_baseIPNS_11__hash_nodeINS_17__hash_value_typeIi6SwitchEEPvEEEENS_9allocatorIS7_EEEC1B7v160006ILb1EvEEv, symObjAddr: 0x11C10, symBinAddr: 0x100017400, symSize: 0x20 }
  - { offsetInCU: 0x3386B, offset: 0x4B774, size: 0x8, addend: 0x0, symName: __ZNSt3__117__compressed_pairImNS_22__unordered_map_hasherIiNS_17__hash_value_typeIi6SwitchEENS_4hashIiEENS_8equal_toIiEELb1EEEEC1B7v160006IiNS_18__default_init_tagEEEOT_OT0_, symObjAddr: 0x11C30, symBinAddr: 0x100017420, symSize: 0x30 }
  - { offsetInCU: 0x338C2, offset: 0x4B7CB, size: 0x8, addend: 0x0, symName: __ZNSt3__117__compressed_pairIfNS_21__unordered_map_equalIiNS_17__hash_value_typeIi6SwitchEENS_8equal_toIiEENS_4hashIiEELb1EEEEC1B7v160006IfNS_18__default_init_tagEEEOT_OT0_, symObjAddr: 0x11C60, symBinAddr: 0x100017450, symSize: 0x30 }
  - { offsetInCU: 0x33919, offset: 0x4B822, size: 0x8, addend: 0x0, symName: __ZNSt3__110unique_ptrIA_PNS_16__hash_node_baseIPNS_11__hash_nodeINS_17__hash_value_typeIi6SwitchEEPvEEEENS_25__bucket_list_deallocatorINS_9allocatorISA_EEEEEC2B7v160006ILb1EvEEv, symObjAddr: 0x11C90, symBinAddr: 0x100017480, symSize: 0x30 }
  - { offsetInCU: 0x3394D, offset: 0x4B856, size: 0x8, addend: 0x0, symName: __ZNSt3__117__compressed_pairIPPNS_16__hash_node_baseIPNS_11__hash_nodeINS_17__hash_value_typeIi6SwitchEEPvEEEENS_25__bucket_list_deallocatorINS_9allocatorISA_EEEEEC1B7v160006INS_16__value_init_tagESI_EEOT_OT0_, symObjAddr: 0x11CC0, symBinAddr: 0x1000174B0, symSize: 0x30 }
  - { offsetInCU: 0x339A4, offset: 0x4B8AD, size: 0x8, addend: 0x0, symName: __ZNSt3__117__compressed_pairIPPNS_16__hash_node_baseIPNS_11__hash_nodeINS_17__hash_value_typeIi6SwitchEEPvEEEENS_25__bucket_list_deallocatorINS_9allocatorISA_EEEEEC2B7v160006INS_16__value_init_tagESI_EEOT_OT0_, symObjAddr: 0x11CF0, symBinAddr: 0x1000174E0, symSize: 0x40 }
  - { offsetInCU: 0x339FB, offset: 0x4B904, size: 0x8, addend: 0x0, symName: __ZNSt3__122__compressed_pair_elemIPPNS_16__hash_node_baseIPNS_11__hash_nodeINS_17__hash_value_typeIi6SwitchEEPvEEEELi0ELb0EEC2B7v160006ENS_16__value_init_tagE, symObjAddr: 0x11D30, symBinAddr: 0x100017520, symSize: 0x20 }
  - { offsetInCU: 0x33A2E, offset: 0x4B937, size: 0x8, addend: 0x0, symName: __ZNSt3__122__compressed_pair_elemINS_25__bucket_list_deallocatorINS_9allocatorIPNS_16__hash_node_baseIPNS_11__hash_nodeINS_17__hash_value_typeIi6SwitchEEPvEEEEEEEELi1ELb0EEC2B7v160006ENS_16__value_init_tagE, symObjAddr: 0x11D50, symBinAddr: 0x100017540, symSize: 0x20 }
  - { offsetInCU: 0x33A61, offset: 0x4B96A, size: 0x8, addend: 0x0, symName: __ZNSt3__125__bucket_list_deallocatorINS_9allocatorIPNS_16__hash_node_baseIPNS_11__hash_nodeINS_17__hash_value_typeIi6SwitchEEPvEEEEEEEC1B7v160006Ev, symObjAddr: 0x11D70, symBinAddr: 0x100017560, symSize: 0x20 }
  - { offsetInCU: 0x33A8A, offset: 0x4B993, size: 0x8, addend: 0x0, symName: __ZNSt3__125__bucket_list_deallocatorINS_9allocatorIPNS_16__hash_node_baseIPNS_11__hash_nodeINS_17__hash_value_typeIi6SwitchEEPvEEEEEEEC2B7v160006Ev, symObjAddr: 0x11D90, symBinAddr: 0x100017580, symSize: 0x40 }
  - { offsetInCU: 0x33AB3, offset: 0x4B9BC, size: 0x8, addend: 0x0, symName: __ZNSt3__117__compressed_pairImNS_9allocatorIPNS_16__hash_node_baseIPNS_11__hash_nodeINS_17__hash_value_typeIi6SwitchEEPvEEEEEEEC1B7v160006IiNS_18__default_init_tagEEEOT_OT0_, symObjAddr: 0x11DD0, symBinAddr: 0x1000175C0, symSize: 0x30 }
  - { offsetInCU: 0x33B0A, offset: 0x4BA13, size: 0x8, addend: 0x0, symName: __ZNSt3__117__compressed_pairImNS_9allocatorIPNS_16__hash_node_baseIPNS_11__hash_nodeINS_17__hash_value_typeIi6SwitchEEPvEEEEEEEC2B7v160006IiNS_18__default_init_tagEEEOT_OT0_, symObjAddr: 0x11E00, symBinAddr: 0x1000175F0, symSize: 0x40 }
  - { offsetInCU: 0x33B61, offset: 0x4BA6A, size: 0x8, addend: 0x0, symName: __ZNSt3__122__compressed_pair_elemINS_9allocatorIPNS_16__hash_node_baseIPNS_11__hash_nodeINS_17__hash_value_typeIi6SwitchEEPvEEEEEELi1ELb1EEC2B7v160006ENS_18__default_init_tagE, symObjAddr: 0x11E40, symBinAddr: 0x100017630, symSize: 0x20 }
  - { offsetInCU: 0x33B94, offset: 0x4BA9D, size: 0x8, addend: 0x0, symName: __ZNSt3__19allocatorIPNS_16__hash_node_baseIPNS_11__hash_nodeINS_17__hash_value_typeIi6SwitchEEPvEEEEEC2B7v160006Ev, symObjAddr: 0x11E60, symBinAddr: 0x100017650, symSize: 0x20 }
  - { offsetInCU: 0x33BBD, offset: 0x4BAC6, size: 0x8, addend: 0x0, symName: __ZNSt3__116__non_trivial_ifILb1ENS_9allocatorIPNS_16__hash_node_baseIPNS_11__hash_nodeINS_17__hash_value_typeIi6SwitchEEPvEEEEEEEC2B7v160006Ev, symObjAddr: 0x11E80, symBinAddr: 0x100017670, symSize: 0x10 }
  - { offsetInCU: 0x33BE6, offset: 0x4BAEF, size: 0x8, addend: 0x0, symName: __ZNSt3__117__compressed_pairINS_16__hash_node_baseIPNS_11__hash_nodeINS_17__hash_value_typeIi6SwitchEEPvEEEENS_9allocatorIS7_EEEC2B7v160006ILb1EvEEv, symObjAddr: 0x11E90, symBinAddr: 0x100017680, symSize: 0x30 }
  - { offsetInCU: 0x33C1A, offset: 0x4BB23, size: 0x8, addend: 0x0, symName: __ZNSt3__122__compressed_pair_elemINS_16__hash_node_baseIPNS_11__hash_nodeINS_17__hash_value_typeIi6SwitchEEPvEEEELi0ELb0EEC2B7v160006ENS_16__value_init_tagE, symObjAddr: 0x11EC0, symBinAddr: 0x1000176B0, symSize: 0x20 }
  - { offsetInCU: 0x33C4D, offset: 0x4BB56, size: 0x8, addend: 0x0, symName: __ZNSt3__122__compressed_pair_elemINS_9allocatorINS_11__hash_nodeINS_17__hash_value_typeIi6SwitchEEPvEEEELi1ELb1EEC2B7v160006ENS_16__value_init_tagE, symObjAddr: 0x11EE0, symBinAddr: 0x1000176D0, symSize: 0x20 }
  - { offsetInCU: 0x33C80, offset: 0x4BB89, size: 0x8, addend: 0x0, symName: __ZNSt3__116__hash_node_baseIPNS_11__hash_nodeINS_17__hash_value_typeIi6SwitchEEPvEEEC1B7v160006Ev, symObjAddr: 0x11F00, symBinAddr: 0x1000176F0, symSize: 0x20 }
  - { offsetInCU: 0x33CA9, offset: 0x4BBB2, size: 0x8, addend: 0x0, symName: __ZNSt3__116__hash_node_baseIPNS_11__hash_nodeINS_17__hash_value_typeIi6SwitchEEPvEEEC2B7v160006Ev, symObjAddr: 0x11F20, symBinAddr: 0x100017710, symSize: 0x20 }
  - { offsetInCU: 0x33CD2, offset: 0x4BBDB, size: 0x8, addend: 0x0, symName: __ZNSt3__19allocatorINS_11__hash_nodeINS_17__hash_value_typeIi6SwitchEEPvEEEC2B7v160006Ev, symObjAddr: 0x11F40, symBinAddr: 0x100017730, symSize: 0x20 }
  - { offsetInCU: 0x33CFB, offset: 0x4BC04, size: 0x8, addend: 0x0, symName: __ZNSt3__116__non_trivial_ifILb1ENS_9allocatorINS_11__hash_nodeINS_17__hash_value_typeIi6SwitchEEPvEEEEEC2B7v160006Ev, symObjAddr: 0x11F60, symBinAddr: 0x100017750, symSize: 0x10 }
  - { offsetInCU: 0x33D24, offset: 0x4BC2D, size: 0x8, addend: 0x0, symName: __ZNSt3__117__compressed_pairImNS_22__unordered_map_hasherIiNS_17__hash_value_typeIi6SwitchEENS_4hashIiEENS_8equal_toIiEELb1EEEEC2B7v160006IiNS_18__default_init_tagEEEOT_OT0_, symObjAddr: 0x11F70, symBinAddr: 0x100017760, symSize: 0x40 }
  - { offsetInCU: 0x33D7B, offset: 0x4BC84, size: 0x8, addend: 0x0, symName: __ZNSt3__122__compressed_pair_elemINS_22__unordered_map_hasherIiNS_17__hash_value_typeIi6SwitchEENS_4hashIiEENS_8equal_toIiEELb1EEELi1ELb1EEC2B7v160006ENS_18__default_init_tagE, symObjAddr: 0x11FB0, symBinAddr: 0x1000177A0, symSize: 0x20 }
  - { offsetInCU: 0x33DAE, offset: 0x4BCB7, size: 0x8, addend: 0x0, symName: __ZNSt3__122__unordered_map_hasherIiNS_17__hash_value_typeIi6SwitchEENS_4hashIiEENS_8equal_toIiEELb1EEC2B7v160006Ev, symObjAddr: 0x11FD0, symBinAddr: 0x1000177C0, symSize: 0x10 }
  - { offsetInCU: 0x33DD7, offset: 0x4BCE0, size: 0x8, addend: 0x0, symName: __ZNSt3__117__compressed_pairIfNS_21__unordered_map_equalIiNS_17__hash_value_typeIi6SwitchEENS_8equal_toIiEENS_4hashIiEELb1EEEEC2B7v160006IfNS_18__default_init_tagEEEOT_OT0_, symObjAddr: 0x11FE0, symBinAddr: 0x1000177D0, symSize: 0x40 }
  - { offsetInCU: 0x33E2E, offset: 0x4BD37, size: 0x8, addend: 0x0, symName: __ZNSt3__122__compressed_pair_elemINS_21__unordered_map_equalIiNS_17__hash_value_typeIi6SwitchEENS_8equal_toIiEENS_4hashIiEELb1EEELi1ELb1EEC2B7v160006ENS_18__default_init_tagE, symObjAddr: 0x12020, symBinAddr: 0x100017810, symSize: 0x20 }
  - { offsetInCU: 0x33E61, offset: 0x4BD6A, size: 0x8, addend: 0x0, symName: __ZNSt3__121__unordered_map_equalIiNS_17__hash_value_typeIi6SwitchEENS_8equal_toIiEENS_4hashIiEELb1EEC2B7v160006Ev, symObjAddr: 0x12040, symBinAddr: 0x100017830, symSize: 0x10 }
  - { offsetInCU: 0x33E8A, offset: 0x4BD93, size: 0x8, addend: 0x0, symName: __ZNSt3__113unordered_mapIi6SwitchNS_4hashIiEENS_8equal_toIiEENS_9allocatorINS_4pairIKiS1_EEEEED2B7v160006Ev, symObjAddr: 0x12050, symBinAddr: 0x100017840, symSize: 0x20 }
  - { offsetInCU: 0x33EB3, offset: 0x4BDBC, size: 0x8, addend: 0x0, symName: __ZNSt3__112__hash_tableINS_17__hash_value_typeIi6SwitchEENS_22__unordered_map_hasherIiS3_NS_4hashIiEENS_8equal_toIiEELb1EEENS_21__unordered_map_equalIiS3_S8_S6_Lb1EEENS_9allocatorIS3_EEED1Ev, symObjAddr: 0x12070, symBinAddr: 0x100017860, symSize: 0x20 }
  - { offsetInCU: 0x33EDE, offset: 0x4BDE7, size: 0x8, addend: 0x0, symName: __ZNSt3__112__hash_tableINS_17__hash_value_typeIi6SwitchEENS_22__unordered_map_hasherIiS3_NS_4hashIiEENS_8equal_toIiEELb1EEENS_21__unordered_map_equalIiS3_S8_S6_Lb1EEENS_9allocatorIS3_EEED2Ev, symObjAddr: 0x12090, symBinAddr: 0x100017880, symSize: 0x50 }
  - { offsetInCU: 0x33F09, offset: 0x4BE12, size: 0x8, addend: 0x0, symName: __ZNSt3__112__hash_tableINS_17__hash_value_typeIi6SwitchEENS_22__unordered_map_hasherIiS3_NS_4hashIiEENS_8equal_toIiEELb1EEENS_21__unordered_map_equalIiS3_S8_S6_Lb1EEENS_9allocatorIS3_EEE17__deallocate_nodeEPNS_16__hash_node_baseIPNS_11__hash_nodeIS3_PvEEEE, symObjAddr: 0x120E0, symBinAddr: 0x1000178D0, symSize: 0xA0 }
  - { offsetInCU: 0x33F72, offset: 0x4BE7B, size: 0x8, addend: 0x0, symName: __ZNSt3__117__compressed_pairINS_16__hash_node_baseIPNS_11__hash_nodeINS_17__hash_value_typeIi6SwitchEEPvEEEENS_9allocatorIS7_EEE5firstB7v160006Ev, symObjAddr: 0x12180, symBinAddr: 0x100017970, symSize: 0x20 }
  - { offsetInCU: 0x33F97, offset: 0x4BEA0, size: 0x8, addend: 0x0, symName: __ZNSt3__110unique_ptrIA_PNS_16__hash_node_baseIPNS_11__hash_nodeINS_17__hash_value_typeIi6SwitchEEPvEEEENS_25__bucket_list_deallocatorINS_9allocatorISA_EEEEED1B7v160006Ev, symObjAddr: 0x121B0, symBinAddr: 0x1000179A0, symSize: 0x20 }
  - { offsetInCU: 0x33FC0, offset: 0x4BEC9, size: 0x8, addend: 0x0, symName: __ZNSt3__112__hash_tableINS_17__hash_value_typeIi6SwitchEENS_22__unordered_map_hasherIiS3_NS_4hashIiEENS_8equal_toIiEELb1EEENS_21__unordered_map_equalIiS3_S8_S6_Lb1EEENS_9allocatorIS3_EEE12__node_allocB7v160006Ev, symObjAddr: 0x121D0, symBinAddr: 0x1000179C0, symSize: 0x20 }
  - { offsetInCU: 0x33FE5, offset: 0x4BEEE, size: 0x8, addend: 0x0, symName: __ZNSt3__116__hash_node_baseIPNS_11__hash_nodeINS_17__hash_value_typeIi6SwitchEEPvEEE8__upcastB7v160006Ev, symObjAddr: 0x121F0, symBinAddr: 0x1000179E0, symSize: 0x20 }
  - { offsetInCU: 0x3400A, offset: 0x4BF13, size: 0x8, addend: 0x0, symName: __ZNSt3__116allocator_traitsINS_9allocatorINS_11__hash_nodeINS_17__hash_value_typeIi6SwitchEEPvEEEEE7destroyB7v160006INS_4pairIKiS4_EEvvEEvRS8_PT_, symObjAddr: 0x12210, symBinAddr: 0x100017A00, symSize: 0x20 }
  - { offsetInCU: 0x34045, offset: 0x4BF4E, size: 0x8, addend: 0x0, symName: __ZNSt3__122__hash_key_value_typesINS_17__hash_value_typeIi6SwitchEEE9__get_ptrB7v160006ERS3_, symObjAddr: 0x12230, symBinAddr: 0x100017A20, symSize: 0x20 }
  - { offsetInCU: 0x34068, offset: 0x4BF71, size: 0x8, addend: 0x0, symName: __ZNSt3__116allocator_traitsINS_9allocatorINS_11__hash_nodeINS_17__hash_value_typeIi6SwitchEEPvEEEEE10deallocateB7v160006ERS8_PS7_m, symObjAddr: 0x12250, symBinAddr: 0x100017A40, symSize: 0x30 }
  - { offsetInCU: 0x340AA, offset: 0x4BFB3, size: 0x8, addend: 0x0, symName: __ZNSt3__117__compressed_pairINS_16__hash_node_baseIPNS_11__hash_nodeINS_17__hash_value_typeIi6SwitchEEPvEEEENS_9allocatorIS7_EEE6secondB7v160006Ev, symObjAddr: 0x12280, symBinAddr: 0x100017A70, symSize: 0x20 }
  - { offsetInCU: 0x340CF, offset: 0x4BFD8, size: 0x8, addend: 0x0, symName: __ZNSt3__122__compressed_pair_elemINS_9allocatorINS_11__hash_nodeINS_17__hash_value_typeIi6SwitchEEPvEEEELi1ELb1EE5__getB7v160006Ev, symObjAddr: 0x122A0, symBinAddr: 0x100017A90, symSize: 0x10 }
  - { offsetInCU: 0x340F4, offset: 0x4BFFD, size: 0x8, addend: 0x0, symName: __ZNSt3__114pointer_traitsIPNS_16__hash_node_baseIPNS_11__hash_nodeINS_17__hash_value_typeIi6SwitchEEPvEEEEE10pointer_toB7v160006ERS9_, symObjAddr: 0x122B0, symBinAddr: 0x100017AA0, symSize: 0x10 }
  - { offsetInCU: 0x34117, offset: 0x4C020, size: 0x8, addend: 0x0, symName: __ZNSt3__14pairIKi6SwitchED1Ev, symObjAddr: 0x12300, symBinAddr: 0x100017AF0, symSize: 0x20 }
  - { offsetInCU: 0x34142, offset: 0x4C04B, size: 0x8, addend: 0x0, symName: __ZNSt3__14pairIKi6SwitchED2Ev, symObjAddr: 0x12320, symBinAddr: 0x100017B10, symSize: 0x20 }
  - { offsetInCU: 0x3416D, offset: 0x4C076, size: 0x8, addend: 0x0, symName: __ZNSt3__117__hash_value_typeIi6SwitchE11__get_valueB7v160006Ev, symObjAddr: 0x12340, symBinAddr: 0x100017B30, symSize: 0x20 }
  - { offsetInCU: 0x34192, offset: 0x4C09B, size: 0x8, addend: 0x0, symName: __ZNSt3__19allocatorINS_11__hash_nodeINS_17__hash_value_typeIi6SwitchEEPvEEE10deallocateB7v160006EPS6_m, symObjAddr: 0x12390, symBinAddr: 0x100017B80, symSize: 0x50 }
  - { offsetInCU: 0x341D3, offset: 0x4C0DC, size: 0x8, addend: 0x0, symName: __ZNSt3__122__compressed_pair_elemINS_16__hash_node_baseIPNS_11__hash_nodeINS_17__hash_value_typeIi6SwitchEEPvEEEELi0ELb0EE5__getB7v160006Ev, symObjAddr: 0x123E0, symBinAddr: 0x100017BD0, symSize: 0x10 }
  - { offsetInCU: 0x341F8, offset: 0x4C101, size: 0x8, addend: 0x0, symName: __ZNSt3__110unique_ptrIA_PNS_16__hash_node_baseIPNS_11__hash_nodeINS_17__hash_value_typeIi6SwitchEEPvEEEENS_25__bucket_list_deallocatorINS_9allocatorISA_EEEEED2B7v160006Ev, symObjAddr: 0x123F0, symBinAddr: 0x100017BE0, symSize: 0x20 }
  - { offsetInCU: 0x34221, offset: 0x4C12A, size: 0x8, addend: 0x0, symName: __ZNSt3__110unique_ptrIA_PNS_16__hash_node_baseIPNS_11__hash_nodeINS_17__hash_value_typeIi6SwitchEEPvEEEENS_25__bucket_list_deallocatorINS_9allocatorISA_EEEEE5resetB7v160006EDn, symObjAddr: 0x12410, symBinAddr: 0x100017C00, symSize: 0x60 }
  - { offsetInCU: 0x34261, offset: 0x4C16A, size: 0x8, addend: 0x0, symName: __ZNSt3__117__compressed_pairIPPNS_16__hash_node_baseIPNS_11__hash_nodeINS_17__hash_value_typeIi6SwitchEEPvEEEENS_25__bucket_list_deallocatorINS_9allocatorISA_EEEEE5firstB7v160006Ev, symObjAddr: 0x12470, symBinAddr: 0x100017C60, symSize: 0x20 }
  - { offsetInCU: 0x34286, offset: 0x4C18F, size: 0x8, addend: 0x0, symName: __ZNSt3__117__compressed_pairIPPNS_16__hash_node_baseIPNS_11__hash_nodeINS_17__hash_value_typeIi6SwitchEEPvEEEENS_25__bucket_list_deallocatorINS_9allocatorISA_EEEEE6secondB7v160006Ev, symObjAddr: 0x12490, symBinAddr: 0x100017C80, symSize: 0x20 }
  - { offsetInCU: 0x342AB, offset: 0x4C1B4, size: 0x8, addend: 0x0, symName: __ZNSt3__125__bucket_list_deallocatorINS_9allocatorIPNS_16__hash_node_baseIPNS_11__hash_nodeINS_17__hash_value_typeIi6SwitchEEPvEEEEEEEclB7v160006EPSB_, symObjAddr: 0x124B0, symBinAddr: 0x100017CA0, symSize: 0x50 }
  - { offsetInCU: 0x342DF, offset: 0x4C1E8, size: 0x8, addend: 0x0, symName: __ZNSt3__122__compressed_pair_elemIPPNS_16__hash_node_baseIPNS_11__hash_nodeINS_17__hash_value_typeIi6SwitchEEPvEEEELi0ELb0EE5__getB7v160006Ev, symObjAddr: 0x12500, symBinAddr: 0x100017CF0, symSize: 0x10 }
  - { offsetInCU: 0x34304, offset: 0x4C20D, size: 0x8, addend: 0x0, symName: __ZNSt3__122__compressed_pair_elemINS_25__bucket_list_deallocatorINS_9allocatorIPNS_16__hash_node_baseIPNS_11__hash_nodeINS_17__hash_value_typeIi6SwitchEEPvEEEEEEEELi1ELb0EE5__getB7v160006Ev, symObjAddr: 0x12510, symBinAddr: 0x100017D00, symSize: 0x10 }
  - { offsetInCU: 0x34329, offset: 0x4C232, size: 0x8, addend: 0x0, symName: __ZNSt3__116allocator_traitsINS_9allocatorIPNS_16__hash_node_baseIPNS_11__hash_nodeINS_17__hash_value_typeIi6SwitchEEPvEEEEEEE10deallocateB7v160006ERSC_PSB_m, symObjAddr: 0x12520, symBinAddr: 0x100017D10, symSize: 0x30 }
  - { offsetInCU: 0x3436B, offset: 0x4C274, size: 0x8, addend: 0x0, symName: __ZNSt3__125__bucket_list_deallocatorINS_9allocatorIPNS_16__hash_node_baseIPNS_11__hash_nodeINS_17__hash_value_typeIi6SwitchEEPvEEEEEEE7__allocB7v160006Ev, symObjAddr: 0x12550, symBinAddr: 0x100017D40, symSize: 0x20 }
  - { offsetInCU: 0x34390, offset: 0x4C299, size: 0x8, addend: 0x0, symName: __ZNSt3__125__bucket_list_deallocatorINS_9allocatorIPNS_16__hash_node_baseIPNS_11__hash_nodeINS_17__hash_value_typeIi6SwitchEEPvEEEEEEE4sizeB7v160006Ev, symObjAddr: 0x12570, symBinAddr: 0x100017D60, symSize: 0x20 }
  - { offsetInCU: 0x343B5, offset: 0x4C2BE, size: 0x8, addend: 0x0, symName: __ZNSt3__19allocatorIPNS_16__hash_node_baseIPNS_11__hash_nodeINS_17__hash_value_typeIi6SwitchEEPvEEEEE10deallocateB7v160006EPSA_m, symObjAddr: 0x12590, symBinAddr: 0x100017D80, symSize: 0x40 }
  - { offsetInCU: 0x343F6, offset: 0x4C2FF, size: 0x8, addend: 0x0, symName: __ZNSt3__117__compressed_pairImNS_9allocatorIPNS_16__hash_node_baseIPNS_11__hash_nodeINS_17__hash_value_typeIi6SwitchEEPvEEEEEEE6secondB7v160006Ev, symObjAddr: 0x125D0, symBinAddr: 0x100017DC0, symSize: 0x20 }
  - { offsetInCU: 0x3441B, offset: 0x4C324, size: 0x8, addend: 0x0, symName: __ZNSt3__122__compressed_pair_elemINS_9allocatorIPNS_16__hash_node_baseIPNS_11__hash_nodeINS_17__hash_value_typeIi6SwitchEEPvEEEEEELi1ELb1EE5__getB7v160006Ev, symObjAddr: 0x125F0, symBinAddr: 0x100017DE0, symSize: 0x10 }
  - { offsetInCU: 0x34440, offset: 0x4C349, size: 0x8, addend: 0x0, symName: __ZNSt3__117__compressed_pairImNS_9allocatorIPNS_16__hash_node_baseIPNS_11__hash_nodeINS_17__hash_value_typeIi6SwitchEEPvEEEEEEE5firstB7v160006Ev, symObjAddr: 0x12600, symBinAddr: 0x100017DF0, symSize: 0x20 }
  - { offsetInCU: 0x34465, offset: 0x4C36E, size: 0x8, addend: 0x0, symName: __ZNSt3__113unordered_mapIiNS_5mutexENS_4hashIiEENS_8equal_toIiEENS_9allocatorINS_4pairIKiS1_EEEEEC2B7v160006Ev, symObjAddr: 0x12620, symBinAddr: 0x100017E10, symSize: 0x40 }
  - { offsetInCU: 0x3448E, offset: 0x4C397, size: 0x8, addend: 0x0, symName: __ZNSt3__112__hash_tableINS_17__hash_value_typeIiNS_5mutexEEENS_22__unordered_map_hasherIiS3_NS_4hashIiEENS_8equal_toIiEELb1EEENS_21__unordered_map_equalIiS3_S8_S6_Lb1EEENS_9allocatorIS3_EEEC1Ev, symObjAddr: 0x12660, symBinAddr: 0x100017E50, symSize: 0x20 }
  - { offsetInCU: 0x344B9, offset: 0x4C3C2, size: 0x8, addend: 0x0, symName: __ZNSt3__112__hash_tableINS_17__hash_value_typeIiNS_5mutexEEENS_22__unordered_map_hasherIiS3_NS_4hashIiEENS_8equal_toIiEELb1EEENS_21__unordered_map_equalIiS3_S8_S6_Lb1EEENS_9allocatorIS3_EEEC2Ev, symObjAddr: 0x12690, symBinAddr: 0x100017E80, symSize: 0x80 }
  - { offsetInCU: 0x344E4, offset: 0x4C3ED, size: 0x8, addend: 0x0, symName: __ZNSt3__110unique_ptrIA_PNS_16__hash_node_baseIPNS_11__hash_nodeINS_17__hash_value_typeIiNS_5mutexEEEPvEEEENS_25__bucket_list_deallocatorINS_9allocatorISA_EEEEEC1B7v160006ILb1EvEEv, symObjAddr: 0x12710, symBinAddr: 0x100017F00, symSize: 0x20 }
  - { offsetInCU: 0x34518, offset: 0x4C421, size: 0x8, addend: 0x0, symName: __ZNSt3__117__compressed_pairINS_16__hash_node_baseIPNS_11__hash_nodeINS_17__hash_value_typeIiNS_5mutexEEEPvEEEENS_9allocatorIS7_EEEC1B7v160006ILb1EvEEv, symObjAddr: 0x12730, symBinAddr: 0x100017F20, symSize: 0x20 }
  - { offsetInCU: 0x3454C, offset: 0x4C455, size: 0x8, addend: 0x0, symName: __ZNSt3__117__compressed_pairImNS_22__unordered_map_hasherIiNS_17__hash_value_typeIiNS_5mutexEEENS_4hashIiEENS_8equal_toIiEELb1EEEEC1B7v160006IiNS_18__default_init_tagEEEOT_OT0_, symObjAddr: 0x12750, symBinAddr: 0x100017F40, symSize: 0x30 }
  - { offsetInCU: 0x345A3, offset: 0x4C4AC, size: 0x8, addend: 0x0, symName: __ZNSt3__117__compressed_pairIfNS_21__unordered_map_equalIiNS_17__hash_value_typeIiNS_5mutexEEENS_8equal_toIiEENS_4hashIiEELb1EEEEC1B7v160006IfNS_18__default_init_tagEEEOT_OT0_, symObjAddr: 0x12780, symBinAddr: 0x100017F70, symSize: 0x30 }
  - { offsetInCU: 0x345FA, offset: 0x4C503, size: 0x8, addend: 0x0, symName: __ZNSt3__110unique_ptrIA_PNS_16__hash_node_baseIPNS_11__hash_nodeINS_17__hash_value_typeIiNS_5mutexEEEPvEEEENS_25__bucket_list_deallocatorINS_9allocatorISA_EEEEEC2B7v160006ILb1EvEEv, symObjAddr: 0x127B0, symBinAddr: 0x100017FA0, symSize: 0x30 }
  - { offsetInCU: 0x3462E, offset: 0x4C537, size: 0x8, addend: 0x0, symName: __ZNSt3__117__compressed_pairIPPNS_16__hash_node_baseIPNS_11__hash_nodeINS_17__hash_value_typeIiNS_5mutexEEEPvEEEENS_25__bucket_list_deallocatorINS_9allocatorISA_EEEEEC1B7v160006INS_16__value_init_tagESI_EEOT_OT0_, symObjAddr: 0x127E0, symBinAddr: 0x100017FD0, symSize: 0x30 }
  - { offsetInCU: 0x34685, offset: 0x4C58E, size: 0x8, addend: 0x0, symName: __ZNSt3__117__compressed_pairIPPNS_16__hash_node_baseIPNS_11__hash_nodeINS_17__hash_value_typeIiNS_5mutexEEEPvEEEENS_25__bucket_list_deallocatorINS_9allocatorISA_EEEEEC2B7v160006INS_16__value_init_tagESI_EEOT_OT0_, symObjAddr: 0x12810, symBinAddr: 0x100018000, symSize: 0x40 }
  - { offsetInCU: 0x346DC, offset: 0x4C5E5, size: 0x8, addend: 0x0, symName: __ZNSt3__122__compressed_pair_elemIPPNS_16__hash_node_baseIPNS_11__hash_nodeINS_17__hash_value_typeIiNS_5mutexEEEPvEEEELi0ELb0EEC2B7v160006ENS_16__value_init_tagE, symObjAddr: 0x12850, symBinAddr: 0x100018040, symSize: 0x20 }
  - { offsetInCU: 0x3470F, offset: 0x4C618, size: 0x8, addend: 0x0, symName: __ZNSt3__122__compressed_pair_elemINS_25__bucket_list_deallocatorINS_9allocatorIPNS_16__hash_node_baseIPNS_11__hash_nodeINS_17__hash_value_typeIiNS_5mutexEEEPvEEEEEEEELi1ELb0EEC2B7v160006ENS_16__value_init_tagE, symObjAddr: 0x12870, symBinAddr: 0x100018060, symSize: 0x20 }
  - { offsetInCU: 0x34742, offset: 0x4C64B, size: 0x8, addend: 0x0, symName: __ZNSt3__125__bucket_list_deallocatorINS_9allocatorIPNS_16__hash_node_baseIPNS_11__hash_nodeINS_17__hash_value_typeIiNS_5mutexEEEPvEEEEEEEC1B7v160006Ev, symObjAddr: 0x12890, symBinAddr: 0x100018080, symSize: 0x20 }
  - { offsetInCU: 0x3476B, offset: 0x4C674, size: 0x8, addend: 0x0, symName: __ZNSt3__125__bucket_list_deallocatorINS_9allocatorIPNS_16__hash_node_baseIPNS_11__hash_nodeINS_17__hash_value_typeIiNS_5mutexEEEPvEEEEEEEC2B7v160006Ev, symObjAddr: 0x128B0, symBinAddr: 0x1000180A0, symSize: 0x40 }
  - { offsetInCU: 0x34794, offset: 0x4C69D, size: 0x8, addend: 0x0, symName: __ZNSt3__117__compressed_pairImNS_9allocatorIPNS_16__hash_node_baseIPNS_11__hash_nodeINS_17__hash_value_typeIiNS_5mutexEEEPvEEEEEEEC1B7v160006IiNS_18__default_init_tagEEEOT_OT0_, symObjAddr: 0x128F0, symBinAddr: 0x1000180E0, symSize: 0x30 }
  - { offsetInCU: 0x347EB, offset: 0x4C6F4, size: 0x8, addend: 0x0, symName: __ZNSt3__117__compressed_pairImNS_9allocatorIPNS_16__hash_node_baseIPNS_11__hash_nodeINS_17__hash_value_typeIiNS_5mutexEEEPvEEEEEEEC2B7v160006IiNS_18__default_init_tagEEEOT_OT0_, symObjAddr: 0x12920, symBinAddr: 0x100018110, symSize: 0x40 }
  - { offsetInCU: 0x34842, offset: 0x4C74B, size: 0x8, addend: 0x0, symName: __ZNSt3__122__compressed_pair_elemINS_9allocatorIPNS_16__hash_node_baseIPNS_11__hash_nodeINS_17__hash_value_typeIiNS_5mutexEEEPvEEEEEELi1ELb1EEC2B7v160006ENS_18__default_init_tagE, symObjAddr: 0x12960, symBinAddr: 0x100018150, symSize: 0x20 }
  - { offsetInCU: 0x34875, offset: 0x4C77E, size: 0x8, addend: 0x0, symName: __ZNSt3__19allocatorIPNS_16__hash_node_baseIPNS_11__hash_nodeINS_17__hash_value_typeIiNS_5mutexEEEPvEEEEEC2B7v160006Ev, symObjAddr: 0x12980, symBinAddr: 0x100018170, symSize: 0x20 }
  - { offsetInCU: 0x3489E, offset: 0x4C7A7, size: 0x8, addend: 0x0, symName: __ZNSt3__116__non_trivial_ifILb1ENS_9allocatorIPNS_16__hash_node_baseIPNS_11__hash_nodeINS_17__hash_value_typeIiNS_5mutexEEEPvEEEEEEEC2B7v160006Ev, symObjAddr: 0x129A0, symBinAddr: 0x100018190, symSize: 0x10 }
  - { offsetInCU: 0x348C7, offset: 0x4C7D0, size: 0x8, addend: 0x0, symName: __ZNSt3__117__compressed_pairINS_16__hash_node_baseIPNS_11__hash_nodeINS_17__hash_value_typeIiNS_5mutexEEEPvEEEENS_9allocatorIS7_EEEC2B7v160006ILb1EvEEv, symObjAddr: 0x129B0, symBinAddr: 0x1000181A0, symSize: 0x30 }
  - { offsetInCU: 0x348FB, offset: 0x4C804, size: 0x8, addend: 0x0, symName: __ZNSt3__122__compressed_pair_elemINS_16__hash_node_baseIPNS_11__hash_nodeINS_17__hash_value_typeIiNS_5mutexEEEPvEEEELi0ELb0EEC2B7v160006ENS_16__value_init_tagE, symObjAddr: 0x129E0, symBinAddr: 0x1000181D0, symSize: 0x20 }
  - { offsetInCU: 0x3492E, offset: 0x4C837, size: 0x8, addend: 0x0, symName: __ZNSt3__122__compressed_pair_elemINS_9allocatorINS_11__hash_nodeINS_17__hash_value_typeIiNS_5mutexEEEPvEEEELi1ELb1EEC2B7v160006ENS_16__value_init_tagE, symObjAddr: 0x12A00, symBinAddr: 0x1000181F0, symSize: 0x20 }
  - { offsetInCU: 0x34961, offset: 0x4C86A, size: 0x8, addend: 0x0, symName: __ZNSt3__116__hash_node_baseIPNS_11__hash_nodeINS_17__hash_value_typeIiNS_5mutexEEEPvEEEC1B7v160006Ev, symObjAddr: 0x12A20, symBinAddr: 0x100018210, symSize: 0x20 }
  - { offsetInCU: 0x3498A, offset: 0x4C893, size: 0x8, addend: 0x0, symName: __ZNSt3__116__hash_node_baseIPNS_11__hash_nodeINS_17__hash_value_typeIiNS_5mutexEEEPvEEEC2B7v160006Ev, symObjAddr: 0x12A40, symBinAddr: 0x100018230, symSize: 0x20 }
  - { offsetInCU: 0x349B3, offset: 0x4C8BC, size: 0x8, addend: 0x0, symName: __ZNSt3__19allocatorINS_11__hash_nodeINS_17__hash_value_typeIiNS_5mutexEEEPvEEEC2B7v160006Ev, symObjAddr: 0x12A60, symBinAddr: 0x100018250, symSize: 0x20 }
  - { offsetInCU: 0x349DC, offset: 0x4C8E5, size: 0x8, addend: 0x0, symName: __ZNSt3__116__non_trivial_ifILb1ENS_9allocatorINS_11__hash_nodeINS_17__hash_value_typeIiNS_5mutexEEEPvEEEEEC2B7v160006Ev, symObjAddr: 0x12A80, symBinAddr: 0x100018270, symSize: 0x10 }
  - { offsetInCU: 0x34A05, offset: 0x4C90E, size: 0x8, addend: 0x0, symName: __ZNSt3__117__compressed_pairImNS_22__unordered_map_hasherIiNS_17__hash_value_typeIiNS_5mutexEEENS_4hashIiEENS_8equal_toIiEELb1EEEEC2B7v160006IiNS_18__default_init_tagEEEOT_OT0_, symObjAddr: 0x12A90, symBinAddr: 0x100018280, symSize: 0x40 }
  - { offsetInCU: 0x34A5C, offset: 0x4C965, size: 0x8, addend: 0x0, symName: __ZNSt3__122__compressed_pair_elemINS_22__unordered_map_hasherIiNS_17__hash_value_typeIiNS_5mutexEEENS_4hashIiEENS_8equal_toIiEELb1EEELi1ELb1EEC2B7v160006ENS_18__default_init_tagE, symObjAddr: 0x12AD0, symBinAddr: 0x1000182C0, symSize: 0x20 }
  - { offsetInCU: 0x34A8F, offset: 0x4C998, size: 0x8, addend: 0x0, symName: __ZNSt3__122__unordered_map_hasherIiNS_17__hash_value_typeIiNS_5mutexEEENS_4hashIiEENS_8equal_toIiEELb1EEC2B7v160006Ev, symObjAddr: 0x12AF0, symBinAddr: 0x1000182E0, symSize: 0x10 }
  - { offsetInCU: 0x34AB8, offset: 0x4C9C1, size: 0x8, addend: 0x0, symName: __ZNSt3__117__compressed_pairIfNS_21__unordered_map_equalIiNS_17__hash_value_typeIiNS_5mutexEEENS_8equal_toIiEENS_4hashIiEELb1EEEEC2B7v160006IfNS_18__default_init_tagEEEOT_OT0_, symObjAddr: 0x12B00, symBinAddr: 0x1000182F0, symSize: 0x40 }
  - { offsetInCU: 0x34B0F, offset: 0x4CA18, size: 0x8, addend: 0x0, symName: __ZNSt3__122__compressed_pair_elemINS_21__unordered_map_equalIiNS_17__hash_value_typeIiNS_5mutexEEENS_8equal_toIiEENS_4hashIiEELb1EEELi1ELb1EEC2B7v160006ENS_18__default_init_tagE, symObjAddr: 0x12B40, symBinAddr: 0x100018330, symSize: 0x20 }
  - { offsetInCU: 0x34B42, offset: 0x4CA4B, size: 0x8, addend: 0x0, symName: __ZNSt3__121__unordered_map_equalIiNS_17__hash_value_typeIiNS_5mutexEEENS_8equal_toIiEENS_4hashIiEELb1EEC2B7v160006Ev, symObjAddr: 0x12B60, symBinAddr: 0x100018350, symSize: 0x10 }
  - { offsetInCU: 0x34B6B, offset: 0x4CA74, size: 0x8, addend: 0x0, symName: __ZNSt3__113unordered_mapIiNS_5mutexENS_4hashIiEENS_8equal_toIiEENS_9allocatorINS_4pairIKiS1_EEEEED2B7v160006Ev, symObjAddr: 0x12B70, symBinAddr: 0x100018360, symSize: 0x20 }
  - { offsetInCU: 0x34B94, offset: 0x4CA9D, size: 0x8, addend: 0x0, symName: __ZNSt3__112__hash_tableINS_17__hash_value_typeIiNS_5mutexEEENS_22__unordered_map_hasherIiS3_NS_4hashIiEENS_8equal_toIiEELb1EEENS_21__unordered_map_equalIiS3_S8_S6_Lb1EEENS_9allocatorIS3_EEED1Ev, symObjAddr: 0x12B90, symBinAddr: 0x100018380, symSize: 0x20 }
  - { offsetInCU: 0x34BBF, offset: 0x4CAC8, size: 0x8, addend: 0x0, symName: __ZNSt3__112__hash_tableINS_17__hash_value_typeIiNS_5mutexEEENS_22__unordered_map_hasherIiS3_NS_4hashIiEENS_8equal_toIiEELb1EEENS_21__unordered_map_equalIiS3_S8_S6_Lb1EEENS_9allocatorIS3_EEED2Ev, symObjAddr: 0x12BB0, symBinAddr: 0x1000183A0, symSize: 0x50 }
  - { offsetInCU: 0x34BEA, offset: 0x4CAF3, size: 0x8, addend: 0x0, symName: __ZNSt3__112__hash_tableINS_17__hash_value_typeIiNS_5mutexEEENS_22__unordered_map_hasherIiS3_NS_4hashIiEENS_8equal_toIiEELb1EEENS_21__unordered_map_equalIiS3_S8_S6_Lb1EEENS_9allocatorIS3_EEE17__deallocate_nodeEPNS_16__hash_node_baseIPNS_11__hash_nodeIS3_PvEEEE, symObjAddr: 0x12C00, symBinAddr: 0x1000183F0, symSize: 0xA0 }
  - { offsetInCU: 0x34C53, offset: 0x4CB5C, size: 0x8, addend: 0x0, symName: __ZNSt3__117__compressed_pairINS_16__hash_node_baseIPNS_11__hash_nodeINS_17__hash_value_typeIiNS_5mutexEEEPvEEEENS_9allocatorIS7_EEE5firstB7v160006Ev, symObjAddr: 0x12CA0, symBinAddr: 0x100018490, symSize: 0x20 }
  - { offsetInCU: 0x34C78, offset: 0x4CB81, size: 0x8, addend: 0x0, symName: __ZNSt3__110unique_ptrIA_PNS_16__hash_node_baseIPNS_11__hash_nodeINS_17__hash_value_typeIiNS_5mutexEEEPvEEEENS_25__bucket_list_deallocatorINS_9allocatorISA_EEEEED1B7v160006Ev, symObjAddr: 0x12CD0, symBinAddr: 0x1000184C0, symSize: 0x20 }
  - { offsetInCU: 0x34CA1, offset: 0x4CBAA, size: 0x8, addend: 0x0, symName: __ZNSt3__112__hash_tableINS_17__hash_value_typeIiNS_5mutexEEENS_22__unordered_map_hasherIiS3_NS_4hashIiEENS_8equal_toIiEELb1EEENS_21__unordered_map_equalIiS3_S8_S6_Lb1EEENS_9allocatorIS3_EEE12__node_allocB7v160006Ev, symObjAddr: 0x12CF0, symBinAddr: 0x1000184E0, symSize: 0x20 }
  - { offsetInCU: 0x34CC6, offset: 0x4CBCF, size: 0x8, addend: 0x0, symName: __ZNSt3__116__hash_node_baseIPNS_11__hash_nodeINS_17__hash_value_typeIiNS_5mutexEEEPvEEE8__upcastB7v160006Ev, symObjAddr: 0x12D10, symBinAddr: 0x100018500, symSize: 0x20 }
  - { offsetInCU: 0x34CEB, offset: 0x4CBF4, size: 0x8, addend: 0x0, symName: __ZNSt3__116allocator_traitsINS_9allocatorINS_11__hash_nodeINS_17__hash_value_typeIiNS_5mutexEEEPvEEEEE7destroyB7v160006INS_4pairIKiS4_EEvvEEvRS8_PT_, symObjAddr: 0x12D30, symBinAddr: 0x100018520, symSize: 0x20 }
  - { offsetInCU: 0x34D26, offset: 0x4CC2F, size: 0x8, addend: 0x0, symName: __ZNSt3__122__hash_key_value_typesINS_17__hash_value_typeIiNS_5mutexEEEE9__get_ptrB7v160006ERS3_, symObjAddr: 0x12D50, symBinAddr: 0x100018540, symSize: 0x20 }
  - { offsetInCU: 0x34D49, offset: 0x4CC52, size: 0x8, addend: 0x0, symName: __ZNSt3__116allocator_traitsINS_9allocatorINS_11__hash_nodeINS_17__hash_value_typeIiNS_5mutexEEEPvEEEEE10deallocateB7v160006ERS8_PS7_m, symObjAddr: 0x12D70, symBinAddr: 0x100018560, symSize: 0x30 }
  - { offsetInCU: 0x34D8B, offset: 0x4CC94, size: 0x8, addend: 0x0, symName: __ZNSt3__117__compressed_pairINS_16__hash_node_baseIPNS_11__hash_nodeINS_17__hash_value_typeIiNS_5mutexEEEPvEEEENS_9allocatorIS7_EEE6secondB7v160006Ev, symObjAddr: 0x12DA0, symBinAddr: 0x100018590, symSize: 0x20 }
  - { offsetInCU: 0x34DB0, offset: 0x4CCB9, size: 0x8, addend: 0x0, symName: __ZNSt3__122__compressed_pair_elemINS_9allocatorINS_11__hash_nodeINS_17__hash_value_typeIiNS_5mutexEEEPvEEEELi1ELb1EE5__getB7v160006Ev, symObjAddr: 0x12DC0, symBinAddr: 0x1000185B0, symSize: 0x10 }
  - { offsetInCU: 0x34DD5, offset: 0x4CCDE, size: 0x8, addend: 0x0, symName: __ZNSt3__114pointer_traitsIPNS_16__hash_node_baseIPNS_11__hash_nodeINS_17__hash_value_typeIiNS_5mutexEEEPvEEEEE10pointer_toB7v160006ERS9_, symObjAddr: 0x12DD0, symBinAddr: 0x1000185C0, symSize: 0x10 }
  - { offsetInCU: 0x34DF8, offset: 0x4CD01, size: 0x8, addend: 0x0, symName: __ZNSt3__14pairIKiNS_5mutexEED1Ev, symObjAddr: 0x12E20, symBinAddr: 0x100018610, symSize: 0x20 }
  - { offsetInCU: 0x34E23, offset: 0x4CD2C, size: 0x8, addend: 0x0, symName: __ZNSt3__14pairIKiNS_5mutexEED2Ev, symObjAddr: 0x12E40, symBinAddr: 0x100018630, symSize: 0x20 }
  - { offsetInCU: 0x34E4E, offset: 0x4CD57, size: 0x8, addend: 0x0, symName: __ZNSt3__117__hash_value_typeIiNS_5mutexEE11__get_valueB7v160006Ev, symObjAddr: 0x12E60, symBinAddr: 0x100018650, symSize: 0x20 }
  - { offsetInCU: 0x34E73, offset: 0x4CD7C, size: 0x8, addend: 0x0, symName: __ZNSt3__19allocatorINS_11__hash_nodeINS_17__hash_value_typeIiNS_5mutexEEEPvEEE10deallocateB7v160006EPS6_m, symObjAddr: 0x12EB0, symBinAddr: 0x1000186A0, symSize: 0x40 }
  - { offsetInCU: 0x34EB4, offset: 0x4CDBD, size: 0x8, addend: 0x0, symName: __ZNSt3__122__compressed_pair_elemINS_16__hash_node_baseIPNS_11__hash_nodeINS_17__hash_value_typeIiNS_5mutexEEEPvEEEELi0ELb0EE5__getB7v160006Ev, symObjAddr: 0x12EF0, symBinAddr: 0x1000186E0, symSize: 0x10 }
  - { offsetInCU: 0x34ED9, offset: 0x4CDE2, size: 0x8, addend: 0x0, symName: __ZNSt3__110unique_ptrIA_PNS_16__hash_node_baseIPNS_11__hash_nodeINS_17__hash_value_typeIiNS_5mutexEEEPvEEEENS_25__bucket_list_deallocatorINS_9allocatorISA_EEEEED2B7v160006Ev, symObjAddr: 0x12F00, symBinAddr: 0x1000186F0, symSize: 0x20 }
  - { offsetInCU: 0x34F02, offset: 0x4CE0B, size: 0x8, addend: 0x0, symName: __ZNSt3__110unique_ptrIA_PNS_16__hash_node_baseIPNS_11__hash_nodeINS_17__hash_value_typeIiNS_5mutexEEEPvEEEENS_25__bucket_list_deallocatorINS_9allocatorISA_EEEEE5resetB7v160006EDn, symObjAddr: 0x12F20, symBinAddr: 0x100018710, symSize: 0x60 }
  - { offsetInCU: 0x34F42, offset: 0x4CE4B, size: 0x8, addend: 0x0, symName: __ZNSt3__117__compressed_pairIPPNS_16__hash_node_baseIPNS_11__hash_nodeINS_17__hash_value_typeIiNS_5mutexEEEPvEEEENS_25__bucket_list_deallocatorINS_9allocatorISA_EEEEE5firstB7v160006Ev, symObjAddr: 0x12F80, symBinAddr: 0x100018770, symSize: 0x20 }
  - { offsetInCU: 0x34F67, offset: 0x4CE70, size: 0x8, addend: 0x0, symName: __ZNSt3__117__compressed_pairIPPNS_16__hash_node_baseIPNS_11__hash_nodeINS_17__hash_value_typeIiNS_5mutexEEEPvEEEENS_25__bucket_list_deallocatorINS_9allocatorISA_EEEEE6secondB7v160006Ev, symObjAddr: 0x12FA0, symBinAddr: 0x100018790, symSize: 0x20 }
  - { offsetInCU: 0x34F8C, offset: 0x4CE95, size: 0x8, addend: 0x0, symName: __ZNSt3__125__bucket_list_deallocatorINS_9allocatorIPNS_16__hash_node_baseIPNS_11__hash_nodeINS_17__hash_value_typeIiNS_5mutexEEEPvEEEEEEEclB7v160006EPSB_, symObjAddr: 0x12FC0, symBinAddr: 0x1000187B0, symSize: 0x50 }
  - { offsetInCU: 0x34FC0, offset: 0x4CEC9, size: 0x8, addend: 0x0, symName: __ZNSt3__122__compressed_pair_elemIPPNS_16__hash_node_baseIPNS_11__hash_nodeINS_17__hash_value_typeIiNS_5mutexEEEPvEEEELi0ELb0EE5__getB7v160006Ev, symObjAddr: 0x13010, symBinAddr: 0x100018800, symSize: 0x10 }
  - { offsetInCU: 0x34FE5, offset: 0x4CEEE, size: 0x8, addend: 0x0, symName: __ZNSt3__122__compressed_pair_elemINS_25__bucket_list_deallocatorINS_9allocatorIPNS_16__hash_node_baseIPNS_11__hash_nodeINS_17__hash_value_typeIiNS_5mutexEEEPvEEEEEEEELi1ELb0EE5__getB7v160006Ev, symObjAddr: 0x13020, symBinAddr: 0x100018810, symSize: 0x10 }
  - { offsetInCU: 0x3500A, offset: 0x4CF13, size: 0x8, addend: 0x0, symName: __ZNSt3__116allocator_traitsINS_9allocatorIPNS_16__hash_node_baseIPNS_11__hash_nodeINS_17__hash_value_typeIiNS_5mutexEEEPvEEEEEEE10deallocateB7v160006ERSC_PSB_m, symObjAddr: 0x13030, symBinAddr: 0x100018820, symSize: 0x30 }
  - { offsetInCU: 0x3504C, offset: 0x4CF55, size: 0x8, addend: 0x0, symName: __ZNSt3__125__bucket_list_deallocatorINS_9allocatorIPNS_16__hash_node_baseIPNS_11__hash_nodeINS_17__hash_value_typeIiNS_5mutexEEEPvEEEEEEE7__allocB7v160006Ev, symObjAddr: 0x13060, symBinAddr: 0x100018850, symSize: 0x20 }
  - { offsetInCU: 0x35071, offset: 0x4CF7A, size: 0x8, addend: 0x0, symName: __ZNSt3__125__bucket_list_deallocatorINS_9allocatorIPNS_16__hash_node_baseIPNS_11__hash_nodeINS_17__hash_value_typeIiNS_5mutexEEEPvEEEEEEE4sizeB7v160006Ev, symObjAddr: 0x13080, symBinAddr: 0x100018870, symSize: 0x20 }
  - { offsetInCU: 0x35096, offset: 0x4CF9F, size: 0x8, addend: 0x0, symName: __ZNSt3__19allocatorIPNS_16__hash_node_baseIPNS_11__hash_nodeINS_17__hash_value_typeIiNS_5mutexEEEPvEEEEE10deallocateB7v160006EPSA_m, symObjAddr: 0x130A0, symBinAddr: 0x100018890, symSize: 0x40 }
  - { offsetInCU: 0x350D7, offset: 0x4CFE0, size: 0x8, addend: 0x0, symName: __ZNSt3__117__compressed_pairImNS_9allocatorIPNS_16__hash_node_baseIPNS_11__hash_nodeINS_17__hash_value_typeIiNS_5mutexEEEPvEEEEEEE6secondB7v160006Ev, symObjAddr: 0x130E0, symBinAddr: 0x1000188D0, symSize: 0x20 }
  - { offsetInCU: 0x350FC, offset: 0x4D005, size: 0x8, addend: 0x0, symName: __ZNSt3__122__compressed_pair_elemINS_9allocatorIPNS_16__hash_node_baseIPNS_11__hash_nodeINS_17__hash_value_typeIiNS_5mutexEEEPvEEEEEELi1ELb1EE5__getB7v160006Ev, symObjAddr: 0x13100, symBinAddr: 0x1000188F0, symSize: 0x10 }
  - { offsetInCU: 0x35121, offset: 0x4D02A, size: 0x8, addend: 0x0, symName: __ZNSt3__117__compressed_pairImNS_9allocatorIPNS_16__hash_node_baseIPNS_11__hash_nodeINS_17__hash_value_typeIiNS_5mutexEEEPvEEEEEEE5firstB7v160006Ev, symObjAddr: 0x13110, symBinAddr: 0x100018900, symSize: 0x20 }
  - { offsetInCU: 0x35146, offset: 0x4D04F, size: 0x8, addend: 0x0, symName: __ZNSt3__19basic_iosIcNS_11char_traitsIcEEEC2B7v160006Ev, symObjAddr: 0x13130, symBinAddr: 0x100018920, symSize: 0x40 }
  - { offsetInCU: 0x3516F, offset: 0x4D078, size: 0x8, addend: 0x0, symName: __ZNSt3__113basic_istreamIcNS_11char_traitsIcEEEC2B7v160006EPNS_15basic_streambufIcS2_EE, symObjAddr: 0x13170, symBinAddr: 0x100018960, symSize: 0x50 }
  - { offsetInCU: 0x351B2, offset: 0x4D0BB, size: 0x8, addend: 0x0, symName: __ZNSt3__115basic_stringbufIcNS_11char_traitsIcEENS_9allocatorIcEEEC1B7v160006ERKNS_12basic_stringIcS2_S4_EEj, symObjAddr: 0x131C0, symBinAddr: 0x1000189B0, symSize: 0x30 }
  - { offsetInCU: 0x351F7, offset: 0x4D100, size: 0x8, addend: 0x0, symName: __ZNSt3__18ios_baseC2B7v160006Ev, symObjAddr: 0x131F0, symBinAddr: 0x1000189E0, symSize: 0x20 }
  - { offsetInCU: 0x35220, offset: 0x4D129, size: 0x8, addend: 0x0, symName: __ZNSt3__19basic_iosIcNS_11char_traitsIcEEE4initB7v160006EPNS_15basic_streambufIcS2_EE, symObjAddr: 0x13210, symBinAddr: 0x100018A00, symSize: 0x50 }
  - { offsetInCU: 0x35255, offset: 0x4D15E, size: 0x8, addend: 0x0, symName: __ZNSt3__111char_traitsIcE3eofEv, symObjAddr: 0x13260, symBinAddr: 0x100018A50, symSize: 0x10 }
  - { offsetInCU: 0x35269, offset: 0x4D172, size: 0x8, addend: 0x0, symName: __ZNSt3__115basic_stringbufIcNS_11char_traitsIcEENS_9allocatorIcEEEC2B7v160006ERKNS_12basic_stringIcS2_S4_EEj, symObjAddr: 0x13270, symBinAddr: 0x100018A60, symSize: 0xA0 }
  - { offsetInCU: 0x352AE, offset: 0x4D1B7, size: 0x8, addend: 0x0, symName: __ZNKSt3__112basic_stringIcNS_11char_traitsIcEENS_9allocatorIcEEE13get_allocatorB7v160006Ev, symObjAddr: 0x13310, symBinAddr: 0x100018B00, symSize: 0x20 }
  - { offsetInCU: 0x352D3, offset: 0x4D1DC, size: 0x8, addend: 0x0, symName: __ZNSt3__112basic_stringIcNS_11char_traitsIcEENS_9allocatorIcEEEC1B7v160006ERKS4_, symObjAddr: 0x13330, symBinAddr: 0x100018B20, symSize: 0x30 }
  - { offsetInCU: 0x3530B, offset: 0x4D214, size: 0x8, addend: 0x0, symName: __ZNKSt3__112basic_stringIcNS_11char_traitsIcEENS_9allocatorIcEEE7__allocB7v160006Ev, symObjAddr: 0x13360, symBinAddr: 0x100018B50, symSize: 0x20 }
  - { offsetInCU: 0x35330, offset: 0x4D239, size: 0x8, addend: 0x0, symName: __ZNKSt3__117__compressed_pairINS_12basic_stringIcNS_11char_traitsIcEENS_9allocatorIcEEE5__repES5_E6secondB7v160006Ev, symObjAddr: 0x13380, symBinAddr: 0x100018B70, symSize: 0x20 }
  - { offsetInCU: 0x35355, offset: 0x4D25E, size: 0x8, addend: 0x0, symName: __ZNKSt3__122__compressed_pair_elemINS_9allocatorIcEELi1ELb1EE5__getB7v160006Ev, symObjAddr: 0x133A0, symBinAddr: 0x100018B90, symSize: 0x10 }
  - { offsetInCU: 0x3537A, offset: 0x4D283, size: 0x8, addend: 0x0, symName: __ZNSt3__112basic_stringIcNS_11char_traitsIcEENS_9allocatorIcEEEC2B7v160006ERKS4_, symObjAddr: 0x133B0, symBinAddr: 0x100018BA0, symSize: 0x50 }
  - { offsetInCU: 0x353B2, offset: 0x4D2BB, size: 0x8, addend: 0x0, symName: __ZNSt3__117__compressed_pairINS_12basic_stringIcNS_11char_traitsIcEENS_9allocatorIcEEE5__repES5_EC1B7v160006INS_18__default_init_tagERKS5_EEOT_OT0_, symObjAddr: 0x13400, symBinAddr: 0x100018BF0, symSize: 0x30 }
  - { offsetInCU: 0x35409, offset: 0x4D312, size: 0x8, addend: 0x0, symName: __ZNSt3__117__compressed_pairINS_12basic_stringIcNS_11char_traitsIcEENS_9allocatorIcEEE5__repES5_EC2B7v160006INS_18__default_init_tagERKS5_EEOT_OT0_, symObjAddr: 0x13430, symBinAddr: 0x100018C20, symSize: 0x40 }
  - { offsetInCU: 0x35460, offset: 0x4D369, size: 0x8, addend: 0x0, symName: __ZNSt3__122__compressed_pair_elemINS_9allocatorIcEELi1ELb1EEC2B7v160006IRKS2_vEEOT_, symObjAddr: 0x13470, symBinAddr: 0x100018C60, symSize: 0x10 }
  - { offsetInCU: 0x354BF, offset: 0x4D3C8, size: 0x8, addend: 0x0, symName: __ZNKSt3__113basic_istreamIcNS_11char_traitsIcEEE6sentrycvbB7v160006Ev, symObjAddr: 0x13480, symBinAddr: 0x100018C70, symSize: 0x20 }
  - { offsetInCU: 0x354E4, offset: 0x4D3ED, size: 0x8, addend: 0x0, symName: __ZNSt3__112basic_stringIcNS_11char_traitsIcEENS_9allocatorIcEEE5clearB7v160006Ev, symObjAddr: 0x134A0, symBinAddr: 0x100018C90, symSize: 0xA0 }
  - { offsetInCU: 0x3550A, offset: 0x4D413, size: 0x8, addend: 0x0, symName: __ZNKSt3__19basic_iosIcNS_11char_traitsIcEEE5rdbufB7v160006Ev, symObjAddr: 0x13540, symBinAddr: 0x100018D30, symSize: 0x20 }
  - { offsetInCU: 0x35530, offset: 0x4D439, size: 0x8, addend: 0x0, symName: __ZNSt3__115basic_streambufIcNS_11char_traitsIcEEE6sbumpcB7v160006Ev, symObjAddr: 0x13560, symBinAddr: 0x100018D50, symSize: 0x60 }
  - { offsetInCU: 0x35555, offset: 0x4D45E, size: 0x8, addend: 0x0, symName: __ZNSt3__111char_traitsIcE11eq_int_typeEii, symObjAddr: 0x135C0, symBinAddr: 0x100018DB0, symSize: 0x20 }
  - { offsetInCU: 0x35586, offset: 0x4D48F, size: 0x8, addend: 0x0, symName: __ZNSt3__111char_traitsIcE12to_char_typeEi, symObjAddr: 0x135E0, symBinAddr: 0x100018DD0, symSize: 0x10 }
  - { offsetInCU: 0x355A9, offset: 0x4D4B2, size: 0x8, addend: 0x0, symName: __ZNSt3__111char_traitsIcE2eqEcc, symObjAddr: 0x135F0, symBinAddr: 0x100018DE0, symSize: 0x30 }
  - { offsetInCU: 0x355DA, offset: 0x4D4E3, size: 0x8, addend: 0x0, symName: __ZNKSt3__112basic_stringIcNS_11char_traitsIcEENS_9allocatorIcEEE8max_sizeB7v160006Ev, symObjAddr: 0x13670, symBinAddr: 0x100018E10, symSize: 0xA0 }
  - { offsetInCU: 0x3562B, offset: 0x4D534, size: 0x8, addend: 0x0, symName: __ZNSt3__18ios_base18__setstate_nothrowB7v160006Ej, symObjAddr: 0x13710, symBinAddr: 0x100018EB0, symSize: 0x50 }
  - { offsetInCU: 0x3565F, offset: 0x4D568, size: 0x8, addend: 0x0, symName: __ZNKSt3__19basic_iosIcNS_11char_traitsIcEEE10exceptionsB7v160006Ev, symObjAddr: 0x13760, symBinAddr: 0x100018F00, symSize: 0x20 }
  - { offsetInCU: 0x35684, offset: 0x4D58D, size: 0x8, addend: 0x0, symName: __ZNSt3__19basic_iosIcNS_11char_traitsIcEEE8setstateB7v160006Ej, symObjAddr: 0x13780, symBinAddr: 0x100018F20, symSize: 0x30 }
  - { offsetInCU: 0x356B8, offset: 0x4D5C1, size: 0x8, addend: 0x0, symName: __ZNSt3__111char_traitsIcE6assignERcRKc, symObjAddr: 0x137C0, symBinAddr: 0x100018F60, symSize: 0x20 }
  - { offsetInCU: 0x356E9, offset: 0x4D5F2, size: 0x8, addend: 0x0, symName: __ZNSt3__112basic_stringIcNS_11char_traitsIcEENS_9allocatorIcEEE15__set_long_sizeB7v160006Em, symObjAddr: 0x137E0, symBinAddr: 0x100018F80, symSize: 0x30 }
  - { offsetInCU: 0x3571D, offset: 0x4D626, size: 0x8, addend: 0x0, symName: __ZNSt3__112basic_stringIcNS_11char_traitsIcEENS_9allocatorIcEEE16__set_short_sizeB7v160006Em, symObjAddr: 0x13810, symBinAddr: 0x100018FB0, symSize: 0x50 }
  - { offsetInCU: 0x35751, offset: 0x4D65A, size: 0x8, addend: 0x0, symName: __ZNKSt3__18ios_base5rdbufB7v160006Ev, symObjAddr: 0x13860, symBinAddr: 0x100019000, symSize: 0x20 }
  - { offsetInCU: 0x35776, offset: 0x4D67F, size: 0x8, addend: 0x0, symName: __ZNSt3__111char_traitsIcE11to_int_typeEc, symObjAddr: 0x13880, symBinAddr: 0x100019020, symSize: 0x10 }
  - { offsetInCU: 0x357A3, offset: 0x4D6AC, size: 0x8, addend: 0x0, symName: __ZNSt3__116allocator_traitsINS_9allocatorIcEEE8max_sizeB7v160006IS2_vvEEmRKS2_, symObjAddr: 0x138E0, symBinAddr: 0x100019030, symSize: 0x20 }
  - { offsetInCU: 0x357CF, offset: 0x4D6D8, size: 0x8, addend: 0x0, symName: __ZNKSt3__18ios_base10exceptionsB7v160006Ev, symObjAddr: 0x13900, symBinAddr: 0x100019050, symSize: 0x20 }
  - { offsetInCU: 0x357F5, offset: 0x4D6FE, size: 0x8, addend: 0x0, symName: __ZNSt3__18ios_base8setstateB7v160006Ej, symObjAddr: 0x13920, symBinAddr: 0x100019070, symSize: 0x30 }
  - { offsetInCU: 0x3582A, offset: 0x4D733, size: 0x8, addend: 0x0, symName: __ZNKSt3__19basic_iosIcNS_11char_traitsIcEEE5widenB7v160006Ec, symObjAddr: 0x13950, symBinAddr: 0x1000190A0, symSize: 0x80 }
  - { offsetInCU: 0x35891, offset: 0x4D79A, size: 0x8, addend: 0x0, symName: __ZNKSt3__15ctypeIcE5widenB7v160006Ec, symObjAddr: 0x13A00, symBinAddr: 0x100019150, symSize: 0x30 }
  - { offsetInCU: 0x358C5, offset: 0x4D7CE, size: 0x8, addend: 0x0, symName: __ZNKSt3__113unordered_mapINS_12basic_stringIcNS_11char_traitsIcEENS_9allocatorIcEEEENS_6vectorI4PathNS4_IS8_EEEENS_4hashIS6_EENS_8equal_toIS6_EENS4_INS_4pairIKS6_SA_EEEEE4findB7v160006ERSG_, symObjAddr: 0x13A60, symBinAddr: 0x1000191B0, symSize: 0x40 }
  - { offsetInCU: 0x358F9, offset: 0x4D802, size: 0x8, addend: 0x0, symName: __ZNKSt3__113unordered_mapINS_12basic_stringIcNS_11char_traitsIcEENS_9allocatorIcEEEENS_6vectorI4PathNS4_IS8_EEEENS_4hashIS6_EENS_8equal_toIS6_EENS4_INS_4pairIKS6_SA_EEEEE3endB7v160006Ev, symObjAddr: 0x13AA0, symBinAddr: 0x1000191F0, symSize: 0x30 }
  - { offsetInCU: 0x3591E, offset: 0x4D827, size: 0x8, addend: 0x0, symName: __ZNKSt3__112__hash_tableINS_17__hash_value_typeINS_12basic_stringIcNS_11char_traitsIcEENS_9allocatorIcEEEENS_6vectorI4PathNS5_IS9_EEEEEENS_22__unordered_map_hasherIS7_SC_NS_4hashIS7_EENS_8equal_toIS7_EELb1EEENS_21__unordered_map_equalIS7_SC_SH_SF_Lb1EEENS5_ISC_EEE4findIS7_EENS_21__hash_const_iteratorIPNS_11__hash_nodeISC_PvEEEERKT_, symObjAddr: 0x13B30, symBinAddr: 0x100019280, symSize: 0x190 }
  - { offsetInCU: 0x359A6, offset: 0x4D8AF, size: 0x8, addend: 0x0, symName: __ZNSt3__125__hash_map_const_iteratorINS_21__hash_const_iteratorIPNS_11__hash_nodeINS_17__hash_value_typeINS_12basic_stringIcNS_11char_traitsIcEENS_9allocatorIcEEEENS_6vectorI4PathNS7_ISB_EEEEEEPvEEEEEC1B7v160006ESI_, symObjAddr: 0x13CC0, symBinAddr: 0x100019410, symSize: 0x30 }
  - { offsetInCU: 0x359DE, offset: 0x4D8E7, size: 0x8, addend: 0x0, symName: __ZNKSt3__112__hash_tableINS_17__hash_value_typeINS_12basic_stringIcNS_11char_traitsIcEENS_9allocatorIcEEEENS_6vectorI4PathNS5_IS9_EEEEEENS_22__unordered_map_hasherIS7_SC_NS_4hashIS7_EENS_8equal_toIS7_EELb1EEENS_21__unordered_map_equalIS7_SC_SH_SF_Lb1EEENS5_ISC_EEE13hash_functionB7v160006Ev, symObjAddr: 0x13CF0, symBinAddr: 0x100019440, symSize: 0x20 }
  - { offsetInCU: 0x35A03, offset: 0x4D90C, size: 0x8, addend: 0x0, symName: __ZNKSt3__122__unordered_map_hasherINS_12basic_stringIcNS_11char_traitsIcEENS_9allocatorIcEEEENS_17__hash_value_typeIS6_NS_6vectorI4PathNS4_IS9_EEEEEENS_4hashIS6_EENS_8equal_toIS6_EELb1EEclB7v160006ERKS6_, symObjAddr: 0x13D10, symBinAddr: 0x100019460, symSize: 0x30 }
  - { offsetInCU: 0x35A37, offset: 0x4D940, size: 0x8, addend: 0x0, symName: __ZNKSt3__112__hash_tableINS_17__hash_value_typeINS_12basic_stringIcNS_11char_traitsIcEENS_9allocatorIcEEEENS_6vectorI4PathNS5_IS9_EEEEEENS_22__unordered_map_hasherIS7_SC_NS_4hashIS7_EENS_8equal_toIS7_EELb1EEENS_21__unordered_map_equalIS7_SC_SH_SF_Lb1EEENS5_ISC_EEE12bucket_countB7v160006Ev, symObjAddr: 0x13D40, symBinAddr: 0x100019490, symSize: 0x30 }
  - { offsetInCU: 0x35A5C, offset: 0x4D965, size: 0x8, addend: 0x0, symName: __ZNKSt3__110unique_ptrIA_PNS_16__hash_node_baseIPNS_11__hash_nodeINS_17__hash_value_typeINS_12basic_stringIcNS_11char_traitsIcEENS_9allocatorIcEEEENS_6vectorI4PathNS7_ISB_EEEEEEPvEEEENS_25__bucket_list_deallocatorINS7_ISJ_EEEEEixB7v160006Em, symObjAddr: 0x13D70, symBinAddr: 0x1000194C0, symSize: 0x30 }
  - { offsetInCU: 0x35A90, offset: 0x4D999, size: 0x8, addend: 0x0, symName: __ZNKSt3__116__hash_node_baseIPNS_11__hash_nodeINS_17__hash_value_typeINS_12basic_stringIcNS_11char_traitsIcEENS_9allocatorIcEEEENS_6vectorI4PathNS6_ISA_EEEEEEPvEEE6__hashB7v160006Ev, symObjAddr: 0x13DA0, symBinAddr: 0x1000194F0, symSize: 0x20 }
  - { offsetInCU: 0x35AB5, offset: 0x4D9BE, size: 0x8, addend: 0x0, symName: __ZNKSt3__112__hash_tableINS_17__hash_value_typeINS_12basic_stringIcNS_11char_traitsIcEENS_9allocatorIcEEEENS_6vectorI4PathNS5_IS9_EEEEEENS_22__unordered_map_hasherIS7_SC_NS_4hashIS7_EENS_8equal_toIS7_EELb1EEENS_21__unordered_map_equalIS7_SC_SH_SF_Lb1EEENS5_ISC_EEE6key_eqB7v160006Ev, symObjAddr: 0x13DC0, symBinAddr: 0x100019510, symSize: 0x20 }
  - { offsetInCU: 0x35ADA, offset: 0x4D9E3, size: 0x8, addend: 0x0, symName: __ZNKSt3__121__unordered_map_equalINS_12basic_stringIcNS_11char_traitsIcEENS_9allocatorIcEEEENS_17__hash_value_typeIS6_NS_6vectorI4PathNS4_IS9_EEEEEENS_8equal_toIS6_EENS_4hashIS6_EELb1EEclB7v160006ERKSC_RKS6_, symObjAddr: 0x13DE0, symBinAddr: 0x100019530, symSize: 0x40 }
  - { offsetInCU: 0x35B1D, offset: 0x4DA26, size: 0x8, addend: 0x0, symName: __ZNSt3__121__hash_const_iteratorIPNS_11__hash_nodeINS_17__hash_value_typeINS_12basic_stringIcNS_11char_traitsIcEENS_9allocatorIcEEEENS_6vectorI4PathNS6_ISA_EEEEEEPvEEEC1B7v160006EPNS_16__hash_node_baseISG_EEPKv, symObjAddr: 0x13E20, symBinAddr: 0x100019570, symSize: 0x30 }
  - { offsetInCU: 0x35B64, offset: 0x4DA6D, size: 0x8, addend: 0x0, symName: __ZNKSt3__112__hash_tableINS_17__hash_value_typeINS_12basic_stringIcNS_11char_traitsIcEENS_9allocatorIcEEEENS_6vectorI4PathNS5_IS9_EEEEEENS_22__unordered_map_hasherIS7_SC_NS_4hashIS7_EENS_8equal_toIS7_EELb1EEENS_21__unordered_map_equalIS7_SC_SH_SF_Lb1EEENS5_ISC_EEE3endEv, symObjAddr: 0x13E50, symBinAddr: 0x1000195A0, symSize: 0x30 }
  - { offsetInCU: 0x35B8A, offset: 0x4DA93, size: 0x8, addend: 0x0, symName: __ZNKSt3__117__compressed_pairImNS_22__unordered_map_hasherINS_12basic_stringIcNS_11char_traitsIcEENS_9allocatorIcEEEENS_17__hash_value_typeIS7_NS_6vectorI4PathNS5_ISA_EEEEEENS_4hashIS7_EENS_8equal_toIS7_EELb1EEEE6secondB7v160006Ev, symObjAddr: 0x13E80, symBinAddr: 0x1000195D0, symSize: 0x20 }
  - { offsetInCU: 0x35BAF, offset: 0x4DAB8, size: 0x8, addend: 0x0, symName: __ZNKSt3__122__compressed_pair_elemINS_22__unordered_map_hasherINS_12basic_stringIcNS_11char_traitsIcEENS_9allocatorIcEEEENS_17__hash_value_typeIS7_NS_6vectorI4PathNS5_ISA_EEEEEENS_4hashIS7_EENS_8equal_toIS7_EELb1EEELi1ELb1EE5__getB7v160006Ev, symObjAddr: 0x13EA0, symBinAddr: 0x1000195F0, symSize: 0x10 }
  - { offsetInCU: 0x35BD4, offset: 0x4DADD, size: 0x8, addend: 0x0, symName: __ZNKSt3__110unique_ptrIA_PNS_16__hash_node_baseIPNS_11__hash_nodeINS_17__hash_value_typeINS_12basic_stringIcNS_11char_traitsIcEENS_9allocatorIcEEEENS_6vectorI4PathNS7_ISB_EEEEEEPvEEEENS_25__bucket_list_deallocatorINS7_ISJ_EEEEE11get_deleterB7v160006Ev, symObjAddr: 0x14C90, symBinAddr: 0x100019600, symSize: 0x20 }
  - { offsetInCU: 0x35BF9, offset: 0x4DB02, size: 0x8, addend: 0x0, symName: __ZNKSt3__125__bucket_list_deallocatorINS_9allocatorIPNS_16__hash_node_baseIPNS_11__hash_nodeINS_17__hash_value_typeINS_12basic_stringIcNS_11char_traitsIcEENS1_IcEEEENS_6vectorI4PathNS1_ISB_EEEEEEPvEEEEEEE4sizeB7v160006Ev, symObjAddr: 0x14CB0, symBinAddr: 0x100019620, symSize: 0x20 }
  - { offsetInCU: 0x35C1E, offset: 0x4DB27, size: 0x8, addend: 0x0, symName: __ZNKSt3__117__compressed_pairIPPNS_16__hash_node_baseIPNS_11__hash_nodeINS_17__hash_value_typeINS_12basic_stringIcNS_11char_traitsIcEENS_9allocatorIcEEEENS_6vectorI4PathNS7_ISB_EEEEEEPvEEEENS_25__bucket_list_deallocatorINS7_ISJ_EEEEE6secondB7v160006Ev, symObjAddr: 0x14CD0, symBinAddr: 0x100019640, symSize: 0x20 }
  - { offsetInCU: 0x35C43, offset: 0x4DB4C, size: 0x8, addend: 0x0, symName: __ZNKSt3__122__compressed_pair_elemINS_25__bucket_list_deallocatorINS_9allocatorIPNS_16__hash_node_baseIPNS_11__hash_nodeINS_17__hash_value_typeINS_12basic_stringIcNS_11char_traitsIcEENS2_IcEEEENS_6vectorI4PathNS2_ISC_EEEEEEPvEEEEEEEELi1ELb0EE5__getB7v160006Ev, symObjAddr: 0x14CF0, symBinAddr: 0x100019660, symSize: 0x10 }
  - { offsetInCU: 0x35C68, offset: 0x4DB71, size: 0x8, addend: 0x0, symName: __ZNKSt3__117__compressed_pairImNS_9allocatorIPNS_16__hash_node_baseIPNS_11__hash_nodeINS_17__hash_value_typeINS_12basic_stringIcNS_11char_traitsIcEENS1_IcEEEENS_6vectorI4PathNS1_ISB_EEEEEEPvEEEEEEE5firstB7v160006Ev, symObjAddr: 0x14D00, symBinAddr: 0x100019670, symSize: 0x20 }
  - { offsetInCU: 0x35C8D, offset: 0x4DB96, size: 0x8, addend: 0x0, symName: __ZNKSt3__117__compressed_pairIPPNS_16__hash_node_baseIPNS_11__hash_nodeINS_17__hash_value_typeINS_12basic_stringIcNS_11char_traitsIcEENS_9allocatorIcEEEENS_6vectorI4PathNS7_ISB_EEEEEEPvEEEENS_25__bucket_list_deallocatorINS7_ISJ_EEEEE5firstB7v160006Ev, symObjAddr: 0x14D20, symBinAddr: 0x100019690, symSize: 0x20 }
  - { offsetInCU: 0x35CB2, offset: 0x4DBBB, size: 0x8, addend: 0x0, symName: __ZNKSt3__122__compressed_pair_elemIPPNS_16__hash_node_baseIPNS_11__hash_nodeINS_17__hash_value_typeINS_12basic_stringIcNS_11char_traitsIcEENS_9allocatorIcEEEENS_6vectorI4PathNS7_ISB_EEEEEEPvEEEELi0ELb0EE5__getB7v160006Ev, symObjAddr: 0x14D40, symBinAddr: 0x1000196B0, symSize: 0x10 }
  - { offsetInCU: 0x35CD7, offset: 0x4DBE0, size: 0x8, addend: 0x0, symName: __ZNKSt3__117__compressed_pairIfNS_21__unordered_map_equalINS_12basic_stringIcNS_11char_traitsIcEENS_9allocatorIcEEEENS_17__hash_value_typeIS7_NS_6vectorI4PathNS5_ISA_EEEEEENS_8equal_toIS7_EENS_4hashIS7_EELb1EEEE6secondB7v160006Ev, symObjAddr: 0x14D50, symBinAddr: 0x1000196C0, symSize: 0x20 }
  - { offsetInCU: 0x35CFC, offset: 0x4DC05, size: 0x8, addend: 0x0, symName: __ZNKSt3__122__compressed_pair_elemINS_21__unordered_map_equalINS_12basic_stringIcNS_11char_traitsIcEENS_9allocatorIcEEEENS_17__hash_value_typeIS7_NS_6vectorI4PathNS5_ISA_EEEEEENS_8equal_toIS7_EENS_4hashIS7_EELb1EEELi1ELb1EE5__getB7v160006Ev, symObjAddr: 0x14D70, symBinAddr: 0x1000196E0, symSize: 0x10 }
  - { offsetInCU: 0x35D21, offset: 0x4DC2A, size: 0x8, addend: 0x0, symName: __ZNKSt3__18equal_toINS_12basic_stringIcNS_11char_traitsIcEENS_9allocatorIcEEEEEclB7v160006ERKS6_S9_, symObjAddr: 0x14D80, symBinAddr: 0x1000196F0, symSize: 0x30 }
  - { offsetInCU: 0x35D64, offset: 0x4DC6D, size: 0x8, addend: 0x0, symName: __ZNKSt3__117__hash_value_typeINS_12basic_stringIcNS_11char_traitsIcEENS_9allocatorIcEEEENS_6vectorI4PathNS4_IS8_EEEEE11__get_valueB7v160006Ev, symObjAddr: 0x14DB0, symBinAddr: 0x100019720, symSize: 0x20 }
  - { offsetInCU: 0x35D89, offset: 0x4DC92, size: 0x8, addend: 0x0, symName: __ZNSt3__111char_traitsIcE7compareEPKcS3_m, symObjAddr: 0x14EE0, symBinAddr: 0x100019850, symSize: 0x60 }
  - { offsetInCU: 0x35DC8, offset: 0x4DCD1, size: 0x8, addend: 0x0, symName: __ZNSt3__121__hash_const_iteratorIPNS_11__hash_nodeINS_17__hash_value_typeINS_12basic_stringIcNS_11char_traitsIcEENS_9allocatorIcEEEENS_6vectorI4PathNS6_ISA_EEEEEEPvEEEC2B7v160006EPNS_16__hash_node_baseISG_EEPKv, symObjAddr: 0x14FA0, symBinAddr: 0x100019910, symSize: 0x20 }
  - { offsetInCU: 0x35E0F, offset: 0x4DD18, size: 0x8, addend: 0x0, symName: __ZNSt3__125__hash_map_const_iteratorINS_21__hash_const_iteratorIPNS_11__hash_nodeINS_17__hash_value_typeINS_12basic_stringIcNS_11char_traitsIcEENS_9allocatorIcEEEENS_6vectorI4PathNS7_ISB_EEEEEEPvEEEEEC2B7v160006ESI_, symObjAddr: 0x14FC0, symBinAddr: 0x100019930, symSize: 0x20 }
  - { offsetInCU: 0x35E47, offset: 0x4DD50, size: 0x8, addend: 0x0, symName: __ZNSt3__112__hash_tableINS_17__hash_value_typeINS_12basic_stringIcNS_11char_traitsIcEENS_9allocatorIcEEEENS_6vectorI4PathNS5_IS9_EEEEEENS_22__unordered_map_hasherIS7_SC_NS_4hashIS7_EENS_8equal_toIS7_EELb1EEENS_21__unordered_map_equalIS7_SC_SH_SF_Lb1EEENS5_ISC_EEE25__emplace_unique_key_argsIS7_JRKNS_21piecewise_construct_tENS_5tupleIJRKS7_EEENSR_IJEEEEEENS_4pairINS_15__hash_iteratorIPNS_11__hash_nodeISC_PvEEEEbEERKT_DpOT0_, symObjAddr: 0x14FE0, symBinAddr: 0x100019950, symSize: 0x5B0 }
  - { offsetInCU: 0x35F4E, offset: 0x4DE57, size: 0x8, addend: 0x0, symName: __ZNKSt3__115__hash_iteratorIPNS_11__hash_nodeINS_17__hash_value_typeINS_12basic_stringIcNS_11char_traitsIcEENS_9allocatorIcEEEENS_6vectorI4PathNS6_ISA_EEEEEEPvEEEptB7v160006Ev, symObjAddr: 0x155C0, symBinAddr: 0x100019F30, symSize: 0x30 }
  - { offsetInCU: 0x35F73, offset: 0x4DE7C, size: 0x8, addend: 0x0, symName: __ZNSt3__112__hash_tableINS_17__hash_value_typeINS_12basic_stringIcNS_11char_traitsIcEENS_9allocatorIcEEEENS_6vectorI4PathNS5_IS9_EEEEEENS_22__unordered_map_hasherIS7_SC_NS_4hashIS7_EENS_8equal_toIS7_EELb1EEENS_21__unordered_map_equalIS7_SC_SH_SF_Lb1EEENS5_ISC_EEE13hash_functionB7v160006Ev, symObjAddr: 0x155F0, symBinAddr: 0x100019F60, symSize: 0x20 }
  - { offsetInCU: 0x35F98, offset: 0x4DEA1, size: 0x8, addend: 0x0, symName: __ZNSt3__112__hash_tableINS_17__hash_value_typeINS_12basic_stringIcNS_11char_traitsIcEENS_9allocatorIcEEEENS_6vectorI4PathNS5_IS9_EEEEEENS_22__unordered_map_hasherIS7_SC_NS_4hashIS7_EENS_8equal_toIS7_EELb1EEENS_21__unordered_map_equalIS7_SC_SH_SF_Lb1EEENS5_ISC_EEE6key_eqB7v160006Ev, symObjAddr: 0x15610, symBinAddr: 0x100019F80, symSize: 0x20 }
  - { offsetInCU: 0x35FBD, offset: 0x4DEC6, size: 0x8, addend: 0x0, symName: __ZNSt3__112__hash_tableINS_17__hash_value_typeINS_12basic_stringIcNS_11char_traitsIcEENS_9allocatorIcEEEENS_6vectorI4PathNS5_IS9_EEEEEENS_22__unordered_map_hasherIS7_SC_NS_4hashIS7_EENS_8equal_toIS7_EELb1EEENS_21__unordered_map_equalIS7_SC_SH_SF_Lb1EEENS5_ISC_EEE21__construct_node_hashIRKNS_21piecewise_construct_tEJNS_5tupleIJRKS7_EEENSR_IJEEEEEENS_10unique_ptrINS_11__hash_nodeISC_PvEENS_22__hash_node_destructorINS5_ISZ_EEEEEEmOT_DpOT0_, symObjAddr: 0x15630, symBinAddr: 0x100019FA0, symSize: 0x150 }
  - { offsetInCU: 0x36057, offset: 0x4DF60, size: 0x8, addend: 0x0, symName: __ZNSt3__112__hash_tableINS_17__hash_value_typeINS_12basic_stringIcNS_11char_traitsIcEENS_9allocatorIcEEEENS_6vectorI4PathNS5_IS9_EEEEEENS_22__unordered_map_hasherIS7_SC_NS_4hashIS7_EENS_8equal_toIS7_EELb1EEENS_21__unordered_map_equalIS7_SC_SH_SF_Lb1EEENS5_ISC_EEE4sizeB7v160006Ev, symObjAddr: 0x15780, symBinAddr: 0x10001A0F0, symSize: 0x20 }
  - { offsetInCU: 0x3607C, offset: 0x4DF85, size: 0x8, addend: 0x0, symName: __ZNSt3__112__hash_tableINS_17__hash_value_typeINS_12basic_stringIcNS_11char_traitsIcEENS_9allocatorIcEEEENS_6vectorI4PathNS5_IS9_EEEEEENS_22__unordered_map_hasherIS7_SC_NS_4hashIS7_EENS_8equal_toIS7_EELb1EEENS_21__unordered_map_equalIS7_SC_SH_SF_Lb1EEENS5_ISC_EEE15max_load_factorB7v160006Ev, symObjAddr: 0x157A0, symBinAddr: 0x10001A110, symSize: 0x20 }
  - { offsetInCU: 0x360A1, offset: 0x4DFAA, size: 0x8, addend: 0x0, symName: __ZNSt3__112__hash_tableINS_17__hash_value_typeINS_12basic_stringIcNS_11char_traitsIcEENS_9allocatorIcEEEENS_6vectorI4PathNS5_IS9_EEEEEENS_22__unordered_map_hasherIS7_SC_NS_4hashIS7_EENS_8equal_toIS7_EELb1EEENS_21__unordered_map_equalIS7_SC_SH_SF_Lb1EEENS5_ISC_EEE15__rehash_uniqueB7v160006Em, symObjAddr: 0x157C0, symBinAddr: 0x10001A130, symSize: 0x30 }
  - { offsetInCU: 0x360D5, offset: 0x4DFDE, size: 0x8, addend: 0x0, symName: __ZNSt3__116__hash_node_baseIPNS_11__hash_nodeINS_17__hash_value_typeINS_12basic_stringIcNS_11char_traitsIcEENS_9allocatorIcEEEENS_6vectorI4PathNS6_ISA_EEEEEEPvEEE5__ptrB7v160006Ev, symObjAddr: 0x157F0, symBinAddr: 0x10001A160, symSize: 0x20 }
  - { offsetInCU: 0x360FA, offset: 0x4E003, size: 0x8, addend: 0x0, symName: __ZNKSt3__110unique_ptrINS_11__hash_nodeINS_17__hash_value_typeINS_12basic_stringIcNS_11char_traitsIcEENS_9allocatorIcEEEENS_6vectorI4PathNS6_ISA_EEEEEEPvEENS_22__hash_node_destructorINS6_ISF_EEEEEptB7v160006Ev, symObjAddr: 0x15810, symBinAddr: 0x10001A180, symSize: 0x20 }
  - { offsetInCU: 0x3611F, offset: 0x4E028, size: 0x8, addend: 0x0, symName: __ZNKSt3__110unique_ptrINS_11__hash_nodeINS_17__hash_value_typeINS_12basic_stringIcNS_11char_traitsIcEENS_9allocatorIcEEEENS_6vectorI4PathNS6_ISA_EEEEEEPvEENS_22__hash_node_destructorINS6_ISF_EEEEE3getB7v160006Ev, symObjAddr: 0x15830, symBinAddr: 0x10001A1A0, symSize: 0x20 }
  - { offsetInCU: 0x36144, offset: 0x4E04D, size: 0x8, addend: 0x0, symName: __ZNSt3__110unique_ptrINS_11__hash_nodeINS_17__hash_value_typeINS_12basic_stringIcNS_11char_traitsIcEENS_9allocatorIcEEEENS_6vectorI4PathNS6_ISA_EEEEEEPvEENS_22__hash_node_destructorINS6_ISF_EEEEE7releaseB7v160006Ev, symObjAddr: 0x15850, symBinAddr: 0x10001A1C0, symSize: 0x40 }
  - { offsetInCU: 0x36178, offset: 0x4E081, size: 0x8, addend: 0x0, symName: __ZNSt3__110unique_ptrINS_11__hash_nodeINS_17__hash_value_typeINS_12basic_stringIcNS_11char_traitsIcEENS_9allocatorIcEEEENS_6vectorI4PathNS6_ISA_EEEEEEPvEENS_22__hash_node_destructorINS6_ISF_EEEEED1B7v160006Ev, symObjAddr: 0x15890, symBinAddr: 0x10001A200, symSize: 0x20 }
  - { offsetInCU: 0x361A1, offset: 0x4E0AA, size: 0x8, addend: 0x0, symName: __ZNSt3__115__hash_iteratorIPNS_11__hash_nodeINS_17__hash_value_typeINS_12basic_stringIcNS_11char_traitsIcEENS_9allocatorIcEEEENS_6vectorI4PathNS6_ISA_EEEEEEPvEEEC1B7v160006EPNS_16__hash_node_baseISG_EEPKv, symObjAddr: 0x158B0, symBinAddr: 0x10001A220, symSize: 0x30 }
  - { offsetInCU: 0x361ED, offset: 0x4E0F6, size: 0x8, addend: 0x0, symName: __ZNSt3__14pairINS_15__hash_iteratorIPNS_11__hash_nodeINS_17__hash_value_typeINS_12basic_stringIcNS_11char_traitsIcEENS_9allocatorIcEEEENS_6vectorI4PathNS7_ISB_EEEEEEPvEEEEbEC1B7v160006ISI_RbLSF_0EEEOT_OT0_, symObjAddr: 0x158E0, symBinAddr: 0x10001A250, symSize: 0x30 }
  - { offsetInCU: 0x3624A, offset: 0x4E153, size: 0x8, addend: 0x0, symName: __ZNSt3__117__compressed_pairImNS_22__unordered_map_hasherINS_12basic_stringIcNS_11char_traitsIcEENS_9allocatorIcEEEENS_17__hash_value_typeIS7_NS_6vectorI4PathNS5_ISA_EEEEEENS_4hashIS7_EENS_8equal_toIS7_EELb1EEEE6secondB7v160006Ev, symObjAddr: 0x15910, symBinAddr: 0x10001A280, symSize: 0x20 }
  - { offsetInCU: 0x3626F, offset: 0x4E178, size: 0x8, addend: 0x0, symName: __ZNSt3__122__compressed_pair_elemINS_22__unordered_map_hasherINS_12basic_stringIcNS_11char_traitsIcEENS_9allocatorIcEEEENS_17__hash_value_typeIS7_NS_6vectorI4PathNS5_ISA_EEEEEENS_4hashIS7_EENS_8equal_toIS7_EELb1EEELi1ELb1EE5__getB7v160006Ev, symObjAddr: 0x15930, symBinAddr: 0x10001A2A0, symSize: 0x10 }
  - { offsetInCU: 0x36294, offset: 0x4E19D, size: 0x8, addend: 0x0, symName: __ZNSt3__117__compressed_pairIfNS_21__unordered_map_equalINS_12basic_stringIcNS_11char_traitsIcEENS_9allocatorIcEEEENS_17__hash_value_typeIS7_NS_6vectorI4PathNS5_ISA_EEEEEENS_8equal_toIS7_EENS_4hashIS7_EELb1EEEE6secondB7v160006Ev, symObjAddr: 0x15940, symBinAddr: 0x10001A2B0, symSize: 0x20 }
  - { offsetInCU: 0x362B9, offset: 0x4E1C2, size: 0x8, addend: 0x0, symName: __ZNSt3__122__compressed_pair_elemINS_21__unordered_map_equalINS_12basic_stringIcNS_11char_traitsIcEENS_9allocatorIcEEEENS_17__hash_value_typeIS7_NS_6vectorI4PathNS5_ISA_EEEEEENS_8equal_toIS7_EENS_4hashIS7_EELb1EEELi1ELb1EE5__getB7v160006Ev, symObjAddr: 0x15960, symBinAddr: 0x10001A2D0, symSize: 0x10 }
  - { offsetInCU: 0x362DE, offset: 0x4E1E7, size: 0x8, addend: 0x0, symName: __ZNSt3__116allocator_traitsINS_9allocatorINS_11__hash_nodeINS_17__hash_value_typeINS_12basic_stringIcNS_11char_traitsIcEENS1_IcEEEENS_6vectorI4PathNS1_ISA_EEEEEEPvEEEEE8allocateB7v160006ERSG_m, symObjAddr: 0x15970, symBinAddr: 0x10001A2E0, symSize: 0x30 }
  - { offsetInCU: 0x36311, offset: 0x4E21A, size: 0x8, addend: 0x0, symName: __ZNSt3__122__hash_node_destructorINS_9allocatorINS_11__hash_nodeINS_17__hash_value_typeINS_12basic_stringIcNS_11char_traitsIcEENS1_IcEEEENS_6vectorI4PathNS1_ISA_EEEEEEPvEEEEEC1B7v160006ERSG_b, symObjAddr: 0x159A0, symBinAddr: 0x10001A310, symSize: 0x40 }
  - { offsetInCU: 0x3635D, offset: 0x4E266, size: 0x8, addend: 0x0, symName: __ZNSt3__110unique_ptrINS_11__hash_nodeINS_17__hash_value_typeINS_12basic_stringIcNS_11char_traitsIcEENS_9allocatorIcEEEENS_6vectorI4PathNS6_ISA_EEEEEEPvEENS_22__hash_node_destructorINS6_ISF_EEEEEC1B7v160006ILb1EvEEPSF_NS_16__dependent_typeINS_27__unique_ptr_deleter_sfinaeISI_EEXT_EE20__good_rval_ref_typeE, symObjAddr: 0x159E0, symBinAddr: 0x10001A350, symSize: 0x30 }
  - { offsetInCU: 0x363AD, offset: 0x4E2B6, size: 0x8, addend: 0x0, symName: __ZNSt3__116allocator_traitsINS_9allocatorINS_11__hash_nodeINS_17__hash_value_typeINS_12basic_stringIcNS_11char_traitsIcEENS1_IcEEEENS_6vectorI4PathNS1_ISA_EEEEEEPvEEEEE9constructB7v160006INS_4pairIKS8_SC_EEJRKNS_21piecewise_construct_tENS_5tupleIJRSK_EEENSP_IJEEEEvvEEvRSG_PT_DpOT0_, symObjAddr: 0x15A10, symBinAddr: 0x10001A380, symSize: 0x40 }
  - { offsetInCU: 0x3642A, offset: 0x4E333, size: 0x8, addend: 0x0, symName: __ZNSt3__110unique_ptrINS_11__hash_nodeINS_17__hash_value_typeINS_12basic_stringIcNS_11char_traitsIcEENS_9allocatorIcEEEENS_6vectorI4PathNS6_ISA_EEEEEEPvEENS_22__hash_node_destructorINS6_ISF_EEEEE11get_deleterB7v160006Ev, symObjAddr: 0x15A50, symBinAddr: 0x10001A3C0, symSize: 0x20 }
  - { offsetInCU: 0x3644F, offset: 0x4E358, size: 0x8, addend: 0x0, symName: __ZNSt3__19allocatorINS_11__hash_nodeINS_17__hash_value_typeINS_12basic_stringIcNS_11char_traitsIcEENS0_IcEEEENS_6vectorI4PathNS0_IS9_EEEEEEPvEEE8allocateB7v160006Em, symObjAddr: 0x15A70, symBinAddr: 0x10001A3E0, symSize: 0x50 }
  - { offsetInCU: 0x3648C, offset: 0x4E395, size: 0x8, addend: 0x0, symName: __ZNSt3__116allocator_traitsINS_9allocatorINS_11__hash_nodeINS_17__hash_value_typeINS_12basic_stringIcNS_11char_traitsIcEENS1_IcEEEENS_6vectorI4PathNS1_ISA_EEEEEEPvEEEEE8max_sizeB7v160006ISG_vvEEmRKSG_, symObjAddr: 0x15AC0, symBinAddr: 0x10001A430, symSize: 0x20 }
  - { offsetInCU: 0x364B8, offset: 0x4E3C1, size: 0x8, addend: 0x0, symName: __ZNSt3__122__hash_node_destructorINS_9allocatorINS_11__hash_nodeINS_17__hash_value_typeINS_12basic_stringIcNS_11char_traitsIcEENS1_IcEEEENS_6vectorI4PathNS1_ISA_EEEEEEPvEEEEEC2B7v160006ERSG_b, symObjAddr: 0x15AE0, symBinAddr: 0x10001A450, symSize: 0x30 }
  - { offsetInCU: 0x364FF, offset: 0x4E408, size: 0x8, addend: 0x0, symName: __ZNSt3__110unique_ptrINS_11__hash_nodeINS_17__hash_value_typeINS_12basic_stringIcNS_11char_traitsIcEENS_9allocatorIcEEEENS_6vectorI4PathNS6_ISA_EEEEEEPvEENS_22__hash_node_destructorINS6_ISF_EEEEEC2B7v160006ILb1EvEEPSF_NS_16__dependent_typeINS_27__unique_ptr_deleter_sfinaeISI_EEXT_EE20__good_rval_ref_typeE, symObjAddr: 0x15B10, symBinAddr: 0x10001A480, symSize: 0x40 }
  - { offsetInCU: 0x3654F, offset: 0x4E458, size: 0x8, addend: 0x0, symName: __ZNSt3__117__compressed_pairIPNS_11__hash_nodeINS_17__hash_value_typeINS_12basic_stringIcNS_11char_traitsIcEENS_9allocatorIcEEEENS_6vectorI4PathNS6_ISA_EEEEEEPvEENS_22__hash_node_destructorINS6_ISF_EEEEEC1B7v160006IRSG_SJ_EEOT_OT0_, symObjAddr: 0x15B50, symBinAddr: 0x10001A4C0, symSize: 0x30 }
  - { offsetInCU: 0x365A6, offset: 0x4E4AF, size: 0x8, addend: 0x0, symName: __ZNSt3__117__compressed_pairIPNS_11__hash_nodeINS_17__hash_value_typeINS_12basic_stringIcNS_11char_traitsIcEENS_9allocatorIcEEEENS_6vectorI4PathNS6_ISA_EEEEEEPvEENS_22__hash_node_destructorINS6_ISF_EEEEEC2B7v160006IRSG_SJ_EEOT_OT0_, symObjAddr: 0x15B80, symBinAddr: 0x10001A4F0, symSize: 0x40 }
  - { offsetInCU: 0x365FD, offset: 0x4E506, size: 0x8, addend: 0x0, symName: __ZNSt3__122__compressed_pair_elemIPNS_11__hash_nodeINS_17__hash_value_typeINS_12basic_stringIcNS_11char_traitsIcEENS_9allocatorIcEEEENS_6vectorI4PathNS6_ISA_EEEEEEPvEELi0ELb0EEC2B7v160006IRSG_vEEOT_, symObjAddr: 0x15BC0, symBinAddr: 0x10001A530, symSize: 0x20 }
  - { offsetInCU: 0x3663E, offset: 0x4E547, size: 0x8, addend: 0x0, symName: __ZNSt3__122__compressed_pair_elemINS_22__hash_node_destructorINS_9allocatorINS_11__hash_nodeINS_17__hash_value_typeINS_12basic_stringIcNS_11char_traitsIcEENS2_IcEEEENS_6vectorI4PathNS2_ISB_EEEEEEPvEEEEEELi1ELb0EEC2B7v160006ISI_vEEOT_, symObjAddr: 0x15BE0, symBinAddr: 0x10001A550, symSize: 0x30 }
  - { offsetInCU: 0x3667F, offset: 0x4E588, size: 0x8, addend: 0x0, symName: __ZNSt3__14pairIKNS_12basic_stringIcNS_11char_traitsIcEENS_9allocatorIcEEEENS_6vectorI4PathNS4_IS9_EEEEEC1B7v160006IJRS7_EJEEENS_21piecewise_construct_tENS_5tupleIJDpT_EEENSG_IJDpT0_EEE, symObjAddr: 0x15C60, symBinAddr: 0x10001A5D0, symSize: 0x30 }
  - { offsetInCU: 0x366E5, offset: 0x4E5EE, size: 0x8, addend: 0x0, symName: __ZNSt3__14pairIKNS_12basic_stringIcNS_11char_traitsIcEENS_9allocatorIcEEEENS_6vectorI4PathNS4_IS9_EEEEEC1B7v160006IJRS7_EJEJLm0EEJEEENS_21piecewise_construct_tERNS_5tupleIJDpT_EEERNSG_IJDpT0_EEENS_15__tuple_indicesIJXspT1_EEEENSP_IJXspT2_EEEE, symObjAddr: 0x15C90, symBinAddr: 0x10001A600, symSize: 0x30 }
  - { offsetInCU: 0x36774, offset: 0x4E67D, size: 0x8, addend: 0x0, symName: __ZNSt3__14pairIKNS_12basic_stringIcNS_11char_traitsIcEENS_9allocatorIcEEEENS_6vectorI4PathNS4_IS9_EEEEEC2B7v160006IJRS7_EJEJLm0EEJEEENS_21piecewise_construct_tERNS_5tupleIJDpT_EEERNSG_IJDpT0_EEENS_15__tuple_indicesIJXspT1_EEEENSP_IJXspT2_EEEE, symObjAddr: 0x15CC0, symBinAddr: 0x10001A630, symSize: 0x50 }
  - { offsetInCU: 0x36803, offset: 0x4E70C, size: 0x8, addend: 0x0, symName: __ZNSt3__112__tuple_leafILm0ERKNS_12basic_stringIcNS_11char_traitsIcEENS_9allocatorIcEEEELb0EE3getB7v160006Ev, symObjAddr: 0x15D30, symBinAddr: 0x10001A6A0, symSize: 0x20 }
  - { offsetInCU: 0x36828, offset: 0x4E731, size: 0x8, addend: 0x0, symName: __ZNSt3__117__compressed_pairIPNS_11__hash_nodeINS_17__hash_value_typeINS_12basic_stringIcNS_11char_traitsIcEENS_9allocatorIcEEEENS_6vectorI4PathNS6_ISA_EEEEEEPvEENS_22__hash_node_destructorINS6_ISF_EEEEE6secondB7v160006Ev, symObjAddr: 0x15D50, symBinAddr: 0x10001A6C0, symSize: 0x20 }
  - { offsetInCU: 0x3684D, offset: 0x4E756, size: 0x8, addend: 0x0, symName: __ZNSt3__122__compressed_pair_elemINS_22__hash_node_destructorINS_9allocatorINS_11__hash_nodeINS_17__hash_value_typeINS_12basic_stringIcNS_11char_traitsIcEENS2_IcEEEENS_6vectorI4PathNS2_ISB_EEEEEEPvEEEEEELi1ELb0EE5__getB7v160006Ev, symObjAddr: 0x15D70, symBinAddr: 0x10001A6E0, symSize: 0x10 }
  - { offsetInCU: 0x36872, offset: 0x4E77B, size: 0x8, addend: 0x0, symName: __ZNSt3__117__compressed_pairImNS_22__unordered_map_hasherINS_12basic_stringIcNS_11char_traitsIcEENS_9allocatorIcEEEENS_17__hash_value_typeIS7_NS_6vectorI4PathNS5_ISA_EEEEEENS_4hashIS7_EENS_8equal_toIS7_EELb1EEEE5firstB7v160006Ev, symObjAddr: 0x15D80, symBinAddr: 0x10001A6F0, symSize: 0x20 }
  - { offsetInCU: 0x36897, offset: 0x4E7A0, size: 0x8, addend: 0x0, symName: __ZNSt3__117__compressed_pairIfNS_21__unordered_map_equalINS_12basic_stringIcNS_11char_traitsIcEENS_9allocatorIcEEEENS_17__hash_value_typeIS7_NS_6vectorI4PathNS5_ISA_EEEEEENS_8equal_toIS7_EENS_4hashIS7_EELb1EEEE5firstB7v160006Ev, symObjAddr: 0x15DA0, symBinAddr: 0x10001A710, symSize: 0x20 }
  - { offsetInCU: 0x368BC, offset: 0x4E7C5, size: 0x8, addend: 0x0, symName: __ZNSt3__112__hash_tableINS_17__hash_value_typeINS_12basic_stringIcNS_11char_traitsIcEENS_9allocatorIcEEEENS_6vectorI4PathNS5_IS9_EEEEEENS_22__unordered_map_hasherIS7_SC_NS_4hashIS7_EENS_8equal_toIS7_EELb1EEENS_21__unordered_map_equalIS7_SC_SH_SF_Lb1EEENS5_ISC_EEE8__rehashILb1EEEvm, symObjAddr: 0x15DC0, symBinAddr: 0x10001A730, symSize: 0x230 }
  - { offsetInCU: 0x3690A, offset: 0x4E813, size: 0x8, addend: 0x0, symName: __ZNSt3__112__hash_tableINS_17__hash_value_typeINS_12basic_stringIcNS_11char_traitsIcEENS_9allocatorIcEEEENS_6vectorI4PathNS5_IS9_EEEEEENS_22__unordered_map_hasherIS7_SC_NS_4hashIS7_EENS_8equal_toIS7_EELb1EEENS_21__unordered_map_equalIS7_SC_SH_SF_Lb1EEENS5_ISC_EEE11__do_rehashILb1EEEvm, symObjAddr: 0x15FF0, symBinAddr: 0x10001A960, symSize: 0x260 }
  - { offsetInCU: 0x369EB, offset: 0x4E8F4, size: 0x8, addend: 0x0, symName: __ZNSt3__110unique_ptrIA_PNS_16__hash_node_baseIPNS_11__hash_nodeINS_17__hash_value_typeINS_12basic_stringIcNS_11char_traitsIcEENS_9allocatorIcEEEENS_6vectorI4PathNS7_ISB_EEEEEEPvEEEENS_25__bucket_list_deallocatorINS7_ISJ_EEEEE11get_deleterB7v160006Ev, symObjAddr: 0x16260, symBinAddr: 0x10001ABD0, symSize: 0x20 }
  - { offsetInCU: 0x36A10, offset: 0x4E919, size: 0x8, addend: 0x0, symName: __ZNSt3__110unique_ptrIA_PNS_16__hash_node_baseIPNS_11__hash_nodeINS_17__hash_value_typeINS_12basic_stringIcNS_11char_traitsIcEENS_9allocatorIcEEEENS_6vectorI4PathNS7_ISB_EEEEEEPvEEEENS_25__bucket_list_deallocatorINS7_ISJ_EEEEE5resetB7v160006IPSJ_EENS_9enable_ifIXsr28_CheckArrayPointerConversionIT_EE5valueEvE4typeESS_, symObjAddr: 0x16280, symBinAddr: 0x10001ABF0, symSize: 0x70 }
  - { offsetInCU: 0x36A5C, offset: 0x4E965, size: 0x8, addend: 0x0, symName: __ZNSt3__116allocator_traitsINS_9allocatorIPNS_16__hash_node_baseIPNS_11__hash_nodeINS_17__hash_value_typeINS_12basic_stringIcNS_11char_traitsIcEENS1_IcEEEENS_6vectorI4PathNS1_ISB_EEEEEEPvEEEEEEE8allocateB7v160006ERSK_m, symObjAddr: 0x162F0, symBinAddr: 0x10001AC60, symSize: 0x30 }
  - { offsetInCU: 0x36A8F, offset: 0x4E998, size: 0x8, addend: 0x0, symName: __ZNSt3__19allocatorIPNS_16__hash_node_baseIPNS_11__hash_nodeINS_17__hash_value_typeINS_12basic_stringIcNS_11char_traitsIcEENS0_IcEEEENS_6vectorI4PathNS0_ISA_EEEEEEPvEEEEE8allocateB7v160006Em, symObjAddr: 0x16320, symBinAddr: 0x10001AC90, symSize: 0x50 }
  - { offsetInCU: 0x36ACC, offset: 0x4E9D5, size: 0x8, addend: 0x0, symName: __ZNSt3__116allocator_traitsINS_9allocatorIPNS_16__hash_node_baseIPNS_11__hash_nodeINS_17__hash_value_typeINS_12basic_stringIcNS_11char_traitsIcEENS1_IcEEEENS_6vectorI4PathNS1_ISB_EEEEEEPvEEEEEEE8max_sizeB7v160006ISK_vvEEmRKSK_, symObjAddr: 0x16370, symBinAddr: 0x10001ACE0, symSize: 0x20 }
  - { offsetInCU: 0x36AF8, offset: 0x4EA01, size: 0x8, addend: 0x0, symName: __ZNKSt3__117__compressed_pairIPNS_11__hash_nodeINS_17__hash_value_typeINS_12basic_stringIcNS_11char_traitsIcEENS_9allocatorIcEEEENS_6vectorI4PathNS6_ISA_EEEEEEPvEENS_22__hash_node_destructorINS6_ISF_EEEEE5firstB7v160006Ev, symObjAddr: 0x16390, symBinAddr: 0x10001AD00, symSize: 0x20 }
  - { offsetInCU: 0x36B1D, offset: 0x4EA26, size: 0x8, addend: 0x0, symName: __ZNKSt3__122__compressed_pair_elemIPNS_11__hash_nodeINS_17__hash_value_typeINS_12basic_stringIcNS_11char_traitsIcEENS_9allocatorIcEEEENS_6vectorI4PathNS6_ISA_EEEEEEPvEELi0ELb0EE5__getB7v160006Ev, symObjAddr: 0x163B0, symBinAddr: 0x10001AD20, symSize: 0x10 }
  - { offsetInCU: 0x36B42, offset: 0x4EA4B, size: 0x8, addend: 0x0, symName: __ZNSt3__117__compressed_pairIPNS_11__hash_nodeINS_17__hash_value_typeINS_12basic_stringIcNS_11char_traitsIcEENS_9allocatorIcEEEENS_6vectorI4PathNS6_ISA_EEEEEEPvEENS_22__hash_node_destructorINS6_ISF_EEEEE5firstB7v160006Ev, symObjAddr: 0x163C0, symBinAddr: 0x10001AD30, symSize: 0x20 }
  - { offsetInCU: 0x36B67, offset: 0x4EA70, size: 0x8, addend: 0x0, symName: __ZNSt3__122__compressed_pair_elemIPNS_11__hash_nodeINS_17__hash_value_typeINS_12basic_stringIcNS_11char_traitsIcEENS_9allocatorIcEEEENS_6vectorI4PathNS6_ISA_EEEEEEPvEELi0ELb0EE5__getB7v160006Ev, symObjAddr: 0x163E0, symBinAddr: 0x10001AD50, symSize: 0x10 }
  - { offsetInCU: 0x36B8C, offset: 0x4EA95, size: 0x8, addend: 0x0, symName: __ZNSt3__110unique_ptrINS_11__hash_nodeINS_17__hash_value_typeINS_12basic_stringIcNS_11char_traitsIcEENS_9allocatorIcEEEENS_6vectorI4PathNS6_ISA_EEEEEEPvEENS_22__hash_node_destructorINS6_ISF_EEEEED2B7v160006Ev, symObjAddr: 0x163F0, symBinAddr: 0x10001AD60, symSize: 0x20 }
  - { offsetInCU: 0x36BB5, offset: 0x4EABE, size: 0x8, addend: 0x0, symName: __ZNSt3__110unique_ptrINS_11__hash_nodeINS_17__hash_value_typeINS_12basic_stringIcNS_11char_traitsIcEENS_9allocatorIcEEEENS_6vectorI4PathNS6_ISA_EEEEEEPvEENS_22__hash_node_destructorINS6_ISF_EEEEE5resetB7v160006EPSF_, symObjAddr: 0x16410, symBinAddr: 0x10001AD80, symSize: 0x70 }
  - { offsetInCU: 0x36BF8, offset: 0x4EB01, size: 0x8, addend: 0x0, symName: __ZNSt3__122__hash_node_destructorINS_9allocatorINS_11__hash_nodeINS_17__hash_value_typeINS_12basic_stringIcNS_11char_traitsIcEENS1_IcEEEENS_6vectorI4PathNS1_ISA_EEEEEEPvEEEEEclB7v160006EPSF_, symObjAddr: 0x16480, symBinAddr: 0x10001ADF0, symSize: 0x90 }
  - { offsetInCU: 0x36C2C, offset: 0x4EB35, size: 0x8, addend: 0x0, symName: __ZNSt3__115__hash_iteratorIPNS_11__hash_nodeINS_17__hash_value_typeINS_12basic_stringIcNS_11char_traitsIcEENS_9allocatorIcEEEENS_6vectorI4PathNS6_ISA_EEEEEEPvEEEC2B7v160006EPNS_16__hash_node_baseISG_EEPKv, symObjAddr: 0x16510, symBinAddr: 0x10001AE80, symSize: 0x20 }
  - { offsetInCU: 0x36C73, offset: 0x4EB7C, size: 0x8, addend: 0x0, symName: __ZNSt3__14pairINS_15__hash_iteratorIPNS_11__hash_nodeINS_17__hash_value_typeINS_12basic_stringIcNS_11char_traitsIcEENS_9allocatorIcEEEENS_6vectorI4PathNS7_ISB_EEEEEEPvEEEEbEC2B7v160006ISI_RbLSF_0EEEOT_OT0_, symObjAddr: 0x16530, symBinAddr: 0x10001AEA0, symSize: 0x30 }
  - { offsetInCU: 0x36CD0, offset: 0x4EBD9, size: 0x8, addend: 0x0, symName: __ZNSt3__15tupleIJRKNS_12basic_stringIcNS_11char_traitsIcEENS_9allocatorIcEEEEEEC1B7v160006INS_4_AndELi0EEES8_, symObjAddr: 0x16560, symBinAddr: 0x10001AED0, symSize: 0x30 }
  - { offsetInCU: 0x36D18, offset: 0x4EC21, size: 0x8, addend: 0x0, symName: __ZNSt3__15tupleIJRKNS_12basic_stringIcNS_11char_traitsIcEENS_9allocatorIcEEEEEEC2B7v160006INS_4_AndELi0EEES8_, symObjAddr: 0x16590, symBinAddr: 0x10001AF00, symSize: 0x30 }
  - { offsetInCU: 0x36D60, offset: 0x4EC69, size: 0x8, addend: 0x0, symName: __ZNSt3__112__tuple_implINS_15__tuple_indicesIJLm0EEEEJRKNS_12basic_stringIcNS_11char_traitsIcEENS_9allocatorIcEEEEEEC1B7v160006IJLm0EEJSA_EJEJEJSA_EEENS1_IJXspT_EEEENS_13__tuple_typesIJDpT0_EEENS1_IJXspT1_EEEENSE_IJDpT2_EEEDpOT3_, symObjAddr: 0x165C0, symBinAddr: 0x10001AF30, symSize: 0x30 }
  - { offsetInCU: 0x36DF4, offset: 0x4ECFD, size: 0x8, addend: 0x0, symName: __ZNSt3__112__tuple_implINS_15__tuple_indicesIJLm0EEEEJRKNS_12basic_stringIcNS_11char_traitsIcEENS_9allocatorIcEEEEEEC2B7v160006IJLm0EEJSA_EJEJEJSA_EEENS1_IJXspT_EEEENS_13__tuple_typesIJDpT0_EEENS1_IJXspT1_EEEENSE_IJDpT2_EEEDpOT3_, symObjAddr: 0x165F0, symBinAddr: 0x10001AF60, symSize: 0x30 }
  - { offsetInCU: 0x36E88, offset: 0x4ED91, size: 0x8, addend: 0x0, symName: __ZNSt3__112__tuple_leafILm0ERKNS_12basic_stringIcNS_11char_traitsIcEENS_9allocatorIcEEEELb0EEC2B7v160006IS8_vEEOT_, symObjAddr: 0x16620, symBinAddr: 0x10001AF90, symSize: 0x20 }
  - { offsetInCU: 0x36ECA, offset: 0x4EDD3, size: 0x8, addend: 0x0, symName: __ZNSt3__114pointer_traitsIPNS_17__hash_value_typeINS_12basic_stringIcNS_11char_traitsIcEENS_9allocatorIcEEEENS_6vectorI4PathNS5_IS9_EEEEEEE10pointer_toB7v160006ERSC_, symObjAddr: 0x16640, symBinAddr: 0x10001AFB0, symSize: 0x10 }
  - { offsetInCU: 0x36EED, offset: 0x4EDF6, size: 0x8, addend: 0x0, symName: __ZNSt3__112__hash_tableINS_17__hash_value_typeIi4HostEENS_22__unordered_map_hasherIiS3_NS_4hashIiEENS_8equal_toIiEELb1EEENS_21__unordered_map_equalIiS3_S8_S6_Lb1EEENS_9allocatorIS3_EEE16__emplace_uniqueB7v160006IRiS2_EENS_9enable_ifIXsr21__can_extract_map_keyIT_iNS_4pairIKiS2_EEEE5valueENSJ_INS_15__hash_iteratorIPNS_11__hash_nodeIS3_PvEEEEbEEE4typeEOSI_OT0_, symObjAddr: 0x16650, symBinAddr: 0x10001AFC0, symSize: 0x40 }
  - { offsetInCU: 0x36F42, offset: 0x4EE4B, size: 0x8, addend: 0x0, symName: __ZNSt3__14pairINS_19__hash_map_iteratorINS_15__hash_iteratorIPNS_11__hash_nodeINS_17__hash_value_typeIi4HostEEPvEEEEEEbEC1B7v160006ISA_bLS7_0EEEONS0_IT_T0_EE, symObjAddr: 0x16690, symBinAddr: 0x10001B000, symSize: 0x30 }
  - { offsetInCU: 0x36F92, offset: 0x4EE9B, size: 0x8, addend: 0x0, symName: __ZNSt3__112__hash_tableINS_17__hash_value_typeIi4HostEENS_22__unordered_map_hasherIiS3_NS_4hashIiEENS_8equal_toIiEELb1EEENS_21__unordered_map_equalIiS3_S8_S6_Lb1EEENS_9allocatorIS3_EEE25__emplace_unique_key_argsIiJRiS2_EEENS_4pairINS_15__hash_iteratorIPNS_11__hash_nodeIS3_PvEEEEbEERKT_DpOT0_, symObjAddr: 0x166C0, symBinAddr: 0x10001B030, symSize: 0x5F0 }
  - { offsetInCU: 0x37084, offset: 0x4EF8D, size: 0x8, addend: 0x0, symName: __ZNSt3__112__hash_tableINS_17__hash_value_typeIi4HostEENS_22__unordered_map_hasherIiS3_NS_4hashIiEENS_8equal_toIiEELb1EEENS_21__unordered_map_equalIiS3_S8_S6_Lb1EEENS_9allocatorIS3_EEE13hash_functionB7v160006Ev, symObjAddr: 0x16CB0, symBinAddr: 0x10001B620, symSize: 0x20 }
  - { offsetInCU: 0x370A9, offset: 0x4EFB2, size: 0x8, addend: 0x0, symName: __ZNKSt3__122__unordered_map_hasherIiNS_17__hash_value_typeIi4HostEENS_4hashIiEENS_8equal_toIiEELb1EEclB7v160006ERKi, symObjAddr: 0x16CD0, symBinAddr: 0x10001B640, symSize: 0x30 }
  - { offsetInCU: 0x370DD, offset: 0x4EFE6, size: 0x8, addend: 0x0, symName: __ZNKSt3__112__hash_tableINS_17__hash_value_typeIi4HostEENS_22__unordered_map_hasherIiS3_NS_4hashIiEENS_8equal_toIiEELb1EEENS_21__unordered_map_equalIiS3_S8_S6_Lb1EEENS_9allocatorIS3_EEE12bucket_countB7v160006Ev, symObjAddr: 0x16D00, symBinAddr: 0x10001B670, symSize: 0x30 }
  - { offsetInCU: 0x37102, offset: 0x4F00B, size: 0x8, addend: 0x0, symName: __ZNKSt3__110unique_ptrIA_PNS_16__hash_node_baseIPNS_11__hash_nodeINS_17__hash_value_typeIi4HostEEPvEEEENS_25__bucket_list_deallocatorINS_9allocatorISA_EEEEEixB7v160006Em, symObjAddr: 0x16D30, symBinAddr: 0x10001B6A0, symSize: 0x30 }
  - { offsetInCU: 0x37136, offset: 0x4F03F, size: 0x8, addend: 0x0, symName: __ZNKSt3__116__hash_node_baseIPNS_11__hash_nodeINS_17__hash_value_typeIi4HostEEPvEEE6__hashB7v160006Ev, symObjAddr: 0x16D60, symBinAddr: 0x10001B6D0, symSize: 0x20 }
  - { offsetInCU: 0x3715B, offset: 0x4F064, size: 0x8, addend: 0x0, symName: __ZNSt3__112__hash_tableINS_17__hash_value_typeIi4HostEENS_22__unordered_map_hasherIiS3_NS_4hashIiEENS_8equal_toIiEELb1EEENS_21__unordered_map_equalIiS3_S8_S6_Lb1EEENS_9allocatorIS3_EEE6key_eqB7v160006Ev, symObjAddr: 0x16D80, symBinAddr: 0x10001B6F0, symSize: 0x20 }
  - { offsetInCU: 0x37180, offset: 0x4F089, size: 0x8, addend: 0x0, symName: __ZNKSt3__121__unordered_map_equalIiNS_17__hash_value_typeIi4HostEENS_8equal_toIiEENS_4hashIiEELb1EEclB7v160006ERKS3_RKi, symObjAddr: 0x16DA0, symBinAddr: 0x10001B710, symSize: 0x40 }
  - { offsetInCU: 0x371C3, offset: 0x4F0CC, size: 0x8, addend: 0x0, symName: __ZNSt3__112__hash_tableINS_17__hash_value_typeIi4HostEENS_22__unordered_map_hasherIiS3_NS_4hashIiEENS_8equal_toIiEELb1EEENS_21__unordered_map_equalIiS3_S8_S6_Lb1EEENS_9allocatorIS3_EEE21__construct_node_hashIRiJS2_EEENS_10unique_ptrINS_11__hash_nodeIS3_PvEENS_22__hash_node_destructorINSC_ISK_EEEEEEmOT_DpOT0_, symObjAddr: 0x16DE0, symBinAddr: 0x10001B750, symSize: 0x140 }
  - { offsetInCU: 0x37249, offset: 0x4F152, size: 0x8, addend: 0x0, symName: __ZNSt3__112__hash_tableINS_17__hash_value_typeIi4HostEENS_22__unordered_map_hasherIiS3_NS_4hashIiEENS_8equal_toIiEELb1EEENS_21__unordered_map_equalIiS3_S8_S6_Lb1EEENS_9allocatorIS3_EEE4sizeB7v160006Ev, symObjAddr: 0x16F20, symBinAddr: 0x10001B890, symSize: 0x20 }
  - { offsetInCU: 0x3726E, offset: 0x4F177, size: 0x8, addend: 0x0, symName: __ZNSt3__112__hash_tableINS_17__hash_value_typeIi4HostEENS_22__unordered_map_hasherIiS3_NS_4hashIiEENS_8equal_toIiEELb1EEENS_21__unordered_map_equalIiS3_S8_S6_Lb1EEENS_9allocatorIS3_EEE15max_load_factorB7v160006Ev, symObjAddr: 0x16F40, symBinAddr: 0x10001B8B0, symSize: 0x20 }
  - { offsetInCU: 0x37293, offset: 0x4F19C, size: 0x8, addend: 0x0, symName: __ZNSt3__112__hash_tableINS_17__hash_value_typeIi4HostEENS_22__unordered_map_hasherIiS3_NS_4hashIiEENS_8equal_toIiEELb1EEENS_21__unordered_map_equalIiS3_S8_S6_Lb1EEENS_9allocatorIS3_EEE15__rehash_uniqueB7v160006Em, symObjAddr: 0x16F60, symBinAddr: 0x10001B8D0, symSize: 0x30 }
  - { offsetInCU: 0x372C7, offset: 0x4F1D0, size: 0x8, addend: 0x0, symName: __ZNSt3__116__hash_node_baseIPNS_11__hash_nodeINS_17__hash_value_typeIi4HostEEPvEEE5__ptrB7v160006Ev, symObjAddr: 0x16F90, symBinAddr: 0x10001B900, symSize: 0x20 }
  - { offsetInCU: 0x372EC, offset: 0x4F1F5, size: 0x8, addend: 0x0, symName: __ZNKSt3__110unique_ptrINS_11__hash_nodeINS_17__hash_value_typeIi4HostEEPvEENS_22__hash_node_destructorINS_9allocatorIS6_EEEEEptB7v160006Ev, symObjAddr: 0x16FB0, symBinAddr: 0x10001B920, symSize: 0x20 }
  - { offsetInCU: 0x37311, offset: 0x4F21A, size: 0x8, addend: 0x0, symName: __ZNKSt3__110unique_ptrINS_11__hash_nodeINS_17__hash_value_typeIi4HostEEPvEENS_22__hash_node_destructorINS_9allocatorIS6_EEEEE3getB7v160006Ev, symObjAddr: 0x16FD0, symBinAddr: 0x10001B940, symSize: 0x20 }
  - { offsetInCU: 0x37336, offset: 0x4F23F, size: 0x8, addend: 0x0, symName: __ZNSt3__110unique_ptrINS_11__hash_nodeINS_17__hash_value_typeIi4HostEEPvEENS_22__hash_node_destructorINS_9allocatorIS6_EEEEE7releaseB7v160006Ev, symObjAddr: 0x16FF0, symBinAddr: 0x10001B960, symSize: 0x40 }
  - { offsetInCU: 0x3736A, offset: 0x4F273, size: 0x8, addend: 0x0, symName: __ZNSt3__110unique_ptrINS_11__hash_nodeINS_17__hash_value_typeIi4HostEEPvEENS_22__hash_node_destructorINS_9allocatorIS6_EEEEED1B7v160006Ev, symObjAddr: 0x17030, symBinAddr: 0x10001B9A0, symSize: 0x20 }
  - { offsetInCU: 0x37393, offset: 0x4F29C, size: 0x8, addend: 0x0, symName: __ZNSt3__115__hash_iteratorIPNS_11__hash_nodeINS_17__hash_value_typeIi4HostEEPvEEEC1B7v160006EPNS_16__hash_node_baseIS7_EEPKv, symObjAddr: 0x17050, symBinAddr: 0x10001B9C0, symSize: 0x30 }
  - { offsetInCU: 0x373DF, offset: 0x4F2E8, size: 0x8, addend: 0x0, symName: __ZNSt3__14pairINS_15__hash_iteratorIPNS_11__hash_nodeINS_17__hash_value_typeIi4HostEEPvEEEEbEC1B7v160006IS9_RbLS6_0EEEOT_OT0_, symObjAddr: 0x17080, symBinAddr: 0x10001B9F0, symSize: 0x30 }
  - { offsetInCU: 0x3743C, offset: 0x4F345, size: 0x8, addend: 0x0, symName: __ZNSt3__117__compressed_pairImNS_22__unordered_map_hasherIiNS_17__hash_value_typeIi4HostEENS_4hashIiEENS_8equal_toIiEELb1EEEE6secondB7v160006Ev, symObjAddr: 0x170B0, symBinAddr: 0x10001BA20, symSize: 0x20 }
  - { offsetInCU: 0x37461, offset: 0x4F36A, size: 0x8, addend: 0x0, symName: __ZNSt3__122__compressed_pair_elemINS_22__unordered_map_hasherIiNS_17__hash_value_typeIi4HostEENS_4hashIiEENS_8equal_toIiEELb1EEELi1ELb1EE5__getB7v160006Ev, symObjAddr: 0x170D0, symBinAddr: 0x10001BA40, symSize: 0x10 }
  - { offsetInCU: 0x37486, offset: 0x4F38F, size: 0x8, addend: 0x0, symName: __ZNKSt3__110unique_ptrIA_PNS_16__hash_node_baseIPNS_11__hash_nodeINS_17__hash_value_typeIi4HostEEPvEEEENS_25__bucket_list_deallocatorINS_9allocatorISA_EEEEE11get_deleterB7v160006Ev, symObjAddr: 0x170E0, symBinAddr: 0x10001BA50, symSize: 0x20 }
  - { offsetInCU: 0x374AB, offset: 0x4F3B4, size: 0x8, addend: 0x0, symName: __ZNKSt3__125__bucket_list_deallocatorINS_9allocatorIPNS_16__hash_node_baseIPNS_11__hash_nodeINS_17__hash_value_typeIi4HostEEPvEEEEEEE4sizeB7v160006Ev, symObjAddr: 0x17100, symBinAddr: 0x10001BA70, symSize: 0x20 }
  - { offsetInCU: 0x374D0, offset: 0x4F3D9, size: 0x8, addend: 0x0, symName: __ZNKSt3__117__compressed_pairIPPNS_16__hash_node_baseIPNS_11__hash_nodeINS_17__hash_value_typeIi4HostEEPvEEEENS_25__bucket_list_deallocatorINS_9allocatorISA_EEEEE6secondB7v160006Ev, symObjAddr: 0x17120, symBinAddr: 0x10001BA90, symSize: 0x20 }
  - { offsetInCU: 0x374F5, offset: 0x4F3FE, size: 0x8, addend: 0x0, symName: __ZNKSt3__122__compressed_pair_elemINS_25__bucket_list_deallocatorINS_9allocatorIPNS_16__hash_node_baseIPNS_11__hash_nodeINS_17__hash_value_typeIi4HostEEPvEEEEEEEELi1ELb0EE5__getB7v160006Ev, symObjAddr: 0x17140, symBinAddr: 0x10001BAB0, symSize: 0x10 }
  - { offsetInCU: 0x3751A, offset: 0x4F423, size: 0x8, addend: 0x0, symName: __ZNKSt3__117__compressed_pairImNS_9allocatorIPNS_16__hash_node_baseIPNS_11__hash_nodeINS_17__hash_value_typeIi4HostEEPvEEEEEEE5firstB7v160006Ev, symObjAddr: 0x17150, symBinAddr: 0x10001BAC0, symSize: 0x20 }
  - { offsetInCU: 0x3753F, offset: 0x4F448, size: 0x8, addend: 0x0, symName: __ZNKSt3__117__compressed_pairIPPNS_16__hash_node_baseIPNS_11__hash_nodeINS_17__hash_value_typeIi4HostEEPvEEEENS_25__bucket_list_deallocatorINS_9allocatorISA_EEEEE5firstB7v160006Ev, symObjAddr: 0x17170, symBinAddr: 0x10001BAE0, symSize: 0x20 }
  - { offsetInCU: 0x37564, offset: 0x4F46D, size: 0x8, addend: 0x0, symName: __ZNKSt3__122__compressed_pair_elemIPPNS_16__hash_node_baseIPNS_11__hash_nodeINS_17__hash_value_typeIi4HostEEPvEEEELi0ELb0EE5__getB7v160006Ev, symObjAddr: 0x17190, symBinAddr: 0x10001BB00, symSize: 0x10 }
  - { offsetInCU: 0x37589, offset: 0x4F492, size: 0x8, addend: 0x0, symName: __ZNSt3__117__compressed_pairIfNS_21__unordered_map_equalIiNS_17__hash_value_typeIi4HostEENS_8equal_toIiEENS_4hashIiEELb1EEEE6secondB7v160006Ev, symObjAddr: 0x171A0, symBinAddr: 0x10001BB10, symSize: 0x20 }
  - { offsetInCU: 0x375AE, offset: 0x4F4B7, size: 0x8, addend: 0x0, symName: __ZNSt3__122__compressed_pair_elemINS_21__unordered_map_equalIiNS_17__hash_value_typeIi4HostEENS_8equal_toIiEENS_4hashIiEELb1EEELi1ELb1EE5__getB7v160006Ev, symObjAddr: 0x171C0, symBinAddr: 0x10001BB30, symSize: 0x10 }
  - { offsetInCU: 0x375D3, offset: 0x4F4DC, size: 0x8, addend: 0x0, symName: __ZNKSt3__117__hash_value_typeIi4HostE11__get_valueB7v160006Ev, symObjAddr: 0x171D0, symBinAddr: 0x10001BB40, symSize: 0x20 }
  - { offsetInCU: 0x375F8, offset: 0x4F501, size: 0x8, addend: 0x0, symName: __ZNSt3__116allocator_traitsINS_9allocatorINS_11__hash_nodeINS_17__hash_value_typeIi4HostEEPvEEEEE8allocateB7v160006ERS8_m, symObjAddr: 0x17220, symBinAddr: 0x10001BB90, symSize: 0x30 }
  - { offsetInCU: 0x3762B, offset: 0x4F534, size: 0x8, addend: 0x0, symName: __ZNSt3__122__hash_node_destructorINS_9allocatorINS_11__hash_nodeINS_17__hash_value_typeIi4HostEEPvEEEEEC1B7v160006ERS8_b, symObjAddr: 0x17250, symBinAddr: 0x10001BBC0, symSize: 0x40 }
  - { offsetInCU: 0x37677, offset: 0x4F580, size: 0x8, addend: 0x0, symName: __ZNSt3__110unique_ptrINS_11__hash_nodeINS_17__hash_value_typeIi4HostEEPvEENS_22__hash_node_destructorINS_9allocatorIS6_EEEEEC1B7v160006ILb1EvEEPS6_NS_16__dependent_typeINS_27__unique_ptr_deleter_sfinaeISA_EEXT_EE20__good_rval_ref_typeE, symObjAddr: 0x17290, symBinAddr: 0x10001BC00, symSize: 0x30 }
  - { offsetInCU: 0x376C7, offset: 0x4F5D0, size: 0x8, addend: 0x0, symName: __ZNSt3__116allocator_traitsINS_9allocatorINS_11__hash_nodeINS_17__hash_value_typeIi4HostEEPvEEEEE9constructB7v160006INS_4pairIKiS4_EEJRiS4_EvvEEvRS8_PT_DpOT0_, symObjAddr: 0x172C0, symBinAddr: 0x10001BC30, symSize: 0x30 }
  - { offsetInCU: 0x37730, offset: 0x4F639, size: 0x8, addend: 0x0, symName: __ZNSt3__110unique_ptrINS_11__hash_nodeINS_17__hash_value_typeIi4HostEEPvEENS_22__hash_node_destructorINS_9allocatorIS6_EEEEE11get_deleterB7v160006Ev, symObjAddr: 0x172F0, symBinAddr: 0x10001BC60, symSize: 0x20 }
  - { offsetInCU: 0x37755, offset: 0x4F65E, size: 0x8, addend: 0x0, symName: __ZNSt3__19allocatorINS_11__hash_nodeINS_17__hash_value_typeIi4HostEEPvEEE8allocateB7v160006Em, symObjAddr: 0x17310, symBinAddr: 0x10001BC80, symSize: 0x50 }
  - { offsetInCU: 0x37792, offset: 0x4F69B, size: 0x8, addend: 0x0, symName: __ZNSt3__116allocator_traitsINS_9allocatorINS_11__hash_nodeINS_17__hash_value_typeIi4HostEEPvEEEEE8max_sizeB7v160006IS8_vvEEmRKS8_, symObjAddr: 0x17360, symBinAddr: 0x10001BCD0, symSize: 0x30 }
  - { offsetInCU: 0x377BE, offset: 0x4F6C7, size: 0x8, addend: 0x0, symName: __ZNSt3__122__hash_node_destructorINS_9allocatorINS_11__hash_nodeINS_17__hash_value_typeIi4HostEEPvEEEEEC2B7v160006ERS8_b, symObjAddr: 0x17390, symBinAddr: 0x10001BD00, symSize: 0x30 }
  - { offsetInCU: 0x37805, offset: 0x4F70E, size: 0x8, addend: 0x0, symName: __ZNSt3__110unique_ptrINS_11__hash_nodeINS_17__hash_value_typeIi4HostEEPvEENS_22__hash_node_destructorINS_9allocatorIS6_EEEEEC2B7v160006ILb1EvEEPS6_NS_16__dependent_typeINS_27__unique_ptr_deleter_sfinaeISA_EEXT_EE20__good_rval_ref_typeE, symObjAddr: 0x173C0, symBinAddr: 0x10001BD30, symSize: 0x40 }
  - { offsetInCU: 0x37855, offset: 0x4F75E, size: 0x8, addend: 0x0, symName: __ZNSt3__117__compressed_pairIPNS_11__hash_nodeINS_17__hash_value_typeIi4HostEEPvEENS_22__hash_node_destructorINS_9allocatorIS6_EEEEEC1B7v160006IRS7_SB_EEOT_OT0_, symObjAddr: 0x17400, symBinAddr: 0x10001BD70, symSize: 0x30 }
  - { offsetInCU: 0x378AC, offset: 0x4F7B5, size: 0x8, addend: 0x0, symName: __ZNSt3__117__compressed_pairIPNS_11__hash_nodeINS_17__hash_value_typeIi4HostEEPvEENS_22__hash_node_destructorINS_9allocatorIS6_EEEEEC2B7v160006IRS7_SB_EEOT_OT0_, symObjAddr: 0x17430, symBinAddr: 0x10001BDA0, symSize: 0x40 }
  - { offsetInCU: 0x37903, offset: 0x4F80C, size: 0x8, addend: 0x0, symName: __ZNSt3__122__compressed_pair_elemIPNS_11__hash_nodeINS_17__hash_value_typeIi4HostEEPvEELi0ELb0EEC2B7v160006IRS7_vEEOT_, symObjAddr: 0x17470, symBinAddr: 0x10001BDE0, symSize: 0x20 }
  - { offsetInCU: 0x37944, offset: 0x4F84D, size: 0x8, addend: 0x0, symName: __ZNSt3__122__compressed_pair_elemINS_22__hash_node_destructorINS_9allocatorINS_11__hash_nodeINS_17__hash_value_typeIi4HostEEPvEEEEEELi1ELb0EEC2B7v160006ISA_vEEOT_, symObjAddr: 0x17490, symBinAddr: 0x10001BE00, symSize: 0x30 }
  - { offsetInCU: 0x37985, offset: 0x4F88E, size: 0x8, addend: 0x0, symName: __ZNSt3__14pairIKi4HostEC1B7v160006IRiS2_LPv0EEEOT_OT0_, symObjAddr: 0x17500, symBinAddr: 0x10001BE70, symSize: 0x30 }
  - { offsetInCU: 0x379E2, offset: 0x4F8EB, size: 0x8, addend: 0x0, symName: __ZNSt3__14pairIKi4HostEC2B7v160006IRiS2_LPv0EEEOT_OT0_, symObjAddr: 0x17530, symBinAddr: 0x10001BEA0, symSize: 0x40 }
  - { offsetInCU: 0x37A3F, offset: 0x4F948, size: 0x8, addend: 0x0, symName: __ZN4HostC1EOS_, symObjAddr: 0x17570, symBinAddr: 0x10001BEE0, symSize: 0x30 }
  - { offsetInCU: 0x37A73, offset: 0x4F97C, size: 0x8, addend: 0x0, symName: __ZN4HostC2EOS_, symObjAddr: 0x175A0, symBinAddr: 0x10001BF10, symSize: 0x60 }
  - { offsetInCU: 0x37AA7, offset: 0x4F9B0, size: 0x8, addend: 0x0, symName: __ZNSt3__113unordered_mapIi6PacketNS_4hashIiEENS_8equal_toIiEENS_9allocatorINS_4pairIKiS1_EEEEEC1EOSB_, symObjAddr: 0x17600, symBinAddr: 0x10001BF70, symSize: 0x30 }
  - { offsetInCU: 0x37AE1, offset: 0x4F9EA, size: 0x8, addend: 0x0, symName: __ZNSt3__16vectorI4PathNS_9allocatorIS1_EEEC1B7v160006EOS4_, symObjAddr: 0x17630, symBinAddr: 0x10001BFA0, symSize: 0x30 }
  - { offsetInCU: 0x37B1B, offset: 0x4FA24, size: 0x8, addend: 0x0, symName: __ZNSt3__113unordered_mapIi6PacketNS_4hashIiEENS_8equal_toIiEENS_9allocatorINS_4pairIKiS1_EEEEEC2EOSB_, symObjAddr: 0x17660, symBinAddr: 0x10001BFD0, symSize: 0x50 }
  - { offsetInCU: 0x37B55, offset: 0x4FA5E, size: 0x8, addend: 0x0, symName: __ZNSt3__112__hash_tableINS_17__hash_value_typeIi6PacketEENS_22__unordered_map_hasherIiS3_NS_4hashIiEENS_8equal_toIiEELb1EEENS_21__unordered_map_equalIiS3_S8_S6_Lb1EEENS_9allocatorIS3_EEEC1EOSE_, symObjAddr: 0x176B0, symBinAddr: 0x10001C020, symSize: 0x30 }
  - { offsetInCU: 0x37B8F, offset: 0x4FA98, size: 0x8, addend: 0x0, symName: __ZNSt3__112__hash_tableINS_17__hash_value_typeIi6PacketEENS_22__unordered_map_hasherIiS3_NS_4hashIiEENS_8equal_toIiEELb1EEENS_21__unordered_map_equalIiS3_S8_S6_Lb1EEENS_9allocatorIS3_EEEC2EOSE_, symObjAddr: 0x17700, symBinAddr: 0x10001C060, symSize: 0xE0 }
  - { offsetInCU: 0x37BC9, offset: 0x4FAD2, size: 0x8, addend: 0x0, symName: __ZNSt3__110unique_ptrIA_PNS_16__hash_node_baseIPNS_11__hash_nodeINS_17__hash_value_typeIi6PacketEEPvEEEENS_25__bucket_list_deallocatorINS_9allocatorISA_EEEEEC1B7v160006EOSG_, symObjAddr: 0x177E0, symBinAddr: 0x10001C140, symSize: 0x30 }
  - { offsetInCU: 0x37C01, offset: 0x4FB0A, size: 0x8, addend: 0x0, symName: __ZNSt3__110unique_ptrIA_PNS_16__hash_node_baseIPNS_11__hash_nodeINS_17__hash_value_typeIi6PacketEEPvEEEENS_25__bucket_list_deallocatorINS_9allocatorISA_EEEEEC2B7v160006EOSG_, symObjAddr: 0x17810, symBinAddr: 0x10001C170, symSize: 0x60 }
  - { offsetInCU: 0x37C39, offset: 0x4FB42, size: 0x8, addend: 0x0, symName: __ZNSt3__110unique_ptrIA_PNS_16__hash_node_baseIPNS_11__hash_nodeINS_17__hash_value_typeIi6PacketEEPvEEEENS_25__bucket_list_deallocatorINS_9allocatorISA_EEEEE7releaseB7v160006Ev, symObjAddr: 0x17870, symBinAddr: 0x10001C1D0, symSize: 0x40 }
  - { offsetInCU: 0x37C72, offset: 0x4FB7B, size: 0x8, addend: 0x0, symName: __ZNSt3__117__compressed_pairIPPNS_16__hash_node_baseIPNS_11__hash_nodeINS_17__hash_value_typeIi6PacketEEPvEEEENS_25__bucket_list_deallocatorINS_9allocatorISA_EEEEEC1B7v160006ISB_SF_EEOT_OT0_, symObjAddr: 0x178B0, symBinAddr: 0x10001C210, symSize: 0x30 }
  - { offsetInCU: 0x37CC9, offset: 0x4FBD2, size: 0x8, addend: 0x0, symName: __ZNSt3__117__compressed_pairIPPNS_16__hash_node_baseIPNS_11__hash_nodeINS_17__hash_value_typeIi6PacketEEPvEEEENS_25__bucket_list_deallocatorINS_9allocatorISA_EEEEEC2B7v160006ISB_SF_EEOT_OT0_, symObjAddr: 0x178E0, symBinAddr: 0x10001C240, symSize: 0x40 }
  - { offsetInCU: 0x37D20, offset: 0x4FC29, size: 0x8, addend: 0x0, symName: __ZNSt3__122__compressed_pair_elemIPPNS_16__hash_node_baseIPNS_11__hash_nodeINS_17__hash_value_typeIi6PacketEEPvEEEELi0ELb0EEC2B7v160006ISB_vEEOT_, symObjAddr: 0x17920, symBinAddr: 0x10001C280, symSize: 0x20 }
  - { offsetInCU: 0x37D61, offset: 0x4FC6A, size: 0x8, addend: 0x0, symName: __ZNSt3__122__compressed_pair_elemINS_25__bucket_list_deallocatorINS_9allocatorIPNS_16__hash_node_baseIPNS_11__hash_nodeINS_17__hash_value_typeIi6PacketEEPvEEEEEEEELi1ELb0EEC2B7v160006ISE_vEEOT_, symObjAddr: 0x17940, symBinAddr: 0x10001C2A0, symSize: 0x30 }
  - { offsetInCU: 0x37DA2, offset: 0x4FCAB, size: 0x8, addend: 0x0, symName: __ZNSt3__125__bucket_list_deallocatorINS_9allocatorIPNS_16__hash_node_baseIPNS_11__hash_nodeINS_17__hash_value_typeIi6PacketEEPvEEEEEEEC1B7v160006EOSD_, symObjAddr: 0x17970, symBinAddr: 0x10001C2D0, symSize: 0x30 }
  - { offsetInCU: 0x37DDA, offset: 0x4FCE3, size: 0x8, addend: 0x0, symName: __ZNSt3__125__bucket_list_deallocatorINS_9allocatorIPNS_16__hash_node_baseIPNS_11__hash_nodeINS_17__hash_value_typeIi6PacketEEPvEEEEEEEC2B7v160006EOSD_, symObjAddr: 0x179A0, symBinAddr: 0x10001C300, symSize: 0x40 }
  - { offsetInCU: 0x37E12, offset: 0x4FD1B, size: 0x8, addend: 0x0, symName: __ZNSt3__16vectorI4PathNS_9allocatorIS1_EEEC2B7v160006EOS4_, symObjAddr: 0x179E0, symBinAddr: 0x10001C340, symSize: 0xE0 }
  - { offsetInCU: 0x37E4C, offset: 0x4FD55, size: 0x8, addend: 0x0, symName: __ZNSt3__117__compressed_pairIPNS_11__hash_nodeINS_17__hash_value_typeIi4HostEEPvEENS_22__hash_node_destructorINS_9allocatorIS6_EEEEE6secondB7v160006Ev, symObjAddr: 0x17AD0, symBinAddr: 0x10001C430, symSize: 0x20 }
  - { offsetInCU: 0x37E71, offset: 0x4FD7A, size: 0x8, addend: 0x0, symName: __ZNSt3__122__compressed_pair_elemINS_22__hash_node_destructorINS_9allocatorINS_11__hash_nodeINS_17__hash_value_typeIi4HostEEPvEEEEEELi1ELb0EE5__getB7v160006Ev, symObjAddr: 0x17AF0, symBinAddr: 0x10001C450, symSize: 0x10 }
  - { offsetInCU: 0x37E96, offset: 0x4FD9F, size: 0x8, addend: 0x0, symName: __ZNSt3__117__compressed_pairImNS_22__unordered_map_hasherIiNS_17__hash_value_typeIi4HostEENS_4hashIiEENS_8equal_toIiEELb1EEEE5firstB7v160006Ev, symObjAddr: 0x17B00, symBinAddr: 0x10001C460, symSize: 0x20 }
  - { offsetInCU: 0x37EBB, offset: 0x4FDC4, size: 0x8, addend: 0x0, symName: __ZNSt3__117__compressed_pairIfNS_21__unordered_map_equalIiNS_17__hash_value_typeIi4HostEENS_8equal_toIiEENS_4hashIiEELb1EEEE5firstB7v160006Ev, symObjAddr: 0x17B20, symBinAddr: 0x10001C480, symSize: 0x20 }
  - { offsetInCU: 0x37EE0, offset: 0x4FDE9, size: 0x8, addend: 0x0, symName: __ZNSt3__112__hash_tableINS_17__hash_value_typeIi4HostEENS_22__unordered_map_hasherIiS3_NS_4hashIiEENS_8equal_toIiEELb1EEENS_21__unordered_map_equalIiS3_S8_S6_Lb1EEENS_9allocatorIS3_EEE8__rehashILb1EEEvm, symObjAddr: 0x17B40, symBinAddr: 0x10001C4A0, symSize: 0x230 }
  - { offsetInCU: 0x37F2E, offset: 0x4FE37, size: 0x8, addend: 0x0, symName: __ZNSt3__112__hash_tableINS_17__hash_value_typeIi4HostEENS_22__unordered_map_hasherIiS3_NS_4hashIiEENS_8equal_toIiEELb1EEENS_21__unordered_map_equalIiS3_S8_S6_Lb1EEENS_9allocatorIS3_EEE11__do_rehashILb1EEEvm, symObjAddr: 0x17D70, symBinAddr: 0x10001C6D0, symSize: 0x260 }
  - { offsetInCU: 0x3800F, offset: 0x4FF18, size: 0x8, addend: 0x0, symName: __ZNSt3__110unique_ptrIA_PNS_16__hash_node_baseIPNS_11__hash_nodeINS_17__hash_value_typeIi4HostEEPvEEEENS_25__bucket_list_deallocatorINS_9allocatorISA_EEEEE11get_deleterB7v160006Ev, symObjAddr: 0x17FE0, symBinAddr: 0x10001C940, symSize: 0x20 }
  - { offsetInCU: 0x38034, offset: 0x4FF3D, size: 0x8, addend: 0x0, symName: __ZNSt3__110unique_ptrIA_PNS_16__hash_node_baseIPNS_11__hash_nodeINS_17__hash_value_typeIi4HostEEPvEEEENS_25__bucket_list_deallocatorINS_9allocatorISA_EEEEE5resetB7v160006IPSA_EENS_9enable_ifIXsr28_CheckArrayPointerConversionIT_EE5valueEvE4typeESK_, symObjAddr: 0x18000, symBinAddr: 0x10001C960, symSize: 0x70 }
  - { offsetInCU: 0x38080, offset: 0x4FF89, size: 0x8, addend: 0x0, symName: __ZNSt3__116allocator_traitsINS_9allocatorIPNS_16__hash_node_baseIPNS_11__hash_nodeINS_17__hash_value_typeIi4HostEEPvEEEEEEE8allocateB7v160006ERSC_m, symObjAddr: 0x18070, symBinAddr: 0x10001C9D0, symSize: 0x30 }
  - { offsetInCU: 0x380B3, offset: 0x4FFBC, size: 0x8, addend: 0x0, symName: __ZNSt3__19allocatorIPNS_16__hash_node_baseIPNS_11__hash_nodeINS_17__hash_value_typeIi4HostEEPvEEEEE8allocateB7v160006Em, symObjAddr: 0x180A0, symBinAddr: 0x10001CA00, symSize: 0x50 }
  - { offsetInCU: 0x380F0, offset: 0x4FFF9, size: 0x8, addend: 0x0, symName: __ZNSt3__116allocator_traitsINS_9allocatorIPNS_16__hash_node_baseIPNS_11__hash_nodeINS_17__hash_value_typeIi4HostEEPvEEEEEEE8max_sizeB7v160006ISC_vvEEmRKSC_, symObjAddr: 0x180F0, symBinAddr: 0x10001CA50, symSize: 0x20 }
  - { offsetInCU: 0x3811C, offset: 0x50025, size: 0x8, addend: 0x0, symName: __ZNKSt3__117__compressed_pairIPNS_11__hash_nodeINS_17__hash_value_typeIi4HostEEPvEENS_22__hash_node_destructorINS_9allocatorIS6_EEEEE5firstB7v160006Ev, symObjAddr: 0x18110, symBinAddr: 0x10001CA70, symSize: 0x20 }
  - { offsetInCU: 0x38141, offset: 0x5004A, size: 0x8, addend: 0x0, symName: __ZNKSt3__122__compressed_pair_elemIPNS_11__hash_nodeINS_17__hash_value_typeIi4HostEEPvEELi0ELb0EE5__getB7v160006Ev, symObjAddr: 0x18130, symBinAddr: 0x10001CA90, symSize: 0x10 }
  - { offsetInCU: 0x38166, offset: 0x5006F, size: 0x8, addend: 0x0, symName: __ZNSt3__117__compressed_pairIPNS_11__hash_nodeINS_17__hash_value_typeIi4HostEEPvEENS_22__hash_node_destructorINS_9allocatorIS6_EEEEE5firstB7v160006Ev, symObjAddr: 0x18140, symBinAddr: 0x10001CAA0, symSize: 0x20 }
  - { offsetInCU: 0x3818B, offset: 0x50094, size: 0x8, addend: 0x0, symName: __ZNSt3__122__compressed_pair_elemIPNS_11__hash_nodeINS_17__hash_value_typeIi4HostEEPvEELi0ELb0EE5__getB7v160006Ev, symObjAddr: 0x18160, symBinAddr: 0x10001CAC0, symSize: 0x10 }
  - { offsetInCU: 0x381B0, offset: 0x500B9, size: 0x8, addend: 0x0, symName: __ZNSt3__110unique_ptrINS_11__hash_nodeINS_17__hash_value_typeIi4HostEEPvEENS_22__hash_node_destructorINS_9allocatorIS6_EEEEED2B7v160006Ev, symObjAddr: 0x18170, symBinAddr: 0x10001CAD0, symSize: 0x20 }
  - { offsetInCU: 0x381D9, offset: 0x500E2, size: 0x8, addend: 0x0, symName: __ZNSt3__110unique_ptrINS_11__hash_nodeINS_17__hash_value_typeIi4HostEEPvEENS_22__hash_node_destructorINS_9allocatorIS6_EEEEE5resetB7v160006EPS6_, symObjAddr: 0x18190, symBinAddr: 0x10001CAF0, symSize: 0x70 }
  - { offsetInCU: 0x3821C, offset: 0x50125, size: 0x8, addend: 0x0, symName: __ZNSt3__122__hash_node_destructorINS_9allocatorINS_11__hash_nodeINS_17__hash_value_typeIi4HostEEPvEEEEEclB7v160006EPS7_, symObjAddr: 0x18200, symBinAddr: 0x10001CB60, symSize: 0x90 }
  - { offsetInCU: 0x38250, offset: 0x50159, size: 0x8, addend: 0x0, symName: __ZNSt3__115__hash_iteratorIPNS_11__hash_nodeINS_17__hash_value_typeIi4HostEEPvEEEC2B7v160006EPNS_16__hash_node_baseIS7_EEPKv, symObjAddr: 0x18290, symBinAddr: 0x10001CBF0, symSize: 0x20 }
  - { offsetInCU: 0x38297, offset: 0x501A0, size: 0x8, addend: 0x0, symName: __ZNSt3__14pairINS_15__hash_iteratorIPNS_11__hash_nodeINS_17__hash_value_typeIi4HostEEPvEEEEbEC2B7v160006IS9_RbLS6_0EEEOT_OT0_, symObjAddr: 0x182B0, symBinAddr: 0x10001CC10, symSize: 0x30 }
  - { offsetInCU: 0x382F4, offset: 0x501FD, size: 0x8, addend: 0x0, symName: __ZNSt3__14pairINS_19__hash_map_iteratorINS_15__hash_iteratorIPNS_11__hash_nodeINS_17__hash_value_typeIi4HostEEPvEEEEEEbEC2B7v160006ISA_bLS7_0EEEONS0_IT_T0_EE, symObjAddr: 0x182E0, symBinAddr: 0x10001CC40, symSize: 0x50 }
  - { offsetInCU: 0x38344, offset: 0x5024D, size: 0x8, addend: 0x0, symName: __ZNSt3__119__hash_map_iteratorINS_15__hash_iteratorIPNS_11__hash_nodeINS_17__hash_value_typeIi4HostEEPvEEEEEC1B7v160006ES9_, symObjAddr: 0x18330, symBinAddr: 0x10001CC90, symSize: 0x30 }
  - { offsetInCU: 0x3837C, offset: 0x50285, size: 0x8, addend: 0x0, symName: __ZNSt3__119__hash_map_iteratorINS_15__hash_iteratorIPNS_11__hash_nodeINS_17__hash_value_typeIi4HostEEPvEEEEEC2B7v160006ES9_, symObjAddr: 0x18360, symBinAddr: 0x10001CCC0, symSize: 0x20 }
  - { offsetInCU: 0x383B4, offset: 0x502BD, size: 0x8, addend: 0x0, symName: __ZNSt3__112__hash_tableINS_17__hash_value_typeIiNS_5mutexEEENS_22__unordered_map_hasherIiS3_NS_4hashIiEENS_8equal_toIiEELb1EEENS_21__unordered_map_equalIiS3_S8_S6_Lb1EEENS_9allocatorIS3_EEE16__emplace_uniqueB7v160006IJRKNS_21piecewise_construct_tENS_5tupleIJRiEEENSJ_IJEEEEEENS_4pairINS_15__hash_iteratorIPNS_11__hash_nodeIS3_PvEEEEbEEDpOT_, symObjAddr: 0x18380, symBinAddr: 0x10001CCE0, symSize: 0x50 }
  - { offsetInCU: 0x3841B, offset: 0x50324, size: 0x8, addend: 0x0, symName: __ZNSt3__14pairINS_19__hash_map_iteratorINS_15__hash_iteratorIPNS_11__hash_nodeINS_17__hash_value_typeIiNS_5mutexEEEPvEEEEEEbEC1B7v160006ISA_bLS7_0EEEONS0_IT_T0_EE, symObjAddr: 0x183D0, symBinAddr: 0x10001CD30, symSize: 0x30 }
  - { offsetInCU: 0x3846B, offset: 0x50374, size: 0x8, addend: 0x0, symName: __ZNSt3__112__hash_tableINS_17__hash_value_typeIiNS_5mutexEEENS_22__unordered_map_hasherIiS3_NS_4hashIiEENS_8equal_toIiEELb1EEENS_21__unordered_map_equalIiS3_S8_S6_Lb1EEENS_9allocatorIS3_EEE21__emplace_unique_implIJRKNS_21piecewise_construct_tENS_5tupleIJRiEEENSJ_IJEEEEEENS_4pairINS_15__hash_iteratorIPNS_11__hash_nodeIS3_PvEEEEbEEDpOT_, symObjAddr: 0x18400, symBinAddr: 0x10001CD60, symSize: 0xC0 }
  - { offsetInCU: 0x384F2, offset: 0x503FB, size: 0x8, addend: 0x0, symName: __ZNSt3__112__hash_tableINS_17__hash_value_typeIiNS_5mutexEEENS_22__unordered_map_hasherIiS3_NS_4hashIiEENS_8equal_toIiEELb1EEENS_21__unordered_map_equalIiS3_S8_S6_Lb1EEENS_9allocatorIS3_EEE16__construct_nodeIJRKNS_21piecewise_construct_tENS_5tupleIJRiEEENSJ_IJEEEEEENS_10unique_ptrINS_11__hash_nodeIS3_PvEENS_22__hash_node_destructorINSC_ISQ_EEEEEEDpOT_, symObjAddr: 0x184C0, symBinAddr: 0x10001CE20, symSize: 0x180 }
  - { offsetInCU: 0x38579, offset: 0x50482, size: 0x8, addend: 0x0, symName: __ZNSt3__112__hash_tableINS_17__hash_value_typeIiNS_5mutexEEENS_22__unordered_map_hasherIiS3_NS_4hashIiEENS_8equal_toIiEELb1EEENS_21__unordered_map_equalIiS3_S8_S6_Lb1EEENS_9allocatorIS3_EEE20__node_insert_uniqueEPNS_11__hash_nodeIS3_PvEE, symObjAddr: 0x18640, symBinAddr: 0x10001CFA0, symSize: 0xC0 }
  - { offsetInCU: 0x385CC, offset: 0x504D5, size: 0x8, addend: 0x0, symName: __ZNKSt3__110unique_ptrINS_11__hash_nodeINS_17__hash_value_typeIiNS_5mutexEEEPvEENS_22__hash_node_destructorINS_9allocatorIS6_EEEEE3getB7v160006Ev, symObjAddr: 0x18700, symBinAddr: 0x10001D060, symSize: 0x20 }
  - { offsetInCU: 0x385F1, offset: 0x504FA, size: 0x8, addend: 0x0, symName: __ZNSt3__110unique_ptrINS_11__hash_nodeINS_17__hash_value_typeIiNS_5mutexEEEPvEENS_22__hash_node_destructorINS_9allocatorIS6_EEEEE7releaseB7v160006Ev, symObjAddr: 0x18720, symBinAddr: 0x10001D080, symSize: 0x40 }
  - { offsetInCU: 0x38625, offset: 0x5052E, size: 0x8, addend: 0x0, symName: __ZNSt3__110unique_ptrINS_11__hash_nodeINS_17__hash_value_typeIiNS_5mutexEEEPvEENS_22__hash_node_destructorINS_9allocatorIS6_EEEEED1B7v160006Ev, symObjAddr: 0x18760, symBinAddr: 0x10001D0C0, symSize: 0x20 }
  - { offsetInCU: 0x3864E, offset: 0x50557, size: 0x8, addend: 0x0, symName: __ZNSt3__116allocator_traitsINS_9allocatorINS_11__hash_nodeINS_17__hash_value_typeIiNS_5mutexEEEPvEEEEE8allocateB7v160006ERS8_m, symObjAddr: 0x18780, symBinAddr: 0x10001D0E0, symSize: 0x30 }
  - { offsetInCU: 0x38681, offset: 0x5058A, size: 0x8, addend: 0x0, symName: __ZNSt3__122__hash_node_destructorINS_9allocatorINS_11__hash_nodeINS_17__hash_value_typeIiNS_5mutexEEEPvEEEEEC1B7v160006ERS8_b, symObjAddr: 0x187B0, symBinAddr: 0x10001D110, symSize: 0x40 }
  - { offsetInCU: 0x386CD, offset: 0x505D6, size: 0x8, addend: 0x0, symName: __ZNSt3__110unique_ptrINS_11__hash_nodeINS_17__hash_value_typeIiNS_5mutexEEEPvEENS_22__hash_node_destructorINS_9allocatorIS6_EEEEEC1B7v160006ILb1EvEEPS6_NS_16__dependent_typeINS_27__unique_ptr_deleter_sfinaeISA_EEXT_EE20__good_rval_ref_typeE, symObjAddr: 0x187F0, symBinAddr: 0x10001D150, symSize: 0x30 }
  - { offsetInCU: 0x3871D, offset: 0x50626, size: 0x8, addend: 0x0, symName: __ZNSt3__116allocator_traitsINS_9allocatorINS_11__hash_nodeINS_17__hash_value_typeIiNS_5mutexEEEPvEEEEE9constructB7v160006INS_4pairIKiS4_EEJRKNS_21piecewise_construct_tENS_5tupleIJRiEEENSH_IJEEEEvvEEvRS8_PT_DpOT0_, symObjAddr: 0x18820, symBinAddr: 0x10001D180, symSize: 0x40 }
  - { offsetInCU: 0x3879A, offset: 0x506A3, size: 0x8, addend: 0x0, symName: __ZNKSt3__110unique_ptrINS_11__hash_nodeINS_17__hash_value_typeIiNS_5mutexEEEPvEENS_22__hash_node_destructorINS_9allocatorIS6_EEEEEptB7v160006Ev, symObjAddr: 0x18860, symBinAddr: 0x10001D1C0, symSize: 0x20 }
  - { offsetInCU: 0x387BF, offset: 0x506C8, size: 0x8, addend: 0x0, symName: __ZNSt3__110unique_ptrINS_11__hash_nodeINS_17__hash_value_typeIiNS_5mutexEEEPvEENS_22__hash_node_destructorINS_9allocatorIS6_EEEEE11get_deleterB7v160006Ev, symObjAddr: 0x18880, symBinAddr: 0x10001D1E0, symSize: 0x20 }
  - { offsetInCU: 0x387E4, offset: 0x506ED, size: 0x8, addend: 0x0, symName: __ZNSt3__112__hash_tableINS_17__hash_value_typeIiNS_5mutexEEENS_22__unordered_map_hasherIiS3_NS_4hashIiEENS_8equal_toIiEELb1EEENS_21__unordered_map_equalIiS3_S8_S6_Lb1EEENS_9allocatorIS3_EEE13hash_functionB7v160006Ev, symObjAddr: 0x188A0, symBinAddr: 0x10001D200, symSize: 0x20 }
  - { offsetInCU: 0x38809, offset: 0x50712, size: 0x8, addend: 0x0, symName: __ZNKSt3__122__unordered_map_hasherIiNS_17__hash_value_typeIiNS_5mutexEEENS_4hashIiEENS_8equal_toIiEELb1EEclB7v160006ERKS3_, symObjAddr: 0x188C0, symBinAddr: 0x10001D220, symSize: 0x40 }
  - { offsetInCU: 0x3883D, offset: 0x50746, size: 0x8, addend: 0x0, symName: __ZNSt3__19allocatorINS_11__hash_nodeINS_17__hash_value_typeIiNS_5mutexEEEPvEEE8allocateB7v160006Em, symObjAddr: 0x18900, symBinAddr: 0x10001D260, symSize: 0x50 }
  - { offsetInCU: 0x3887A, offset: 0x50783, size: 0x8, addend: 0x0, symName: __ZNSt3__116allocator_traitsINS_9allocatorINS_11__hash_nodeINS_17__hash_value_typeIiNS_5mutexEEEPvEEEEE8max_sizeB7v160006IS8_vvEEmRKS8_, symObjAddr: 0x18950, symBinAddr: 0x10001D2B0, symSize: 0x30 }
  - { offsetInCU: 0x388A6, offset: 0x507AF, size: 0x8, addend: 0x0, symName: __ZNSt3__122__hash_node_destructorINS_9allocatorINS_11__hash_nodeINS_17__hash_value_typeIiNS_5mutexEEEPvEEEEEC2B7v160006ERS8_b, symObjAddr: 0x18980, symBinAddr: 0x10001D2E0, symSize: 0x30 }
  - { offsetInCU: 0x388ED, offset: 0x507F6, size: 0x8, addend: 0x0, symName: __ZNSt3__110unique_ptrINS_11__hash_nodeINS_17__hash_value_typeIiNS_5mutexEEEPvEENS_22__hash_node_destructorINS_9allocatorIS6_EEEEEC2B7v160006ILb1EvEEPS6_NS_16__dependent_typeINS_27__unique_ptr_deleter_sfinaeISA_EEXT_EE20__good_rval_ref_typeE, symObjAddr: 0x189B0, symBinAddr: 0x10001D310, symSize: 0x40 }
  - { offsetInCU: 0x3893D, offset: 0x50846, size: 0x8, addend: 0x0, symName: __ZNSt3__117__compressed_pairIPNS_11__hash_nodeINS_17__hash_value_typeIiNS_5mutexEEEPvEENS_22__hash_node_destructorINS_9allocatorIS6_EEEEEC1B7v160006IRS7_SB_EEOT_OT0_, symObjAddr: 0x189F0, symBinAddr: 0x10001D350, symSize: 0x30 }
  - { offsetInCU: 0x38994, offset: 0x5089D, size: 0x8, addend: 0x0, symName: __ZNSt3__117__compressed_pairIPNS_11__hash_nodeINS_17__hash_value_typeIiNS_5mutexEEEPvEENS_22__hash_node_destructorINS_9allocatorIS6_EEEEEC2B7v160006IRS7_SB_EEOT_OT0_, symObjAddr: 0x18A20, symBinAddr: 0x10001D380, symSize: 0x40 }
  - { offsetInCU: 0x389EB, offset: 0x508F4, size: 0x8, addend: 0x0, symName: __ZNSt3__122__compressed_pair_elemIPNS_11__hash_nodeINS_17__hash_value_typeIiNS_5mutexEEEPvEELi0ELb0EEC2B7v160006IRS7_vEEOT_, symObjAddr: 0x18A60, symBinAddr: 0x10001D3C0, symSize: 0x20 }
  - { offsetInCU: 0x38A2C, offset: 0x50935, size: 0x8, addend: 0x0, symName: __ZNSt3__122__compressed_pair_elemINS_22__hash_node_destructorINS_9allocatorINS_11__hash_nodeINS_17__hash_value_typeIiNS_5mutexEEEPvEEEEEELi1ELb0EEC2B7v160006ISA_vEEOT_, symObjAddr: 0x18A80, symBinAddr: 0x10001D3E0, symSize: 0x30 }
  - { offsetInCU: 0x38A6D, offset: 0x50976, size: 0x8, addend: 0x0, symName: __ZNSt3__14pairIKiNS_5mutexEEC1B7v160006IJRiEJEEENS_21piecewise_construct_tENS_5tupleIJDpT_EEENS7_IJDpT0_EEE, symObjAddr: 0x18B00, symBinAddr: 0x10001D460, symSize: 0x40 }
  - { offsetInCU: 0x38AD3, offset: 0x509DC, size: 0x8, addend: 0x0, symName: __ZNSt3__14pairIKiNS_5mutexEEC1B7v160006IJRiEJEJLm0EEJEEENS_21piecewise_construct_tERNS_5tupleIJDpT_EEERNS7_IJDpT0_EEENS_15__tuple_indicesIJXspT1_EEEENSG_IJXspT2_EEEE, symObjAddr: 0x18B40, symBinAddr: 0x10001D4A0, symSize: 0x30 }
  - { offsetInCU: 0x38B62, offset: 0x50A6B, size: 0x8, addend: 0x0, symName: __ZNSt3__14pairIKiNS_5mutexEEC2B7v160006IJRiEJEJLm0EEJEEENS_21piecewise_construct_tERNS_5tupleIJDpT_EEERNS7_IJDpT0_EEENS_15__tuple_indicesIJXspT1_EEEENSG_IJXspT2_EEEE, symObjAddr: 0x18B70, symBinAddr: 0x10001D4D0, symSize: 0x50 }
  - { offsetInCU: 0x38BF1, offset: 0x50AFA, size: 0x8, addend: 0x0, symName: __ZNSt3__15mutexC1B7v160006Ev, symObjAddr: 0x18BE0, symBinAddr: 0x10001D540, symSize: 0x20 }
  - { offsetInCU: 0x38C1A, offset: 0x50B23, size: 0x8, addend: 0x0, symName: __ZNSt3__112__tuple_leafILm0ERiLb0EE3getB7v160006Ev, symObjAddr: 0x18C00, symBinAddr: 0x10001D560, symSize: 0x20 }
  - { offsetInCU: 0x38C3F, offset: 0x50B48, size: 0x8, addend: 0x0, symName: __ZNSt3__15mutexC2B7v160006Ev, symObjAddr: 0x18C20, symBinAddr: 0x10001D580, symSize: 0x30 }
  - { offsetInCU: 0x38C68, offset: 0x50B71, size: 0x8, addend: 0x0, symName: __ZNKSt3__117__compressed_pairIPNS_11__hash_nodeINS_17__hash_value_typeIiNS_5mutexEEEPvEENS_22__hash_node_destructorINS_9allocatorIS6_EEEEE5firstB7v160006Ev, symObjAddr: 0x18C50, symBinAddr: 0x10001D5B0, symSize: 0x20 }
  - { offsetInCU: 0x38C8D, offset: 0x50B96, size: 0x8, addend: 0x0, symName: __ZNKSt3__122__compressed_pair_elemIPNS_11__hash_nodeINS_17__hash_value_typeIiNS_5mutexEEEPvEELi0ELb0EE5__getB7v160006Ev, symObjAddr: 0x18C70, symBinAddr: 0x10001D5D0, symSize: 0x10 }
  - { offsetInCU: 0x38CB2, offset: 0x50BBB, size: 0x8, addend: 0x0, symName: __ZNSt3__117__compressed_pairIPNS_11__hash_nodeINS_17__hash_value_typeIiNS_5mutexEEEPvEENS_22__hash_node_destructorINS_9allocatorIS6_EEEEE6secondB7v160006Ev, symObjAddr: 0x18C80, symBinAddr: 0x10001D5E0, symSize: 0x20 }
  - { offsetInCU: 0x38CD7, offset: 0x50BE0, size: 0x8, addend: 0x0, symName: __ZNSt3__122__compressed_pair_elemINS_22__hash_node_destructorINS_9allocatorINS_11__hash_nodeINS_17__hash_value_typeIiNS_5mutexEEEPvEEEEEELi1ELb0EE5__getB7v160006Ev, symObjAddr: 0x18CA0, symBinAddr: 0x10001D600, symSize: 0x10 }
  - { offsetInCU: 0x38CFC, offset: 0x50C05, size: 0x8, addend: 0x0, symName: __ZNSt3__117__compressed_pairImNS_22__unordered_map_hasherIiNS_17__hash_value_typeIiNS_5mutexEEENS_4hashIiEENS_8equal_toIiEELb1EEEE6secondB7v160006Ev, symObjAddr: 0x18CB0, symBinAddr: 0x10001D610, symSize: 0x20 }
  - { offsetInCU: 0x38D21, offset: 0x50C2A, size: 0x8, addend: 0x0, symName: __ZNSt3__122__compressed_pair_elemINS_22__unordered_map_hasherIiNS_17__hash_value_typeIiNS_5mutexEEENS_4hashIiEENS_8equal_toIiEELb1EEELi1ELb1EE5__getB7v160006Ev, symObjAddr: 0x18CD0, symBinAddr: 0x10001D630, symSize: 0x10 }
  - { offsetInCU: 0x38D46, offset: 0x50C4F, size: 0x8, addend: 0x0, symName: __ZNKSt3__117__hash_value_typeIiNS_5mutexEE11__get_valueB7v160006Ev, symObjAddr: 0x18CE0, symBinAddr: 0x10001D640, symSize: 0x20 }
  - { offsetInCU: 0x38D6B, offset: 0x50C74, size: 0x8, addend: 0x0, symName: __ZNSt3__112__hash_tableINS_17__hash_value_typeIiNS_5mutexEEENS_22__unordered_map_hasherIiS3_NS_4hashIiEENS_8equal_toIiEELb1EEENS_21__unordered_map_equalIiS3_S8_S6_Lb1EEENS_9allocatorIS3_EEE28__node_insert_unique_prepareB7v160006EmRS3_, symObjAddr: 0x18D30, symBinAddr: 0x10001D690, symSize: 0x2D0 }
  - { offsetInCU: 0x38DEA, offset: 0x50CF3, size: 0x8, addend: 0x0, symName: __ZNKSt3__116__hash_node_baseIPNS_11__hash_nodeINS_17__hash_value_typeIiNS_5mutexEEEPvEEE6__hashB7v160006Ev, symObjAddr: 0x19000, symBinAddr: 0x10001D960, symSize: 0x20 }
  - { offsetInCU: 0x38E0F, offset: 0x50D18, size: 0x8, addend: 0x0, symName: __ZNSt3__112__hash_tableINS_17__hash_value_typeIiNS_5mutexEEENS_22__unordered_map_hasherIiS3_NS_4hashIiEENS_8equal_toIiEELb1EEENS_21__unordered_map_equalIiS3_S8_S6_Lb1EEENS_9allocatorIS3_EEE28__node_insert_unique_performB7v160006EPNS_11__hash_nodeIS3_PvEE, symObjAddr: 0x19020, symBinAddr: 0x10001D980, symSize: 0x140 }
  - { offsetInCU: 0x38E71, offset: 0x50D7A, size: 0x8, addend: 0x0, symName: __ZNSt3__116__hash_node_baseIPNS_11__hash_nodeINS_17__hash_value_typeIiNS_5mutexEEEPvEEE5__ptrB7v160006Ev, symObjAddr: 0x19160, symBinAddr: 0x10001DAC0, symSize: 0x20 }
  - { offsetInCU: 0x38E96, offset: 0x50D9F, size: 0x8, addend: 0x0, symName: __ZNSt3__115__hash_iteratorIPNS_11__hash_nodeINS_17__hash_value_typeIiNS_5mutexEEEPvEEEC1B7v160006EPNS_16__hash_node_baseIS7_EEPKv, symObjAddr: 0x19180, symBinAddr: 0x10001DAE0, symSize: 0x30 }
  - { offsetInCU: 0x38EE2, offset: 0x50DEB, size: 0x8, addend: 0x0, symName: __ZNSt3__14pairINS_15__hash_iteratorIPNS_11__hash_nodeINS_17__hash_value_typeIiNS_5mutexEEEPvEEEEbEC1B7v160006IS9_RbLS6_0EEEOT_OT0_, symObjAddr: 0x191B0, symBinAddr: 0x10001DB10, symSize: 0x30 }
  - { offsetInCU: 0x38F3F, offset: 0x50E48, size: 0x8, addend: 0x0, symName: __ZNKSt3__112__hash_tableINS_17__hash_value_typeIiNS_5mutexEEENS_22__unordered_map_hasherIiS3_NS_4hashIiEENS_8equal_toIiEELb1EEENS_21__unordered_map_equalIiS3_S8_S6_Lb1EEENS_9allocatorIS3_EEE12bucket_countB7v160006Ev, symObjAddr: 0x191E0, symBinAddr: 0x10001DB40, symSize: 0x30 }
  - { offsetInCU: 0x38F64, offset: 0x50E6D, size: 0x8, addend: 0x0, symName: __ZNKSt3__110unique_ptrIA_PNS_16__hash_node_baseIPNS_11__hash_nodeINS_17__hash_value_typeIiNS_5mutexEEEPvEEEENS_25__bucket_list_deallocatorINS_9allocatorISA_EEEEEixB7v160006Em, symObjAddr: 0x19210, symBinAddr: 0x10001DB70, symSize: 0x30 }
  - { offsetInCU: 0x38F98, offset: 0x50EA1, size: 0x8, addend: 0x0, symName: __ZNSt3__112__hash_tableINS_17__hash_value_typeIiNS_5mutexEEENS_22__unordered_map_hasherIiS3_NS_4hashIiEENS_8equal_toIiEELb1EEENS_21__unordered_map_equalIiS3_S8_S6_Lb1EEENS_9allocatorIS3_EEE6key_eqB7v160006Ev, symObjAddr: 0x19240, symBinAddr: 0x10001DBA0, symSize: 0x20 }
  - { offsetInCU: 0x38FBD, offset: 0x50EC6, size: 0x8, addend: 0x0, symName: __ZNKSt3__121__unordered_map_equalIiNS_17__hash_value_typeIiNS_5mutexEEENS_8equal_toIiEENS_4hashIiEELb1EEclB7v160006ERKS3_SA_, symObjAddr: 0x19260, symBinAddr: 0x10001DBC0, symSize: 0x50 }
  - { offsetInCU: 0x39000, offset: 0x50F09, size: 0x8, addend: 0x0, symName: __ZNSt3__112__hash_tableINS_17__hash_value_typeIiNS_5mutexEEENS_22__unordered_map_hasherIiS3_NS_4hashIiEENS_8equal_toIiEELb1EEENS_21__unordered_map_equalIiS3_S8_S6_Lb1EEENS_9allocatorIS3_EEE4sizeB7v160006Ev, symObjAddr: 0x192B0, symBinAddr: 0x10001DC10, symSize: 0x20 }
  - { offsetInCU: 0x39025, offset: 0x50F2E, size: 0x8, addend: 0x0, symName: __ZNSt3__112__hash_tableINS_17__hash_value_typeIiNS_5mutexEEENS_22__unordered_map_hasherIiS3_NS_4hashIiEENS_8equal_toIiEELb1EEENS_21__unordered_map_equalIiS3_S8_S6_Lb1EEENS_9allocatorIS3_EEE15max_load_factorB7v160006Ev, symObjAddr: 0x192D0, symBinAddr: 0x10001DC30, symSize: 0x20 }
  - { offsetInCU: 0x3904A, offset: 0x50F53, size: 0x8, addend: 0x0, symName: __ZNSt3__112__hash_tableINS_17__hash_value_typeIiNS_5mutexEEENS_22__unordered_map_hasherIiS3_NS_4hashIiEENS_8equal_toIiEELb1EEENS_21__unordered_map_equalIiS3_S8_S6_Lb1EEENS_9allocatorIS3_EEE15__rehash_uniqueB7v160006Em, symObjAddr: 0x192F0, symBinAddr: 0x10001DC50, symSize: 0x30 }
  - { offsetInCU: 0x3907E, offset: 0x50F87, size: 0x8, addend: 0x0, symName: __ZNKSt3__110unique_ptrIA_PNS_16__hash_node_baseIPNS_11__hash_nodeINS_17__hash_value_typeIiNS_5mutexEEEPvEEEENS_25__bucket_list_deallocatorINS_9allocatorISA_EEEEE11get_deleterB7v160006Ev, symObjAddr: 0x19320, symBinAddr: 0x10001DC80, symSize: 0x20 }
  - { offsetInCU: 0x390A3, offset: 0x50FAC, size: 0x8, addend: 0x0, symName: __ZNKSt3__125__bucket_list_deallocatorINS_9allocatorIPNS_16__hash_node_baseIPNS_11__hash_nodeINS_17__hash_value_typeIiNS_5mutexEEEPvEEEEEEE4sizeB7v160006Ev, symObjAddr: 0x19340, symBinAddr: 0x10001DCA0, symSize: 0x20 }
  - { offsetInCU: 0x390C8, offset: 0x50FD1, size: 0x8, addend: 0x0, symName: __ZNKSt3__117__compressed_pairIPPNS_16__hash_node_baseIPNS_11__hash_nodeINS_17__hash_value_typeIiNS_5mutexEEEPvEEEENS_25__bucket_list_deallocatorINS_9allocatorISA_EEEEE6secondB7v160006Ev, symObjAddr: 0x19360, symBinAddr: 0x10001DCC0, symSize: 0x20 }
  - { offsetInCU: 0x390ED, offset: 0x50FF6, size: 0x8, addend: 0x0, symName: __ZNKSt3__122__compressed_pair_elemINS_25__bucket_list_deallocatorINS_9allocatorIPNS_16__hash_node_baseIPNS_11__hash_nodeINS_17__hash_value_typeIiNS_5mutexEEEPvEEEEEEEELi1ELb0EE5__getB7v160006Ev, symObjAddr: 0x19380, symBinAddr: 0x10001DCE0, symSize: 0x10 }
  - { offsetInCU: 0x39112, offset: 0x5101B, size: 0x8, addend: 0x0, symName: __ZNKSt3__117__compressed_pairImNS_9allocatorIPNS_16__hash_node_baseIPNS_11__hash_nodeINS_17__hash_value_typeIiNS_5mutexEEEPvEEEEEEE5firstB7v160006Ev, symObjAddr: 0x19390, symBinAddr: 0x10001DCF0, symSize: 0x20 }
  - { offsetInCU: 0x39137, offset: 0x51040, size: 0x8, addend: 0x0, symName: __ZNKSt3__117__compressed_pairIPPNS_16__hash_node_baseIPNS_11__hash_nodeINS_17__hash_value_typeIiNS_5mutexEEEPvEEEENS_25__bucket_list_deallocatorINS_9allocatorISA_EEEEE5firstB7v160006Ev, symObjAddr: 0x193B0, symBinAddr: 0x10001DD10, symSize: 0x20 }
  - { offsetInCU: 0x3915C, offset: 0x51065, size: 0x8, addend: 0x0, symName: __ZNKSt3__122__compressed_pair_elemIPPNS_16__hash_node_baseIPNS_11__hash_nodeINS_17__hash_value_typeIiNS_5mutexEEEPvEEEELi0ELb0EE5__getB7v160006Ev, symObjAddr: 0x193D0, symBinAddr: 0x10001DD30, symSize: 0x10 }
  - { offsetInCU: 0x39181, offset: 0x5108A, size: 0x8, addend: 0x0, symName: __ZNSt3__117__compressed_pairIfNS_21__unordered_map_equalIiNS_17__hash_value_typeIiNS_5mutexEEENS_8equal_toIiEENS_4hashIiEELb1EEEE6secondB7v160006Ev, symObjAddr: 0x193E0, symBinAddr: 0x10001DD40, symSize: 0x20 }
  - { offsetInCU: 0x391A6, offset: 0x510AF, size: 0x8, addend: 0x0, symName: __ZNSt3__122__compressed_pair_elemINS_21__unordered_map_equalIiNS_17__hash_value_typeIiNS_5mutexEEENS_8equal_toIiEENS_4hashIiEELb1EEELi1ELb1EE5__getB7v160006Ev, symObjAddr: 0x19400, symBinAddr: 0x10001DD60, symSize: 0x10 }
  - { offsetInCU: 0x391CB, offset: 0x510D4, size: 0x8, addend: 0x0, symName: __ZNSt3__117__compressed_pairImNS_22__unordered_map_hasherIiNS_17__hash_value_typeIiNS_5mutexEEENS_4hashIiEENS_8equal_toIiEELb1EEEE5firstB7v160006Ev, symObjAddr: 0x19410, symBinAddr: 0x10001DD70, symSize: 0x20 }
  - { offsetInCU: 0x391F0, offset: 0x510F9, size: 0x8, addend: 0x0, symName: __ZNSt3__117__compressed_pairIfNS_21__unordered_map_equalIiNS_17__hash_value_typeIiNS_5mutexEEENS_8equal_toIiEENS_4hashIiEELb1EEEE5firstB7v160006Ev, symObjAddr: 0x19430, symBinAddr: 0x10001DD90, symSize: 0x20 }
  - { offsetInCU: 0x39215, offset: 0x5111E, size: 0x8, addend: 0x0, symName: __ZNSt3__112__hash_tableINS_17__hash_value_typeIiNS_5mutexEEENS_22__unordered_map_hasherIiS3_NS_4hashIiEENS_8equal_toIiEELb1EEENS_21__unordered_map_equalIiS3_S8_S6_Lb1EEENS_9allocatorIS3_EEE8__rehashILb1EEEvm, symObjAddr: 0x19450, symBinAddr: 0x10001DDB0, symSize: 0x230 }
  - { offsetInCU: 0x39263, offset: 0x5116C, size: 0x8, addend: 0x0, symName: __ZNSt3__112__hash_tableINS_17__hash_value_typeIiNS_5mutexEEENS_22__unordered_map_hasherIiS3_NS_4hashIiEENS_8equal_toIiEELb1EEENS_21__unordered_map_equalIiS3_S8_S6_Lb1EEENS_9allocatorIS3_EEE11__do_rehashILb1EEEvm, symObjAddr: 0x19680, symBinAddr: 0x10001DFE0, symSize: 0x260 }
  - { offsetInCU: 0x39344, offset: 0x5124D, size: 0x8, addend: 0x0, symName: __ZNSt3__110unique_ptrIA_PNS_16__hash_node_baseIPNS_11__hash_nodeINS_17__hash_value_typeIiNS_5mutexEEEPvEEEENS_25__bucket_list_deallocatorINS_9allocatorISA_EEEEE11get_deleterB7v160006Ev, symObjAddr: 0x198F0, symBinAddr: 0x10001E250, symSize: 0x20 }
  - { offsetInCU: 0x39369, offset: 0x51272, size: 0x8, addend: 0x0, symName: __ZNSt3__110unique_ptrIA_PNS_16__hash_node_baseIPNS_11__hash_nodeINS_17__hash_value_typeIiNS_5mutexEEEPvEEEENS_25__bucket_list_deallocatorINS_9allocatorISA_EEEEE5resetB7v160006IPSA_EENS_9enable_ifIXsr28_CheckArrayPointerConversionIT_EE5valueEvE4typeESK_, symObjAddr: 0x19910, symBinAddr: 0x10001E270, symSize: 0x70 }
  - { offsetInCU: 0x393B5, offset: 0x512BE, size: 0x8, addend: 0x0, symName: __ZNSt3__116allocator_traitsINS_9allocatorIPNS_16__hash_node_baseIPNS_11__hash_nodeINS_17__hash_value_typeIiNS_5mutexEEEPvEEEEEEE8allocateB7v160006ERSC_m, symObjAddr: 0x19980, symBinAddr: 0x10001E2E0, symSize: 0x30 }
  - { offsetInCU: 0x393E8, offset: 0x512F1, size: 0x8, addend: 0x0, symName: __ZNSt3__19allocatorIPNS_16__hash_node_baseIPNS_11__hash_nodeINS_17__hash_value_typeIiNS_5mutexEEEPvEEEEE8allocateB7v160006Em, symObjAddr: 0x199B0, symBinAddr: 0x10001E310, symSize: 0x50 }
  - { offsetInCU: 0x39425, offset: 0x5132E, size: 0x8, addend: 0x0, symName: __ZNSt3__116allocator_traitsINS_9allocatorIPNS_16__hash_node_baseIPNS_11__hash_nodeINS_17__hash_value_typeIiNS_5mutexEEEPvEEEEEEE8max_sizeB7v160006ISC_vvEEmRKSC_, symObjAddr: 0x19A00, symBinAddr: 0x10001E360, symSize: 0x20 }
  - { offsetInCU: 0x39451, offset: 0x5135A, size: 0x8, addend: 0x0, symName: __ZNSt3__115__hash_iteratorIPNS_11__hash_nodeINS_17__hash_value_typeIiNS_5mutexEEEPvEEEC2B7v160006EPNS_16__hash_node_baseIS7_EEPKv, symObjAddr: 0x19A20, symBinAddr: 0x10001E380, symSize: 0x20 }
  - { offsetInCU: 0x39498, offset: 0x513A1, size: 0x8, addend: 0x0, symName: __ZNSt3__14pairINS_15__hash_iteratorIPNS_11__hash_nodeINS_17__hash_value_typeIiNS_5mutexEEEPvEEEEbEC2B7v160006IS9_RbLS6_0EEEOT_OT0_, symObjAddr: 0x19A40, symBinAddr: 0x10001E3A0, symSize: 0x30 }
  - { offsetInCU: 0x394F5, offset: 0x513FE, size: 0x8, addend: 0x0, symName: __ZNSt3__117__compressed_pairIPNS_11__hash_nodeINS_17__hash_value_typeIiNS_5mutexEEEPvEENS_22__hash_node_destructorINS_9allocatorIS6_EEEEE5firstB7v160006Ev, symObjAddr: 0x19A70, symBinAddr: 0x10001E3D0, symSize: 0x20 }
  - { offsetInCU: 0x3951A, offset: 0x51423, size: 0x8, addend: 0x0, symName: __ZNSt3__122__compressed_pair_elemIPNS_11__hash_nodeINS_17__hash_value_typeIiNS_5mutexEEEPvEELi0ELb0EE5__getB7v160006Ev, symObjAddr: 0x19A90, symBinAddr: 0x10001E3F0, symSize: 0x10 }
  - { offsetInCU: 0x3953F, offset: 0x51448, size: 0x8, addend: 0x0, symName: __ZNSt3__110unique_ptrINS_11__hash_nodeINS_17__hash_value_typeIiNS_5mutexEEEPvEENS_22__hash_node_destructorINS_9allocatorIS6_EEEEED2B7v160006Ev, symObjAddr: 0x19AA0, symBinAddr: 0x10001E400, symSize: 0x20 }
  - { offsetInCU: 0x39568, offset: 0x51471, size: 0x8, addend: 0x0, symName: __ZNSt3__110unique_ptrINS_11__hash_nodeINS_17__hash_value_typeIiNS_5mutexEEEPvEENS_22__hash_node_destructorINS_9allocatorIS6_EEEEE5resetB7v160006EPS6_, symObjAddr: 0x19AC0, symBinAddr: 0x10001E420, symSize: 0x70 }
  - { offsetInCU: 0x395AB, offset: 0x514B4, size: 0x8, addend: 0x0, symName: __ZNSt3__122__hash_node_destructorINS_9allocatorINS_11__hash_nodeINS_17__hash_value_typeIiNS_5mutexEEEPvEEEEEclB7v160006EPS7_, symObjAddr: 0x19B30, symBinAddr: 0x10001E490, symSize: 0x90 }
  - { offsetInCU: 0x395DF, offset: 0x514E8, size: 0x8, addend: 0x0, symName: __ZNSt3__14pairINS_19__hash_map_iteratorINS_15__hash_iteratorIPNS_11__hash_nodeINS_17__hash_value_typeIiNS_5mutexEEEPvEEEEEEbEC2B7v160006ISA_bLS7_0EEEONS0_IT_T0_EE, symObjAddr: 0x19BC0, symBinAddr: 0x10001E520, symSize: 0x50 }
  - { offsetInCU: 0x3962F, offset: 0x51538, size: 0x8, addend: 0x0, symName: __ZNSt3__119__hash_map_iteratorINS_15__hash_iteratorIPNS_11__hash_nodeINS_17__hash_value_typeIiNS_5mutexEEEPvEEEEEC1B7v160006ES9_, symObjAddr: 0x19C10, symBinAddr: 0x10001E570, symSize: 0x30 }
  - { offsetInCU: 0x39667, offset: 0x51570, size: 0x8, addend: 0x0, symName: __ZNSt3__119__hash_map_iteratorINS_15__hash_iteratorIPNS_11__hash_nodeINS_17__hash_value_typeIiNS_5mutexEEEPvEEEEEC2B7v160006ES9_, symObjAddr: 0x19C40, symBinAddr: 0x10001E5A0, symSize: 0x20 }
  - { offsetInCU: 0x3969F, offset: 0x515A8, size: 0x8, addend: 0x0, symName: __ZNSt3__112__hash_tableINS_17__hash_value_typeIi6SwitchEENS_22__unordered_map_hasherIiS3_NS_4hashIiEENS_8equal_toIiEELb1EEENS_21__unordered_map_equalIiS3_S8_S6_Lb1EEENS_9allocatorIS3_EEE16__emplace_uniqueB7v160006IRiS2_EENS_9enable_ifIXsr21__can_extract_map_keyIT_iNS_4pairIKiS2_EEEE5valueENSJ_INS_15__hash_iteratorIPNS_11__hash_nodeIS3_PvEEEEbEEE4typeEOSI_OT0_, symObjAddr: 0x19C60, symBinAddr: 0x10001E5C0, symSize: 0x40 }
  - { offsetInCU: 0x396F4, offset: 0x515FD, size: 0x8, addend: 0x0, symName: __ZNSt3__14pairINS_19__hash_map_iteratorINS_15__hash_iteratorIPNS_11__hash_nodeINS_17__hash_value_typeIi6SwitchEEPvEEEEEEbEC1B7v160006ISA_bLS7_0EEEONS0_IT_T0_EE, symObjAddr: 0x19CA0, symBinAddr: 0x10001E600, symSize: 0x30 }
  - { offsetInCU: 0x39744, offset: 0x5164D, size: 0x8, addend: 0x0, symName: __ZNSt3__112__hash_tableINS_17__hash_value_typeIi6SwitchEENS_22__unordered_map_hasherIiS3_NS_4hashIiEENS_8equal_toIiEELb1EEENS_21__unordered_map_equalIiS3_S8_S6_Lb1EEENS_9allocatorIS3_EEE25__emplace_unique_key_argsIiJRiS2_EEENS_4pairINS_15__hash_iteratorIPNS_11__hash_nodeIS3_PvEEEEbEERKT_DpOT0_, symObjAddr: 0x19CD0, symBinAddr: 0x10001E630, symSize: 0x5F0 }
  - { offsetInCU: 0x39836, offset: 0x5173F, size: 0x8, addend: 0x0, symName: __ZNSt3__112__hash_tableINS_17__hash_value_typeIi6SwitchEENS_22__unordered_map_hasherIiS3_NS_4hashIiEENS_8equal_toIiEELb1EEENS_21__unordered_map_equalIiS3_S8_S6_Lb1EEENS_9allocatorIS3_EEE13hash_functionB7v160006Ev, symObjAddr: 0x1A2C0, symBinAddr: 0x10001EC20, symSize: 0x20 }
  - { offsetInCU: 0x3985B, offset: 0x51764, size: 0x8, addend: 0x0, symName: __ZNKSt3__122__unordered_map_hasherIiNS_17__hash_value_typeIi6SwitchEENS_4hashIiEENS_8equal_toIiEELb1EEclB7v160006ERKi, symObjAddr: 0x1A2E0, symBinAddr: 0x10001EC40, symSize: 0x30 }
  - { offsetInCU: 0x3988F, offset: 0x51798, size: 0x8, addend: 0x0, symName: __ZNKSt3__112__hash_tableINS_17__hash_value_typeIi6SwitchEENS_22__unordered_map_hasherIiS3_NS_4hashIiEENS_8equal_toIiEELb1EEENS_21__unordered_map_equalIiS3_S8_S6_Lb1EEENS_9allocatorIS3_EEE12bucket_countB7v160006Ev, symObjAddr: 0x1A310, symBinAddr: 0x10001EC70, symSize: 0x30 }
  - { offsetInCU: 0x398B4, offset: 0x517BD, size: 0x8, addend: 0x0, symName: __ZNKSt3__110unique_ptrIA_PNS_16__hash_node_baseIPNS_11__hash_nodeINS_17__hash_value_typeIi6SwitchEEPvEEEENS_25__bucket_list_deallocatorINS_9allocatorISA_EEEEEixB7v160006Em, symObjAddr: 0x1A340, symBinAddr: 0x10001ECA0, symSize: 0x30 }
  - { offsetInCU: 0x398E8, offset: 0x517F1, size: 0x8, addend: 0x0, symName: __ZNKSt3__116__hash_node_baseIPNS_11__hash_nodeINS_17__hash_value_typeIi6SwitchEEPvEEE6__hashB7v160006Ev, symObjAddr: 0x1A370, symBinAddr: 0x10001ECD0, symSize: 0x20 }
  - { offsetInCU: 0x3990D, offset: 0x51816, size: 0x8, addend: 0x0, symName: __ZNSt3__112__hash_tableINS_17__hash_value_typeIi6SwitchEENS_22__unordered_map_hasherIiS3_NS_4hashIiEENS_8equal_toIiEELb1EEENS_21__unordered_map_equalIiS3_S8_S6_Lb1EEENS_9allocatorIS3_EEE6key_eqB7v160006Ev, symObjAddr: 0x1A390, symBinAddr: 0x10001ECF0, symSize: 0x20 }
  - { offsetInCU: 0x39932, offset: 0x5183B, size: 0x8, addend: 0x0, symName: __ZNKSt3__121__unordered_map_equalIiNS_17__hash_value_typeIi6SwitchEENS_8equal_toIiEENS_4hashIiEELb1EEclB7v160006ERKS3_RKi, symObjAddr: 0x1A3B0, symBinAddr: 0x10001ED10, symSize: 0x40 }
  - { offsetInCU: 0x39975, offset: 0x5187E, size: 0x8, addend: 0x0, symName: __ZNSt3__112__hash_tableINS_17__hash_value_typeIi6SwitchEENS_22__unordered_map_hasherIiS3_NS_4hashIiEENS_8equal_toIiEELb1EEENS_21__unordered_map_equalIiS3_S8_S6_Lb1EEENS_9allocatorIS3_EEE21__construct_node_hashIRiJS2_EEENS_10unique_ptrINS_11__hash_nodeIS3_PvEENS_22__hash_node_destructorINSC_ISK_EEEEEEmOT_DpOT0_, symObjAddr: 0x1A3F0, symBinAddr: 0x10001ED50, symSize: 0x140 }
  - { offsetInCU: 0x399FB, offset: 0x51904, size: 0x8, addend: 0x0, symName: __ZNSt3__112__hash_tableINS_17__hash_value_typeIi6SwitchEENS_22__unordered_map_hasherIiS3_NS_4hashIiEENS_8equal_toIiEELb1EEENS_21__unordered_map_equalIiS3_S8_S6_Lb1EEENS_9allocatorIS3_EEE4sizeB7v160006Ev, symObjAddr: 0x1A530, symBinAddr: 0x10001EE90, symSize: 0x20 }
  - { offsetInCU: 0x39A20, offset: 0x51929, size: 0x8, addend: 0x0, symName: __ZNSt3__112__hash_tableINS_17__hash_value_typeIi6SwitchEENS_22__unordered_map_hasherIiS3_NS_4hashIiEENS_8equal_toIiEELb1EEENS_21__unordered_map_equalIiS3_S8_S6_Lb1EEENS_9allocatorIS3_EEE15max_load_factorB7v160006Ev, symObjAddr: 0x1A550, symBinAddr: 0x10001EEB0, symSize: 0x20 }
  - { offsetInCU: 0x39A45, offset: 0x5194E, size: 0x8, addend: 0x0, symName: __ZNSt3__112__hash_tableINS_17__hash_value_typeIi6SwitchEENS_22__unordered_map_hasherIiS3_NS_4hashIiEENS_8equal_toIiEELb1EEENS_21__unordered_map_equalIiS3_S8_S6_Lb1EEENS_9allocatorIS3_EEE15__rehash_uniqueB7v160006Em, symObjAddr: 0x1A570, symBinAddr: 0x10001EED0, symSize: 0x30 }
  - { offsetInCU: 0x39A79, offset: 0x51982, size: 0x8, addend: 0x0, symName: __ZNSt3__116__hash_node_baseIPNS_11__hash_nodeINS_17__hash_value_typeIi6SwitchEEPvEEE5__ptrB7v160006Ev, symObjAddr: 0x1A5A0, symBinAddr: 0x10001EF00, symSize: 0x20 }
  - { offsetInCU: 0x39A9E, offset: 0x519A7, size: 0x8, addend: 0x0, symName: __ZNKSt3__110unique_ptrINS_11__hash_nodeINS_17__hash_value_typeIi6SwitchEEPvEENS_22__hash_node_destructorINS_9allocatorIS6_EEEEEptB7v160006Ev, symObjAddr: 0x1A5C0, symBinAddr: 0x10001EF20, symSize: 0x20 }
  - { offsetInCU: 0x39AC3, offset: 0x519CC, size: 0x8, addend: 0x0, symName: __ZNKSt3__110unique_ptrINS_11__hash_nodeINS_17__hash_value_typeIi6SwitchEEPvEENS_22__hash_node_destructorINS_9allocatorIS6_EEEEE3getB7v160006Ev, symObjAddr: 0x1A5E0, symBinAddr: 0x10001EF40, symSize: 0x20 }
  - { offsetInCU: 0x39AE8, offset: 0x519F1, size: 0x8, addend: 0x0, symName: __ZNSt3__110unique_ptrINS_11__hash_nodeINS_17__hash_value_typeIi6SwitchEEPvEENS_22__hash_node_destructorINS_9allocatorIS6_EEEEE7releaseB7v160006Ev, symObjAddr: 0x1A600, symBinAddr: 0x10001EF60, symSize: 0x40 }
  - { offsetInCU: 0x39B1C, offset: 0x51A25, size: 0x8, addend: 0x0, symName: __ZNSt3__110unique_ptrINS_11__hash_nodeINS_17__hash_value_typeIi6SwitchEEPvEENS_22__hash_node_destructorINS_9allocatorIS6_EEEEED1B7v160006Ev, symObjAddr: 0x1A640, symBinAddr: 0x10001EFA0, symSize: 0x20 }
  - { offsetInCU: 0x39B45, offset: 0x51A4E, size: 0x8, addend: 0x0, symName: __ZNSt3__115__hash_iteratorIPNS_11__hash_nodeINS_17__hash_value_typeIi6SwitchEEPvEEEC1B7v160006EPNS_16__hash_node_baseIS7_EEPKv, symObjAddr: 0x1A660, symBinAddr: 0x10001EFC0, symSize: 0x30 }
  - { offsetInCU: 0x39B91, offset: 0x51A9A, size: 0x8, addend: 0x0, symName: __ZNSt3__14pairINS_15__hash_iteratorIPNS_11__hash_nodeINS_17__hash_value_typeIi6SwitchEEPvEEEEbEC1B7v160006IS9_RbLS6_0EEEOT_OT0_, symObjAddr: 0x1A690, symBinAddr: 0x10001EFF0, symSize: 0x30 }
  - { offsetInCU: 0x39BEE, offset: 0x51AF7, size: 0x8, addend: 0x0, symName: __ZNSt3__117__compressed_pairImNS_22__unordered_map_hasherIiNS_17__hash_value_typeIi6SwitchEENS_4hashIiEENS_8equal_toIiEELb1EEEE6secondB7v160006Ev, symObjAddr: 0x1A6C0, symBinAddr: 0x10001F020, symSize: 0x20 }
  - { offsetInCU: 0x39C13, offset: 0x51B1C, size: 0x8, addend: 0x0, symName: __ZNSt3__122__compressed_pair_elemINS_22__unordered_map_hasherIiNS_17__hash_value_typeIi6SwitchEENS_4hashIiEENS_8equal_toIiEELb1EEELi1ELb1EE5__getB7v160006Ev, symObjAddr: 0x1A6E0, symBinAddr: 0x10001F040, symSize: 0x10 }
  - { offsetInCU: 0x39C38, offset: 0x51B41, size: 0x8, addend: 0x0, symName: __ZNKSt3__110unique_ptrIA_PNS_16__hash_node_baseIPNS_11__hash_nodeINS_17__hash_value_typeIi6SwitchEEPvEEEENS_25__bucket_list_deallocatorINS_9allocatorISA_EEEEE11get_deleterB7v160006Ev, symObjAddr: 0x1A6F0, symBinAddr: 0x10001F050, symSize: 0x20 }
  - { offsetInCU: 0x39C5D, offset: 0x51B66, size: 0x8, addend: 0x0, symName: __ZNKSt3__125__bucket_list_deallocatorINS_9allocatorIPNS_16__hash_node_baseIPNS_11__hash_nodeINS_17__hash_value_typeIi6SwitchEEPvEEEEEEE4sizeB7v160006Ev, symObjAddr: 0x1A710, symBinAddr: 0x10001F070, symSize: 0x20 }
  - { offsetInCU: 0x39C82, offset: 0x51B8B, size: 0x8, addend: 0x0, symName: __ZNKSt3__117__compressed_pairIPPNS_16__hash_node_baseIPNS_11__hash_nodeINS_17__hash_value_typeIi6SwitchEEPvEEEENS_25__bucket_list_deallocatorINS_9allocatorISA_EEEEE6secondB7v160006Ev, symObjAddr: 0x1A730, symBinAddr: 0x10001F090, symSize: 0x20 }
  - { offsetInCU: 0x39CA7, offset: 0x51BB0, size: 0x8, addend: 0x0, symName: __ZNKSt3__122__compressed_pair_elemINS_25__bucket_list_deallocatorINS_9allocatorIPNS_16__hash_node_baseIPNS_11__hash_nodeINS_17__hash_value_typeIi6SwitchEEPvEEEEEEEELi1ELb0EE5__getB7v160006Ev, symObjAddr: 0x1A750, symBinAddr: 0x10001F0B0, symSize: 0x10 }
  - { offsetInCU: 0x39CCC, offset: 0x51BD5, size: 0x8, addend: 0x0, symName: __ZNKSt3__117__compressed_pairImNS_9allocatorIPNS_16__hash_node_baseIPNS_11__hash_nodeINS_17__hash_value_typeIi6SwitchEEPvEEEEEEE5firstB7v160006Ev, symObjAddr: 0x1A760, symBinAddr: 0x10001F0C0, symSize: 0x20 }
  - { offsetInCU: 0x39CF1, offset: 0x51BFA, size: 0x8, addend: 0x0, symName: __ZNKSt3__117__compressed_pairIPPNS_16__hash_node_baseIPNS_11__hash_nodeINS_17__hash_value_typeIi6SwitchEEPvEEEENS_25__bucket_list_deallocatorINS_9allocatorISA_EEEEE5firstB7v160006Ev, symObjAddr: 0x1A780, symBinAddr: 0x10001F0E0, symSize: 0x20 }
  - { offsetInCU: 0x39D16, offset: 0x51C1F, size: 0x8, addend: 0x0, symName: __ZNKSt3__122__compressed_pair_elemIPPNS_16__hash_node_baseIPNS_11__hash_nodeINS_17__hash_value_typeIi6SwitchEEPvEEEELi0ELb0EE5__getB7v160006Ev, symObjAddr: 0x1A7A0, symBinAddr: 0x10001F100, symSize: 0x10 }
  - { offsetInCU: 0x39D3B, offset: 0x51C44, size: 0x8, addend: 0x0, symName: __ZNSt3__117__compressed_pairIfNS_21__unordered_map_equalIiNS_17__hash_value_typeIi6SwitchEENS_8equal_toIiEENS_4hashIiEELb1EEEE6secondB7v160006Ev, symObjAddr: 0x1A7B0, symBinAddr: 0x10001F110, symSize: 0x20 }
  - { offsetInCU: 0x39D60, offset: 0x51C69, size: 0x8, addend: 0x0, symName: __ZNSt3__122__compressed_pair_elemINS_21__unordered_map_equalIiNS_17__hash_value_typeIi6SwitchEENS_8equal_toIiEENS_4hashIiEELb1EEELi1ELb1EE5__getB7v160006Ev, symObjAddr: 0x1A7D0, symBinAddr: 0x10001F130, symSize: 0x10 }
  - { offsetInCU: 0x39D85, offset: 0x51C8E, size: 0x8, addend: 0x0, symName: __ZNKSt3__117__hash_value_typeIi6SwitchE11__get_valueB7v160006Ev, symObjAddr: 0x1A7E0, symBinAddr: 0x10001F140, symSize: 0x20 }
  - { offsetInCU: 0x39DAA, offset: 0x51CB3, size: 0x8, addend: 0x0, symName: __ZNSt3__116allocator_traitsINS_9allocatorINS_11__hash_nodeINS_17__hash_value_typeIi6SwitchEEPvEEEEE8allocateB7v160006ERS8_m, symObjAddr: 0x1A830, symBinAddr: 0x10001F190, symSize: 0x30 }
  - { offsetInCU: 0x39DDD, offset: 0x51CE6, size: 0x8, addend: 0x0, symName: __ZNSt3__122__hash_node_destructorINS_9allocatorINS_11__hash_nodeINS_17__hash_value_typeIi6SwitchEEPvEEEEEC1B7v160006ERS8_b, symObjAddr: 0x1A860, symBinAddr: 0x10001F1C0, symSize: 0x40 }
  - { offsetInCU: 0x39E29, offset: 0x51D32, size: 0x8, addend: 0x0, symName: __ZNSt3__110unique_ptrINS_11__hash_nodeINS_17__hash_value_typeIi6SwitchEEPvEENS_22__hash_node_destructorINS_9allocatorIS6_EEEEEC1B7v160006ILb1EvEEPS6_NS_16__dependent_typeINS_27__unique_ptr_deleter_sfinaeISA_EEXT_EE20__good_rval_ref_typeE, symObjAddr: 0x1A8A0, symBinAddr: 0x10001F200, symSize: 0x30 }
  - { offsetInCU: 0x39E79, offset: 0x51D82, size: 0x8, addend: 0x0, symName: __ZNSt3__116allocator_traitsINS_9allocatorINS_11__hash_nodeINS_17__hash_value_typeIi6SwitchEEPvEEEEE9constructB7v160006INS_4pairIKiS4_EEJRiS4_EvvEEvRS8_PT_DpOT0_, symObjAddr: 0x1A8D0, symBinAddr: 0x10001F230, symSize: 0x30 }
  - { offsetInCU: 0x39EE2, offset: 0x51DEB, size: 0x8, addend: 0x0, symName: __ZNSt3__110unique_ptrINS_11__hash_nodeINS_17__hash_value_typeIi6SwitchEEPvEENS_22__hash_node_destructorINS_9allocatorIS6_EEEEE11get_deleterB7v160006Ev, symObjAddr: 0x1A900, symBinAddr: 0x10001F260, symSize: 0x20 }
  - { offsetInCU: 0x39F07, offset: 0x51E10, size: 0x8, addend: 0x0, symName: __ZNSt3__19allocatorINS_11__hash_nodeINS_17__hash_value_typeIi6SwitchEEPvEEE8allocateB7v160006Em, symObjAddr: 0x1A920, symBinAddr: 0x10001F280, symSize: 0x50 }
  - { offsetInCU: 0x39F44, offset: 0x51E4D, size: 0x8, addend: 0x0, symName: __ZNSt3__116allocator_traitsINS_9allocatorINS_11__hash_nodeINS_17__hash_value_typeIi6SwitchEEPvEEEEE8max_sizeB7v160006IS8_vvEEmRKS8_, symObjAddr: 0x1A970, symBinAddr: 0x10001F2D0, symSize: 0x30 }
  - { offsetInCU: 0x39F70, offset: 0x51E79, size: 0x8, addend: 0x0, symName: __ZNSt3__122__hash_node_destructorINS_9allocatorINS_11__hash_nodeINS_17__hash_value_typeIi6SwitchEEPvEEEEEC2B7v160006ERS8_b, symObjAddr: 0x1A9A0, symBinAddr: 0x10001F300, symSize: 0x30 }
  - { offsetInCU: 0x39FB7, offset: 0x51EC0, size: 0x8, addend: 0x0, symName: __ZNSt3__110unique_ptrINS_11__hash_nodeINS_17__hash_value_typeIi6SwitchEEPvEENS_22__hash_node_destructorINS_9allocatorIS6_EEEEEC2B7v160006ILb1EvEEPS6_NS_16__dependent_typeINS_27__unique_ptr_deleter_sfinaeISA_EEXT_EE20__good_rval_ref_typeE, symObjAddr: 0x1A9D0, symBinAddr: 0x10001F330, symSize: 0x40 }
  - { offsetInCU: 0x3A007, offset: 0x51F10, size: 0x8, addend: 0x0, symName: __ZNSt3__117__compressed_pairIPNS_11__hash_nodeINS_17__hash_value_typeIi6SwitchEEPvEENS_22__hash_node_destructorINS_9allocatorIS6_EEEEEC1B7v160006IRS7_SB_EEOT_OT0_, symObjAddr: 0x1AA10, symBinAddr: 0x10001F370, symSize: 0x30 }
  - { offsetInCU: 0x3A05E, offset: 0x51F67, size: 0x8, addend: 0x0, symName: __ZNSt3__117__compressed_pairIPNS_11__hash_nodeINS_17__hash_value_typeIi6SwitchEEPvEENS_22__hash_node_destructorINS_9allocatorIS6_EEEEEC2B7v160006IRS7_SB_EEOT_OT0_, symObjAddr: 0x1AA40, symBinAddr: 0x10001F3A0, symSize: 0x40 }
  - { offsetInCU: 0x3A0B5, offset: 0x51FBE, size: 0x8, addend: 0x0, symName: __ZNSt3__122__compressed_pair_elemIPNS_11__hash_nodeINS_17__hash_value_typeIi6SwitchEEPvEELi0ELb0EEC2B7v160006IRS7_vEEOT_, symObjAddr: 0x1AA80, symBinAddr: 0x10001F3E0, symSize: 0x20 }
  - { offsetInCU: 0x3A0F6, offset: 0x51FFF, size: 0x8, addend: 0x0, symName: __ZNSt3__122__compressed_pair_elemINS_22__hash_node_destructorINS_9allocatorINS_11__hash_nodeINS_17__hash_value_typeIi6SwitchEEPvEEEEEELi1ELb0EEC2B7v160006ISA_vEEOT_, symObjAddr: 0x1AAA0, symBinAddr: 0x10001F400, symSize: 0x30 }
  - { offsetInCU: 0x3A137, offset: 0x52040, size: 0x8, addend: 0x0, symName: __ZNSt3__14pairIKi6SwitchEC1B7v160006IRiS2_LPv0EEEOT_OT0_, symObjAddr: 0x1AB10, symBinAddr: 0x10001F470, symSize: 0x30 }
  - { offsetInCU: 0x3A194, offset: 0x5209D, size: 0x8, addend: 0x0, symName: __ZNSt3__14pairIKi6SwitchEC2B7v160006IRiS2_LPv0EEEOT_OT0_, symObjAddr: 0x1AB40, symBinAddr: 0x10001F4A0, symSize: 0x40 }
  - { offsetInCU: 0x3A1F1, offset: 0x520FA, size: 0x8, addend: 0x0, symName: __ZN6SwitchC1EOS_, symObjAddr: 0x1AB80, symBinAddr: 0x10001F4E0, symSize: 0x30 }
  - { offsetInCU: 0x3A225, offset: 0x5212E, size: 0x8, addend: 0x0, symName: __ZN6SwitchC2EOS_, symObjAddr: 0x1ABB0, symBinAddr: 0x10001F510, symSize: 0x50 }
  - { offsetInCU: 0x3A259, offset: 0x52162, size: 0x8, addend: 0x0, symName: __ZNSt3__117__compressed_pairIPNS_11__hash_nodeINS_17__hash_value_typeIi6SwitchEEPvEENS_22__hash_node_destructorINS_9allocatorIS6_EEEEE6secondB7v160006Ev, symObjAddr: 0x1AC00, symBinAddr: 0x10001F560, symSize: 0x20 }
  - { offsetInCU: 0x3A27E, offset: 0x52187, size: 0x8, addend: 0x0, symName: __ZNSt3__122__compressed_pair_elemINS_22__hash_node_destructorINS_9allocatorINS_11__hash_nodeINS_17__hash_value_typeIi6SwitchEEPvEEEEEELi1ELb0EE5__getB7v160006Ev, symObjAddr: 0x1AC20, symBinAddr: 0x10001F580, symSize: 0x10 }
  - { offsetInCU: 0x3A2A3, offset: 0x521AC, size: 0x8, addend: 0x0, symName: __ZNSt3__117__compressed_pairImNS_22__unordered_map_hasherIiNS_17__hash_value_typeIi6SwitchEENS_4hashIiEENS_8equal_toIiEELb1EEEE5firstB7v160006Ev, symObjAddr: 0x1AC30, symBinAddr: 0x10001F590, symSize: 0x20 }
  - { offsetInCU: 0x3A2C8, offset: 0x521D1, size: 0x8, addend: 0x0, symName: __ZNSt3__117__compressed_pairIfNS_21__unordered_map_equalIiNS_17__hash_value_typeIi6SwitchEENS_8equal_toIiEENS_4hashIiEELb1EEEE5firstB7v160006Ev, symObjAddr: 0x1AC50, symBinAddr: 0x10001F5B0, symSize: 0x20 }
  - { offsetInCU: 0x3A2ED, offset: 0x521F6, size: 0x8, addend: 0x0, symName: __ZNSt3__112__hash_tableINS_17__hash_value_typeIi6SwitchEENS_22__unordered_map_hasherIiS3_NS_4hashIiEENS_8equal_toIiEELb1EEENS_21__unordered_map_equalIiS3_S8_S6_Lb1EEENS_9allocatorIS3_EEE8__rehashILb1EEEvm, symObjAddr: 0x1AC70, symBinAddr: 0x10001F5D0, symSize: 0x230 }
  - { offsetInCU: 0x3A33B, offset: 0x52244, size: 0x8, addend: 0x0, symName: __ZNSt3__112__hash_tableINS_17__hash_value_typeIi6SwitchEENS_22__unordered_map_hasherIiS3_NS_4hashIiEENS_8equal_toIiEELb1EEENS_21__unordered_map_equalIiS3_S8_S6_Lb1EEENS_9allocatorIS3_EEE11__do_rehashILb1EEEvm, symObjAddr: 0x1AEA0, symBinAddr: 0x10001F800, symSize: 0x260 }
  - { offsetInCU: 0x3A41C, offset: 0x52325, size: 0x8, addend: 0x0, symName: __ZNSt3__110unique_ptrIA_PNS_16__hash_node_baseIPNS_11__hash_nodeINS_17__hash_value_typeIi6SwitchEEPvEEEENS_25__bucket_list_deallocatorINS_9allocatorISA_EEEEE11get_deleterB7v160006Ev, symObjAddr: 0x1B110, symBinAddr: 0x10001FA70, symSize: 0x20 }
  - { offsetInCU: 0x3A441, offset: 0x5234A, size: 0x8, addend: 0x0, symName: __ZNSt3__110unique_ptrIA_PNS_16__hash_node_baseIPNS_11__hash_nodeINS_17__hash_value_typeIi6SwitchEEPvEEEENS_25__bucket_list_deallocatorINS_9allocatorISA_EEEEE5resetB7v160006IPSA_EENS_9enable_ifIXsr28_CheckArrayPointerConversionIT_EE5valueEvE4typeESK_, symObjAddr: 0x1B130, symBinAddr: 0x10001FA90, symSize: 0x70 }
  - { offsetInCU: 0x3A48D, offset: 0x52396, size: 0x8, addend: 0x0, symName: __ZNSt3__116allocator_traitsINS_9allocatorIPNS_16__hash_node_baseIPNS_11__hash_nodeINS_17__hash_value_typeIi6SwitchEEPvEEEEEEE8allocateB7v160006ERSC_m, symObjAddr: 0x1B1A0, symBinAddr: 0x10001FB00, symSize: 0x30 }
  - { offsetInCU: 0x3A4C0, offset: 0x523C9, size: 0x8, addend: 0x0, symName: __ZNSt3__19allocatorIPNS_16__hash_node_baseIPNS_11__hash_nodeINS_17__hash_value_typeIi6SwitchEEPvEEEEE8allocateB7v160006Em, symObjAddr: 0x1B1D0, symBinAddr: 0x10001FB30, symSize: 0x50 }
  - { offsetInCU: 0x3A4FD, offset: 0x52406, size: 0x8, addend: 0x0, symName: __ZNSt3__116allocator_traitsINS_9allocatorIPNS_16__hash_node_baseIPNS_11__hash_nodeINS_17__hash_value_typeIi6SwitchEEPvEEEEEEE8max_sizeB7v160006ISC_vvEEmRKSC_, symObjAddr: 0x1B220, symBinAddr: 0x10001FB80, symSize: 0x20 }
  - { offsetInCU: 0x3A529, offset: 0x52432, size: 0x8, addend: 0x0, symName: __ZNKSt3__117__compressed_pairIPNS_11__hash_nodeINS_17__hash_value_typeIi6SwitchEEPvEENS_22__hash_node_destructorINS_9allocatorIS6_EEEEE5firstB7v160006Ev, symObjAddr: 0x1B240, symBinAddr: 0x10001FBA0, symSize: 0x20 }
  - { offsetInCU: 0x3A54E, offset: 0x52457, size: 0x8, addend: 0x0, symName: __ZNKSt3__122__compressed_pair_elemIPNS_11__hash_nodeINS_17__hash_value_typeIi6SwitchEEPvEELi0ELb0EE5__getB7v160006Ev, symObjAddr: 0x1B260, symBinAddr: 0x10001FBC0, symSize: 0x10 }
  - { offsetInCU: 0x3A573, offset: 0x5247C, size: 0x8, addend: 0x0, symName: __ZNSt3__117__compressed_pairIPNS_11__hash_nodeINS_17__hash_value_typeIi6SwitchEEPvEENS_22__hash_node_destructorINS_9allocatorIS6_EEEEE5firstB7v160006Ev, symObjAddr: 0x1B270, symBinAddr: 0x10001FBD0, symSize: 0x20 }
  - { offsetInCU: 0x3A598, offset: 0x524A1, size: 0x8, addend: 0x0, symName: __ZNSt3__122__compressed_pair_elemIPNS_11__hash_nodeINS_17__hash_value_typeIi6SwitchEEPvEELi0ELb0EE5__getB7v160006Ev, symObjAddr: 0x1B290, symBinAddr: 0x10001FBF0, symSize: 0x10 }
  - { offsetInCU: 0x3A5BD, offset: 0x524C6, size: 0x8, addend: 0x0, symName: __ZNSt3__110unique_ptrINS_11__hash_nodeINS_17__hash_value_typeIi6SwitchEEPvEENS_22__hash_node_destructorINS_9allocatorIS6_EEEEED2B7v160006Ev, symObjAddr: 0x1B2A0, symBinAddr: 0x10001FC00, symSize: 0x20 }
  - { offsetInCU: 0x3A5E6, offset: 0x524EF, size: 0x8, addend: 0x0, symName: __ZNSt3__110unique_ptrINS_11__hash_nodeINS_17__hash_value_typeIi6SwitchEEPvEENS_22__hash_node_destructorINS_9allocatorIS6_EEEEE5resetB7v160006EPS6_, symObjAddr: 0x1B2C0, symBinAddr: 0x10001FC20, symSize: 0x70 }
  - { offsetInCU: 0x3A629, offset: 0x52532, size: 0x8, addend: 0x0, symName: __ZNSt3__122__hash_node_destructorINS_9allocatorINS_11__hash_nodeINS_17__hash_value_typeIi6SwitchEEPvEEEEEclB7v160006EPS7_, symObjAddr: 0x1B330, symBinAddr: 0x10001FC90, symSize: 0x90 }
  - { offsetInCU: 0x3A65D, offset: 0x52566, size: 0x8, addend: 0x0, symName: __ZNSt3__115__hash_iteratorIPNS_11__hash_nodeINS_17__hash_value_typeIi6SwitchEEPvEEEC2B7v160006EPNS_16__hash_node_baseIS7_EEPKv, symObjAddr: 0x1B3C0, symBinAddr: 0x10001FD20, symSize: 0x20 }
  - { offsetInCU: 0x3A6A4, offset: 0x525AD, size: 0x8, addend: 0x0, symName: __ZNSt3__14pairINS_15__hash_iteratorIPNS_11__hash_nodeINS_17__hash_value_typeIi6SwitchEEPvEEEEbEC2B7v160006IS9_RbLS6_0EEEOT_OT0_, symObjAddr: 0x1B3E0, symBinAddr: 0x10001FD40, symSize: 0x30 }
  - { offsetInCU: 0x3A701, offset: 0x5260A, size: 0x8, addend: 0x0, symName: __ZNSt3__14pairINS_19__hash_map_iteratorINS_15__hash_iteratorIPNS_11__hash_nodeINS_17__hash_value_typeIi6SwitchEEPvEEEEEEbEC2B7v160006ISA_bLS7_0EEEONS0_IT_T0_EE, symObjAddr: 0x1B410, symBinAddr: 0x10001FD70, symSize: 0x50 }
  - { offsetInCU: 0x3A751, offset: 0x5265A, size: 0x8, addend: 0x0, symName: __ZNSt3__119__hash_map_iteratorINS_15__hash_iteratorIPNS_11__hash_nodeINS_17__hash_value_typeIi6SwitchEEPvEEEEEC1B7v160006ES9_, symObjAddr: 0x1B460, symBinAddr: 0x10001FDC0, symSize: 0x30 }
  - { offsetInCU: 0x3A789, offset: 0x52692, size: 0x8, addend: 0x0, symName: __ZNSt3__119__hash_map_iteratorINS_15__hash_iteratorIPNS_11__hash_nodeINS_17__hash_value_typeIi6SwitchEEPvEEEEEC2B7v160006ES9_, symObjAddr: 0x1B490, symBinAddr: 0x10001FDF0, symSize: 0x20 }
  - { offsetInCU: 0x3A7C1, offset: 0x526CA, size: 0x8, addend: 0x0, symName: __ZNSt3__16chrono8durationIxNS_5ratioILl1ELl1EEEE4zeroB7v160006Ev, symObjAddr: 0x1B4E0, symBinAddr: 0x10001FE40, symSize: 0x40 }
  - { offsetInCU: 0x3A7D5, offset: 0x526DE, size: 0x8, addend: 0x0, symName: __ZNSt3__16chrono8durationIxNS_5ratioILl1ELl1000000000EEEEppB7v160006Ev, symObjAddr: 0x1B5B0, symBinAddr: 0x10001FF10, symSize: 0x20 }
  - { offsetInCU: 0x3A7FA, offset: 0x52703, size: 0x8, addend: 0x0, symName: __ZNSt3__16chrono8durationIxNS_5ratioILl1ELl1000000000EEEE3maxB7v160006Ev, symObjAddr: 0x1B5D0, symBinAddr: 0x10001FF30, symSize: 0x40 }
  - { offsetInCU: 0x3A818, offset: 0x52721, size: 0x8, addend: 0x0, symName: __ZNKSt3__16chrono13__duration_ltINS0_8durationIxNS_5ratioILl1ELl1EEEEES5_EclB7v160006ERKS5_S8_, symObjAddr: 0x1B640, symBinAddr: 0x10001FFA0, symSize: 0x50 }
  - { offsetInCU: 0x3A85B, offset: 0x52764, size: 0x8, addend: 0x0, symName: __ZNKSt3__16chrono8durationIxNS_5ratioILl1ELl1EEEE5countB7v160006Ev, symObjAddr: 0x1B690, symBinAddr: 0x10001FFF0, symSize: 0x20 }
  - { offsetInCU: 0x3A880, offset: 0x52789, size: 0x8, addend: 0x0, symName: __ZNSt3__16chrono15duration_valuesIxE4zeroB7v160006Ev, symObjAddr: 0x1B6B0, symBinAddr: 0x100020010, symSize: 0x10 }
  - { offsetInCU: 0x3A894, offset: 0x5279D, size: 0x8, addend: 0x0, symName: __ZNSt3__16chrono8durationIxNS_5ratioILl1ELl1EEEEC1B7v160006IxEERKT_PNS_9enable_ifIXaasr14is_convertibleIS8_xEE5valueooL_ZNS_17integral_constantIbLb0EE5valueEEntsr23treat_as_floating_pointIS6_EE5valueEvE4typeE, symObjAddr: 0x1B6C0, symBinAddr: 0x100020020, symSize: 0x30 }
  - { offsetInCU: 0x3A8E0, offset: 0x527E9, size: 0x8, addend: 0x0, symName: __ZNSt3__16chrono8durationIxNS_5ratioILl1ELl1EEEEC2B7v160006IxEERKT_PNS_9enable_ifIXaasr14is_convertibleIS8_xEE5valueooL_ZNS_17integral_constantIbLb0EE5valueEEntsr23treat_as_floating_pointIS6_EE5valueEvE4typeE, symObjAddr: 0x1B6F0, symBinAddr: 0x100020050, symSize: 0x20 }
  - { offsetInCU: 0x3A92C, offset: 0x52835, size: 0x8, addend: 0x0, symName: __ZNSt3__16chrono8durationIeNS_5ratioILl1ELl1EEEEC1B7v160006IxS3_EERKNS1_IT_T0_EEPNS_9enable_ifIXaasr13__no_overflowIS7_S3_EE5valueooL_ZNS_17integral_constantIbLb1EE5valueEEaaeqsr13__no_overflowIS7_S3_E4typeE3denLi1Entsr23treat_as_floating_pointIS6_EE5valueEvE4typeE, symObjAddr: 0x1B770, symBinAddr: 0x1000200D0, symSize: 0x30 }
  - { offsetInCU: 0x3A982, offset: 0x5288B, size: 0x8, addend: 0x0, symName: __ZNKSt3__16chrono8durationIeNS_5ratioILl1ELl1EEEE5countB7v160006Ev, symObjAddr: 0x1B7A0, symBinAddr: 0x100020100, symSize: 0x10 }
  - { offsetInCU: 0x3A9A7, offset: 0x528B0, size: 0x8, addend: 0x0, symName: __ZNSt3__16chrono8durationIeNS_5ratioILl1ELl1EEEEC2B7v160006IxS3_EERKNS1_IT_T0_EEPNS_9enable_ifIXaasr13__no_overflowIS7_S3_EE5valueooL_ZNS_17integral_constantIbLb1EE5valueEEaaeqsr13__no_overflowIS7_S3_E4typeE3denLi1Entsr23treat_as_floating_pointIS6_EE5valueEvE4typeE, symObjAddr: 0x1B7B0, symBinAddr: 0x100020110, symSize: 0x40 }
  - { offsetInCU: 0x3AA07, offset: 0x52910, size: 0x8, addend: 0x0, symName: __ZNKSt3__16chrono15__duration_castINS0_8durationIxNS_5ratioILl1ELl1EEEEENS2_IeS4_EES4_Lb1ELb1EEclB7v160006ERKS5_, symObjAddr: 0x1B820, symBinAddr: 0x100020180, symSize: 0x40 }
  - { offsetInCU: 0x3AA44, offset: 0x5294D, size: 0x8, addend: 0x0, symName: __ZNSt3__16chrono8durationIeNS_5ratioILl1ELl1EEEEC1B7v160006IeEERKT_PNS_9enable_ifIXaasr14is_convertibleIS8_eEE5valueooL_ZNS_17integral_constantIbLb1EE5valueEEntsr23treat_as_floating_pointIS6_EE5valueEvE4typeE, symObjAddr: 0x1B860, symBinAddr: 0x1000201C0, symSize: 0x30 }
  - { offsetInCU: 0x3AA90, offset: 0x52999, size: 0x8, addend: 0x0, symName: __ZNSt3__16chrono8durationIeNS_5ratioILl1ELl1EEEEC2B7v160006IeEERKT_PNS_9enable_ifIXaasr14is_convertibleIS8_eEE5valueooL_ZNS_17integral_constantIbLb1EE5valueEEntsr23treat_as_floating_pointIS6_EE5valueEvE4typeE, symObjAddr: 0x1B890, symBinAddr: 0x1000201F0, symSize: 0x20 }
  - { offsetInCU: 0x3AADC, offset: 0x529E5, size: 0x8, addend: 0x0, symName: __ZNSt3__16chrono8durationIxNS_5ratioILl1ELl1000000000EEEEC1B7v160006IxNS2_ILl1ELl1EEEEERKNS1_IT_T0_EEPNS_9enable_ifIXaasr13__no_overflowIS8_S3_EE5valueooL_ZNS_17integral_constantIbLb0EE5valueEEaaeqsr13__no_overflowIS8_S3_E4typeE3denLi1Entsr23treat_as_floating_pointIS7_EE5valueEvE4typeE, symObjAddr: 0x1B950, symBinAddr: 0x1000202B0, symSize: 0x30 }
  - { offsetInCU: 0x3AB32, offset: 0x52A3B, size: 0x8, addend: 0x0, symName: __ZNSt3__16chrono8durationIxNS_5ratioILl1ELl1000000000EEEEC2B7v160006IxNS2_ILl1ELl1EEEEERKNS1_IT_T0_EEPNS_9enable_ifIXaasr13__no_overflowIS8_S3_EE5valueooL_ZNS_17integral_constantIbLb0EE5valueEEaaeqsr13__no_overflowIS8_S3_E4typeE3denLi1Entsr23treat_as_floating_pointIS7_EE5valueEvE4typeE, symObjAddr: 0x1B980, symBinAddr: 0x1000202E0, symSize: 0x50 }
  - { offsetInCU: 0x3AB88, offset: 0x52A91, size: 0x8, addend: 0x0, symName: __ZNSt3__16chrono15duration_valuesIxE3maxB7v160006Ev, symObjAddr: 0x1B9D0, symBinAddr: 0x100020330, symSize: 0x10 }
  - { offsetInCU: 0x3AB9C, offset: 0x52AA5, size: 0x8, addend: 0x0, symName: __ZNSt3__114numeric_limitsIxE3maxB7v160006Ev, symObjAddr: 0x1B9E0, symBinAddr: 0x100020340, symSize: 0x10 }
  - { offsetInCU: 0x3ABB0, offset: 0x52AB9, size: 0x8, addend: 0x0, symName: __ZNSt3__123__libcpp_numeric_limitsIxLb1EE3maxB7v160006Ev, symObjAddr: 0x1B9F0, symBinAddr: 0x100020350, symSize: 0x10 }
  - { offsetInCU: 0x3ABC4, offset: 0x52ACD, size: 0x8, addend: 0x0, symName: '__ZNSt3__16threadC2IZ4sendR4Hosti6PacketNS_12basic_stringIcNS_11char_traitsIcEENS_9allocatorIcEEEEE3$_0JEvEEOT_DpOT0_', symObjAddr: 0x1BA00, symBinAddr: 0x100020360, symSize: 0x140 }
  - { offsetInCU: 0x3AC3F, offset: 0x52B48, size: 0x8, addend: 0x0, symName: '__ZNSt3__15tupleIJNS_10unique_ptrINS_15__thread_structENS_14default_deleteIS2_EEEEZ4sendR4Hosti6PacketNS_12basic_stringIcNS_11char_traitsIcEENS_9allocatorIcEEEEE3$_0EEC1B7v160006IJS5_SF_ELi0EEEDpOT_', symObjAddr: 0x1BB40, symBinAddr: 0x1000204A0, symSize: 0x30 }
  - { offsetInCU: 0x3AD2D, offset: 0x52C36, size: 0x8, addend: 0x0, symName: '__ZNSt3__110unique_ptrINS_5tupleIJNS0_INS_15__thread_structENS_14default_deleteIS2_EEEEZ4sendR4Hosti6PacketNS_12basic_stringIcNS_11char_traitsIcEENS_9allocatorIcEEEEE3$_0EEENS3_ISG_EEEC1B7v160006ILb1EvEEPSG_', symObjAddr: 0x1BB70, symBinAddr: 0x1000204D0, symSize: 0x30 }
  - { offsetInCU: 0x3AD6F, offset: 0x52C78, size: 0x8, addend: 0x0, symName: '__ZNKSt3__110unique_ptrINS_5tupleIJNS0_INS_15__thread_structENS_14default_deleteIS2_EEEEZ4sendR4Hosti6PacketNS_12basic_stringIcNS_11char_traitsIcEENS_9allocatorIcEEEEE3$_0EEENS3_ISG_EEE3getB7v160006Ev', symObjAddr: 0x1BC40, symBinAddr: 0x1000205A0, symSize: 0x20 }
  - { offsetInCU: 0x3AD94, offset: 0x52C9D, size: 0x8, addend: 0x0, symName: '__ZNSt3__110unique_ptrINS_5tupleIJNS0_INS_15__thread_structENS_14default_deleteIS2_EEEEZ4sendR4Hosti6PacketNS_12basic_stringIcNS_11char_traitsIcEENS_9allocatorIcEEEEE3$_0EEENS3_ISG_EEE7releaseB7v160006Ev', symObjAddr: 0x1BC60, symBinAddr: 0x1000205C0, symSize: 0x40 }
  - { offsetInCU: 0x3ADC8, offset: 0x52CD1, size: 0x8, addend: 0x0, symName: '__ZNSt3__110unique_ptrINS_5tupleIJNS0_INS_15__thread_structENS_14default_deleteIS2_EEEEZ4sendR4Hosti6PacketNS_12basic_stringIcNS_11char_traitsIcEENS_9allocatorIcEEEEE3$_0EEENS3_ISG_EEED1B7v160006Ev', symObjAddr: 0x1BCA0, symBinAddr: 0x100020600, symSize: 0x20 }
  - { offsetInCU: 0x3ADF1, offset: 0x52CFA, size: 0x8, addend: 0x0, symName: '__ZNSt3__15tupleIJNS_10unique_ptrINS_15__thread_structENS_14default_deleteIS2_EEEEZ4sendR4Hosti6PacketNS_12basic_stringIcNS_11char_traitsIcEENS_9allocatorIcEEEEE3$_0EEC2B7v160006IJS5_SF_ELi0EEEDpOT_', symObjAddr: 0x1BCC0, symBinAddr: 0x100020620, symSize: 0x30 }
  - { offsetInCU: 0x3AE4E, offset: 0x52D57, size: 0x8, addend: 0x0, symName: '__ZNSt3__112__tuple_implINS_15__tuple_indicesIJLm0ELm1EEEEJNS_10unique_ptrINS_15__thread_structENS_14default_deleteIS4_EEEEZ4sendR4Hosti6PacketNS_12basic_stringIcNS_11char_traitsIcEENS_9allocatorIcEEEEE3$_0EEC1B7v160006IJLm0ELm1EEJS7_SH_EJEJEJS7_SH_EEENS1_IJXspT_EEEENS_13__tuple_typesIJDpT0_EEENS1_IJXspT1_EEEENSL_IJDpT2_EEEDpOT3_', symObjAddr: 0x1BCF0, symBinAddr: 0x100020650, symSize: 0x30 }
  - { offsetInCU: 0x3AF01, offset: 0x52E0A, size: 0x8, addend: 0x0, symName: '__ZNSt3__112__tuple_implINS_15__tuple_indicesIJLm0ELm1EEEEJNS_10unique_ptrINS_15__thread_structENS_14default_deleteIS4_EEEEZ4sendR4Hosti6PacketNS_12basic_stringIcNS_11char_traitsIcEENS_9allocatorIcEEEEE3$_0EEC2B7v160006IJLm0ELm1EEJS7_SH_EJEJEJS7_SH_EEENS1_IJXspT_EEEENS_13__tuple_typesIJDpT0_EEENS1_IJXspT1_EEEENSL_IJDpT2_EEEDpOT3_', symObjAddr: 0x1BD20, symBinAddr: 0x100020680, symSize: 0x40 }
  - { offsetInCU: 0x3AFB4, offset: 0x52EBD, size: 0x8, addend: 0x0, symName: '__ZNSt3__112__tuple_leafILm1EZ4sendR4Hosti6PacketNS_12basic_stringIcNS_11char_traitsIcEENS_9allocatorIcEEEEE3$_0Lb0EEC2B7v160006ISA_vEEOT_', symObjAddr: 0x1BD60, symBinAddr: 0x1000206C0, symSize: 0x30 }
  - { offsetInCU: 0x3AFF6, offset: 0x52EFF, size: 0x8, addend: 0x0, symName: '__ZNSt3__110unique_ptrINS_5tupleIJNS0_INS_15__thread_structENS_14default_deleteIS2_EEEEZ4sendR4Hosti6PacketNS_12basic_stringIcNS_11char_traitsIcEENS_9allocatorIcEEEEE3$_0EEENS3_ISG_EEEC2B7v160006ILb1EvEEPSG_', symObjAddr: 0x1BD90, symBinAddr: 0x1000206F0, symSize: 0x40 }
  - { offsetInCU: 0x3B038, offset: 0x52F41, size: 0x8, addend: 0x0, symName: '__ZNSt3__117__compressed_pairIPNS_5tupleIJNS_10unique_ptrINS_15__thread_structENS_14default_deleteIS3_EEEEZ4sendR4Hosti6PacketNS_12basic_stringIcNS_11char_traitsIcEENS_9allocatorIcEEEEE3$_0EEENS4_ISH_EEEC1B7v160006IRSI_NS_16__value_init_tagEEEOT_OT0_', symObjAddr: 0x1BDD0, symBinAddr: 0x100020730, symSize: 0x30 }
  - { offsetInCU: 0x3B08F, offset: 0x52F98, size: 0x8, addend: 0x0, symName: '__ZNSt3__117__compressed_pairIPNS_5tupleIJNS_10unique_ptrINS_15__thread_structENS_14default_deleteIS3_EEEEZ4sendR4Hosti6PacketNS_12basic_stringIcNS_11char_traitsIcEENS_9allocatorIcEEEEE3$_0EEENS4_ISH_EEEC2B7v160006IRSI_NS_16__value_init_tagEEEOT_OT0_', symObjAddr: 0x1BE00, symBinAddr: 0x100020760, symSize: 0x40 }
  - { offsetInCU: 0x3B0E6, offset: 0x52FEF, size: 0x8, addend: 0x0, symName: '__ZNSt3__122__compressed_pair_elemIPNS_5tupleIJNS_10unique_ptrINS_15__thread_structENS_14default_deleteIS3_EEEEZ4sendR4Hosti6PacketNS_12basic_stringIcNS_11char_traitsIcEENS_9allocatorIcEEEEE3$_0EEELi0ELb0EEC2B7v160006IRSI_vEEOT_', symObjAddr: 0x1BE40, symBinAddr: 0x1000207A0, symSize: 0x20 }
  - { offsetInCU: 0x3B127, offset: 0x53030, size: 0x8, addend: 0x0, symName: '__ZNSt3__122__compressed_pair_elemINS_14default_deleteINS_5tupleIJNS_10unique_ptrINS_15__thread_structENS1_IS4_EEEEZ4sendR4Hosti6PacketNS_12basic_stringIcNS_11char_traitsIcEENS_9allocatorIcEEEEE3$_0EEEEELi1ELb1EEC2B7v160006ENS_16__value_init_tagE', symObjAddr: 0x1BE60, symBinAddr: 0x1000207C0, symSize: 0x10 }
  - { offsetInCU: 0x3B15F, offset: 0x53068, size: 0x8, addend: 0x0, symName: '__ZZ4sendR4Hosti6PacketNSt3__112basic_stringIcNS2_11char_traitsIcEENS2_9allocatorIcEEEEENK3$_0clEv', symObjAddr: 0x1BF00, symBinAddr: 0x100020860, symSize: 0x80 }
  - { offsetInCU: 0x3B188, offset: 0x53091, size: 0x8, addend: 0x0, symName: '__ZNSt3__112__tuple_leafILm1EZ4sendR4Hosti6PacketNS_12basic_stringIcNS_11char_traitsIcEENS_9allocatorIcEEEEE3$_0Lb0EE3getB7v160006Ev', symObjAddr: 0x1BF80, symBinAddr: 0x1000208E0, symSize: 0x10 }
  - { offsetInCU: 0x3B1AD, offset: 0x530B6, size: 0x8, addend: 0x0, symName: '__ZNKSt3__117__compressed_pairIPNS_5tupleIJNS_10unique_ptrINS_15__thread_structENS_14default_deleteIS3_EEEEZ4sendR4Hosti6PacketNS_12basic_stringIcNS_11char_traitsIcEENS_9allocatorIcEEEEE3$_0EEENS4_ISH_EEE5firstB7v160006Ev', symObjAddr: 0x1BF90, symBinAddr: 0x1000208F0, symSize: 0x20 }
  - { offsetInCU: 0x3B1D2, offset: 0x530DB, size: 0x8, addend: 0x0, symName: '__ZNKSt3__122__compressed_pair_elemIPNS_5tupleIJNS_10unique_ptrINS_15__thread_structENS_14default_deleteIS3_EEEEZ4sendR4Hosti6PacketNS_12basic_stringIcNS_11char_traitsIcEENS_9allocatorIcEEEEE3$_0EEELi0ELb0EE5__getB7v160006Ev', symObjAddr: 0x1BFB0, symBinAddr: 0x100020910, symSize: 0x10 }
  - { offsetInCU: 0x3B1F7, offset: 0x53100, size: 0x8, addend: 0x0, symName: '__ZNSt3__117__compressed_pairIPNS_5tupleIJNS_10unique_ptrINS_15__thread_structENS_14default_deleteIS3_EEEEZ4sendR4Hosti6PacketNS_12basic_stringIcNS_11char_traitsIcEENS_9allocatorIcEEEEE3$_0EEENS4_ISH_EEE5firstB7v160006Ev', symObjAddr: 0x1BFC0, symBinAddr: 0x100020920, symSize: 0x20 }
  - { offsetInCU: 0x3B21C, offset: 0x53125, size: 0x8, addend: 0x0, symName: '__ZNSt3__122__compressed_pair_elemIPNS_5tupleIJNS_10unique_ptrINS_15__thread_structENS_14default_deleteIS3_EEEEZ4sendR4Hosti6PacketNS_12basic_stringIcNS_11char_traitsIcEENS_9allocatorIcEEEEE3$_0EEELi0ELb0EE5__getB7v160006Ev', symObjAddr: 0x1BFE0, symBinAddr: 0x100020940, symSize: 0x10 }
  - { offsetInCU: 0x3B241, offset: 0x5314A, size: 0x8, addend: 0x0, symName: '__ZNSt3__110unique_ptrINS_5tupleIJNS0_INS_15__thread_structENS_14default_deleteIS2_EEEEZ4sendR4Hosti6PacketNS_12basic_stringIcNS_11char_traitsIcEENS_9allocatorIcEEEEE3$_0EEENS3_ISG_EEED2B7v160006Ev', symObjAddr: 0x1BFF0, symBinAddr: 0x100020950, symSize: 0x20 }
  - { offsetInCU: 0x3B26A, offset: 0x53173, size: 0x8, addend: 0x0, symName: '__ZNSt3__110unique_ptrINS_5tupleIJNS0_INS_15__thread_structENS_14default_deleteIS2_EEEEZ4sendR4Hosti6PacketNS_12basic_stringIcNS_11char_traitsIcEENS_9allocatorIcEEEEE3$_0EEENS3_ISG_EEE5resetB7v160006EPSG_', symObjAddr: 0x1C010, symBinAddr: 0x100020970, symSize: 0x70 }
